---
triple:          'arm64-apple-darwin'
binary-path:     lab3
relocations:
  - { offsetInCU: 0x6BDB, offset: 0x6BDB, size: 0x8, addend: 0x0, symName: __ZNSt3__17advanceB8ue170006IP4CellllvEEvRT_T0_, symObjAddr: 0x3AB4, symBinAddr: 0x100006B68, symSize: 0x38 }
  - { offsetInCU: 0x6E36, offset: 0x6E36, size: 0x8, addend: 0x0, symName: __ZNSt3__17advanceB8ue170006IPNS_6vectorI4CellNS_9allocatorIS2_EEEEllvEEvRT_T0_, symObjAddr: 0x4358, symBinAddr: 0x10000740C, symSize: 0x38 }
  - { offsetInCU: 0x6ECA, offset: 0x6ECA, size: 0x8, addend: 0x0, symName: __ZNSt3__124__put_character_sequenceB8ue170006IcNS_11char_traitsIcEEEERNS_13basic_ostreamIT_T0_EES7_PKS4_m, symObjAddr: 0x4978, symBinAddr: 0x100007A2C, symSize: 0x1EC }
  - { offsetInCU: 0x8FD3, offset: 0x8FD3, size: 0x8, addend: 0x0, symName: __ZNSt3__1lsB8ue170006INS_11char_traitsIcEEEERNS_13basic_ostreamIcT_EES6_PKc, symObjAddr: 0x50C, symBinAddr: 0x1000035C0, symSize: 0x48 }
  - { offsetInCU: 0x9019, offset: 0x9019, size: 0x8, addend: 0x0, symName: __ZNSt3__14endlB8ue170006IcNS_11char_traitsIcEEEERNS_13basic_ostreamIT_T0_EES7_, symObjAddr: 0x580, symBinAddr: 0x100003634, symSize: 0x58 }
  - { offsetInCU: 0x9059, offset: 0x9059, size: 0x8, addend: 0x0, symName: __ZNSt3__1lsB8ue170006IcNS_11char_traitsIcEENS_9allocatorIcEEEERNS_13basic_ostreamIT_T0_EES9_RKNS_12basic_stringIS6_S7_T1_EE, symObjAddr: 0x5D8, symBinAddr: 0x10000368C, symSize: 0x4C }
  - { offsetInCU: 0x90B1, offset: 0x90B1, size: 0x8, addend: 0x0, symName: __ZNSt3__1eqB8ue170006IcNS_11char_traitsIcEENS_9allocatorIcEEEEbRKNS_12basic_stringIT_T0_T1_EEPKS6_, symObjAddr: 0x624, symBinAddr: 0x1000036D8, symSize: 0x5C }
  - { offsetInCU: 0x9109, offset: 0x9109, size: 0x8, addend: 0x0, symName: __ZNSt3__1lsB8ue170006IcNS_11char_traitsIcEEEERNS_13basic_ostreamIT_T0_EES7_RKNS_8__iom_t6E, symObjAddr: 0x1050, symBinAddr: 0x100004104, symSize: 0x40 }
  - { offsetInCU: 0x9158, offset: 0x9158, size: 0x8, addend: 0x0, symName: __ZNSt3__18internalB8ue170006ERNS_8ios_baseE, symObjAddr: 0x10D0, symBinAddr: 0x100004184, symSize: 0x30 }
  - { offsetInCU: 0x9186, offset: 0x9186, size: 0x8, addend: 0x0, symName: __ZNSt3__14setwB8ue170006Ei, symObjAddr: 0x1100, symBinAddr: 0x1000041B4, symSize: 0x2C }
  - { offsetInCU: 0x91B4, offset: 0x91B4, size: 0x8, addend: 0x0, symName: __ZNSt3__1plB8ue170006IcNS_11char_traitsIcEENS_9allocatorIcEEEENS_12basic_stringIT_T0_T1_EEOS9_PKS6_, symObjAddr: 0x112C, symBinAddr: 0x1000041E0, symSize: 0x40 }
  - { offsetInCU: 0x920C, offset: 0x920C, size: 0x8, addend: 0x0, symName: __ZNSt3__1eqB8ue170006IcNS_11char_traitsIcEEEEbNS_17basic_string_viewIT_T0_EES6_, symObjAddr: 0x1198, symBinAddr: 0x10000424C, symSize: 0xB0 }
  - { offsetInCU: 0x925B, offset: 0x925B, size: 0x8, addend: 0x0, symName: __ZNSt3__13minB8ue170006ImEERKT_S3_S3_, symObjAddr: 0x142C, symBinAddr: 0x1000044E0, symSize: 0x2C }
  - { offsetInCU: 0x929E, offset: 0x929E, size: 0x8, addend: 0x0, symName: __ZNSt3__13minB8ue170006ImNS_6__lessIvvEEEERKT_S5_S5_T0_, symObjAddr: 0x14A4, symBinAddr: 0x100004558, symSize: 0x54 }
  - { offsetInCU: 0x933D, offset: 0x933D, size: 0x8, addend: 0x0, symName: __ZNSt3__112__to_addressB8ue170006IKcEEPT_S3_, symObjAddr: 0x15E4, symBinAddr: 0x100004698, symSize: 0x14 }
  - { offsetInCU: 0x93A5, offset: 0x93A5, size: 0x8, addend: 0x0, symName: __ZNSt3__128__char_traits_length_checkedB8ue170006INS_11char_traitsIcEEEEmPKNT_9char_typeE, symObjAddr: 0x17EC, symBinAddr: 0x1000048A0, symSize: 0x24 }
  - { offsetInCU: 0x93DC, offset: 0x93DC, size: 0x8, addend: 0x0, symName: __ZNSt3__118__constexpr_strlenB8ue170006EPKc, symObjAddr: 0x1844, symBinAddr: 0x1000048F8, symSize: 0x24 }
  - { offsetInCU: 0x9408, offset: 0x9408, size: 0x8, addend: 0x0, symName: __ZNSt3__122__make_exception_guardB8ue170006INS_6vectorINS1_I4CellNS_9allocatorIS2_EEEENS3_IS5_EEE16__destroy_vectorEEENS_28__exception_guard_exceptionsIT_EESA_, symObjAddr: 0x1AD8, symBinAddr: 0x100004B8C, symSize: 0x40 }
  - { offsetInCU: 0x943D, offset: 0x943D, size: 0x8, addend: 0x0, symName: __ZNSt3__119__allocate_at_leastB8ue170006INS_9allocatorINS_6vectorI4CellNS1_IS3_EEEEEEEENS_19__allocation_resultINS_16allocator_traitsIT_E7pointerEEERS9_m, symObjAddr: 0x1DC8, symBinAddr: 0x100004E7C, symSize: 0x40 }
  - { offsetInCU: 0x9856, offset: 0x9856, size: 0x8, addend: 0x0, symName: __ZNSt3__120__throw_length_errorB8ue170006EPKc, symObjAddr: 0x1F80, symBinAddr: 0x100005034, symSize: 0x64 }
  - { offsetInCU: 0x9880, offset: 0x9880, size: 0x8, addend: 0x0, symName: __ZNSt3__117__libcpp_allocateB8ue170006Emm, symObjAddr: 0x20F4, symBinAddr: 0x1000051A8, symSize: 0x60 }
  - { offsetInCU: 0x98DA, offset: 0x98DA, size: 0x8, addend: 0x0, symName: __ZNSt3__124__is_overaligned_for_newB8ue170006Em, symObjAddr: 0x2154, symBinAddr: 0x100005208, symSize: 0x20 }
  - { offsetInCU: 0x9908, offset: 0x9908, size: 0x8, addend: 0x0, symName: __ZNSt3__121__libcpp_operator_newB8ue170006IJmSt11align_val_tEEEPvDpT_, symObjAddr: 0x2174, symBinAddr: 0x100005228, symSize: 0x2C }
  - { offsetInCU: 0x9955, offset: 0x9955, size: 0x8, addend: 0x0, symName: __ZNSt3__121__libcpp_operator_newB8ue170006IJmEEEPvDpT_, symObjAddr: 0x21A0, symBinAddr: 0x100005254, symSize: 0x24 }
  - { offsetInCU: 0x998E, offset: 0x998E, size: 0x8, addend: 0x0, symName: __ZNSt3__112__to_addressB8ue170006INS_6vectorI4CellNS_9allocatorIS2_EEEEEEPT_S7_, symObjAddr: 0x22BC, symBinAddr: 0x100005370, symSize: 0x14 }
  - { offsetInCU: 0x99C3, offset: 0x99C3, size: 0x8, addend: 0x0, symName: __ZNSt3__130__uninitialized_allocator_copyB8ue170006INS_9allocatorINS_6vectorI4CellNS1_IS3_EEEEEEPS5_S7_S7_EET2_RT_T0_T1_S8_, symObjAddr: 0x236C, symBinAddr: 0x100005420, symSize: 0x80 }
  - { offsetInCU: 0x9A60, offset: 0x9A60, size: 0x8, addend: 0x0, symName: __ZNSt3__114__unwrap_rangeB8ue170006IPNS_6vectorI4CellNS_9allocatorIS2_EEEES6_EEDaT_T0_, symObjAddr: 0x2464, symBinAddr: 0x100005518, symSize: 0x3C }
  - { offsetInCU: 0x9AAC, offset: 0x9AAC, size: 0x8, addend: 0x0, symName: __ZNSt3__135__uninitialized_allocator_copy_implB8ue170006INS_9allocatorINS_6vectorI4CellNS1_IS3_EEEEEEPS5_S7_S7_EET2_RT_T0_T1_S8_, symObjAddr: 0x24A0, symBinAddr: 0x100005554, symSize: 0xF4 }
  - { offsetInCU: 0x9B4A, offset: 0x9B4A, size: 0x8, addend: 0x0, symName: __ZNSt3__113__unwrap_iterB8ue170006IPNS_6vectorI4CellNS_9allocatorIS2_EEEENS_18__unwrap_iter_implIS6_Lb1EEELi0EEEDTclsrT0_8__unwrapclsr3stdE7declvalIT_EEEESA_, symObjAddr: 0x2594, symBinAddr: 0x100005648, symSize: 0x24 }
  - { offsetInCU: 0x9B8E, offset: 0x9B8E, size: 0x8, addend: 0x0, symName: __ZNSt3__113__rewrap_iterB8ue170006IPNS_6vectorI4CellNS_9allocatorIS2_EEEES6_NS_18__unwrap_iter_implIS6_Lb1EEEEET_S9_T0_, symObjAddr: 0x25B8, symBinAddr: 0x10000566C, symSize: 0x3C }
  - { offsetInCU: 0x9CE5, offset: 0x9CE5, size: 0x8, addend: 0x0, symName: __ZNSt3__122__make_exception_guardB8ue170006INS_29_AllocatorDestroyRangeReverseINS_9allocatorINS_6vectorI4CellNS2_IS4_EEEEEEPS6_EEEENS_28__exception_guard_exceptionsIT_EESB_, symObjAddr: 0x26BC, symBinAddr: 0x100005770, symSize: 0x4C }
  - { offsetInCU: 0x9D40, offset: 0x9D40, size: 0x8, addend: 0x0, symName: __ZNSt3__112construct_atB8ue170006INS_6vectorI4CellNS_9allocatorIS2_EEEEJRS5_EPS5_EEPT_S9_DpOT0_, symObjAddr: 0x2860, symBinAddr: 0x100005914, symSize: 0x3C }
  - { offsetInCU: 0x9DB0, offset: 0x9DB0, size: 0x8, addend: 0x0, symName: __ZNSt3__122__make_exception_guardB8ue170006INS_6vectorI4CellNS_9allocatorIS2_EEE16__destroy_vectorEEENS_28__exception_guard_exceptionsIT_EES8_, symObjAddr: 0x2B40, symBinAddr: 0x100005BF4, symSize: 0x40 }
  - { offsetInCU: 0x9DE5, offset: 0x9DE5, size: 0x8, addend: 0x0, symName: __ZNSt3__119__allocate_at_leastB8ue170006INS_9allocatorI4CellEEEENS_19__allocation_resultINS_16allocator_traitsIT_E7pointerEEERS6_m, symObjAddr: 0x2E30, symBinAddr: 0x100005EE4, symSize: 0x40 }
  - { offsetInCU: 0x9E28, offset: 0x9E28, size: 0x8, addend: 0x0, symName: __ZNSt3__112__to_addressB8ue170006I4CellEEPT_S3_, symObjAddr: 0x3104, symBinAddr: 0x1000061B8, symSize: 0x14 }
  - { offsetInCU: 0x9E5D, offset: 0x9E5D, size: 0x8, addend: 0x0, symName: __ZNSt3__130__uninitialized_allocator_copyB8ue170006INS_9allocatorI4CellEEPS2_S4_S4_EET2_RT_T0_T1_S5_, symObjAddr: 0x31B4, symBinAddr: 0x100006268, symSize: 0x80 }
  - { offsetInCU: 0x9EFA, offset: 0x9EFA, size: 0x8, addend: 0x0, symName: __ZNSt3__114__unwrap_rangeB8ue170006IP4CellS2_EEDaT_T0_, symObjAddr: 0x32AC, symBinAddr: 0x100006360, symSize: 0x3C }
  - { offsetInCU: 0x9F46, offset: 0x9F46, size: 0x8, addend: 0x0, symName: __ZNSt3__135__uninitialized_allocator_copy_implB8ue170006INS_9allocatorI4CellEEPS2_S4_S4_EET2_RT_T0_T1_S5_, symObjAddr: 0x32E8, symBinAddr: 0x10000639C, symSize: 0xF4 }
  - { offsetInCU: 0x9FE4, offset: 0x9FE4, size: 0x8, addend: 0x0, symName: __ZNSt3__113__unwrap_iterB8ue170006IP4CellNS_18__unwrap_iter_implIS2_Lb1EEELi0EEEDTclsrT0_8__unwrapclsr3stdE7declvalIT_EEEES6_, symObjAddr: 0x33DC, symBinAddr: 0x100006490, symSize: 0x24 }
  - { offsetInCU: 0xA028, offset: 0xA028, size: 0x8, addend: 0x0, symName: __ZNSt3__113__rewrap_iterB8ue170006IP4CellS2_NS_18__unwrap_iter_implIS2_Lb1EEEEET_S5_T0_, symObjAddr: 0x3400, symBinAddr: 0x1000064B4, symSize: 0x3C }
  - { offsetInCU: 0xA17F, offset: 0xA17F, size: 0x8, addend: 0x0, symName: __ZNSt3__122__make_exception_guardB8ue170006INS_29_AllocatorDestroyRangeReverseINS_9allocatorI4CellEEPS3_EEEENS_28__exception_guard_exceptionsIT_EES8_, symObjAddr: 0x3504, symBinAddr: 0x1000065B8, symSize: 0x4C }
  - { offsetInCU: 0xA1DA, offset: 0xA1DA, size: 0x8, addend: 0x0, symName: __ZNSt3__112construct_atB8ue170006I4CellJRS1_EPS1_EEPT_S5_DpOT0_, symObjAddr: 0x36A8, symBinAddr: 0x10000675C, symSize: 0x3C }
  - { offsetInCU: 0xA24A, offset: 0xA24A, size: 0x8, addend: 0x0, symName: __ZNSt3__119__allocator_destroyB8ue170006INS_9allocatorI4CellEENS_16reverse_iteratorIPS2_EES6_EEvRT_T0_T1_, symObjAddr: 0x3804, symBinAddr: 0x1000068B8, symSize: 0x70 }
  - { offsetInCU: 0xA2AD, offset: 0xA2AD, size: 0x8, addend: 0x0, symName: __ZNSt3__1neB8ue170006IP4CellS2_EEbRKNS_16reverse_iteratorIT_EERKNS3_IT0_EE, symObjAddr: 0x38A8, symBinAddr: 0x10000695C, symSize: 0x48 }
  - { offsetInCU: 0xA2F9, offset: 0xA2F9, size: 0x8, addend: 0x0, symName: __ZNSt3__112__to_addressB8ue170006INS_16reverse_iteratorIP4CellEEvEEu7__decayIDTclsr19__to_address_helperIT_EE6__callclsr3stdE7declvalIRKS5_EEEEES7_, symObjAddr: 0x3918, symBinAddr: 0x1000069CC, symSize: 0x24 }
  - { offsetInCU: 0xA32F, offset: 0xA32F, size: 0x8, addend: 0x0, symName: __ZNSt3__110destroy_atB8ue170006I4CellLi0EEEvPT_, symObjAddr: 0x3974, symBinAddr: 0x100006A28, symSize: 0x24 }
  - { offsetInCU: 0xA366, offset: 0xA366, size: 0x8, addend: 0x0, symName: __ZNSt3__112__destroy_atB8ue170006I4CellLi0EEEvPT_, symObjAddr: 0x3998, symBinAddr: 0x100006A4C, symSize: 0x24 }
  - { offsetInCU: 0xA3C6, offset: 0xA3C6, size: 0x8, addend: 0x0, symName: __ZNSt3__14prevB8ue170006IP4CellEENS_9enable_ifIXsr29__has_input_iterator_categoryIT_EE5valueES4_E4typeES4_NS_15iterator_traitsIS4_E15difference_typeE, symObjAddr: 0x3A78, symBinAddr: 0x100006B2C, symSize: 0x3C }
  - { offsetInCU: 0xA409, offset: 0xA409, size: 0x8, addend: 0x0, symName: __ZNSt3__121__convert_to_integralB8ue170006El, symObjAddr: 0x3AEC, symBinAddr: 0x100006BA0, symSize: 0x14 }
  - { offsetInCU: 0xA435, offset: 0xA435, size: 0x8, addend: 0x0, symName: __ZNSt3__19__advanceB8ue170006IP4CellEEvRT_NS_15iterator_traitsIS3_E15difference_typeENS_26random_access_iterator_tagE, symObjAddr: 0x3B00, symBinAddr: 0x100006BB4, symSize: 0x30 }
  - { offsetInCU: 0xA4D1, offset: 0xA4D1, size: 0x8, addend: 0x0, symName: __ZNSt3__119__libcpp_deallocateB8ue170006EPvmm, symObjAddr: 0x3ED4, symBinAddr: 0x100006F88, symSize: 0x60 }
  - { offsetInCU: 0xA536, offset: 0xA536, size: 0x8, addend: 0x0, symName: __ZNSt3__127__do_deallocate_handle_sizeB8ue170006IJSt11align_val_tEEEvPvmDpT_, symObjAddr: 0x3F34, symBinAddr: 0x100006FE8, symSize: 0x30 }
  - { offsetInCU: 0xA589, offset: 0xA589, size: 0x8, addend: 0x0, symName: __ZNSt3__127__do_deallocate_handle_sizeB8ue170006IJEEEvPvmDpT_, symObjAddr: 0x3F64, symBinAddr: 0x100007018, symSize: 0x28 }
  - { offsetInCU: 0xA5C7, offset: 0xA5C7, size: 0x8, addend: 0x0, symName: __ZNSt3__124__libcpp_operator_deleteB8ue170006IJPvSt11align_val_tEEEvDpT_, symObjAddr: 0x3F8C, symBinAddr: 0x100007040, symSize: 0x2C }
  - { offsetInCU: 0xA610, offset: 0xA610, size: 0x8, addend: 0x0, symName: __ZNSt3__124__libcpp_operator_deleteB8ue170006IJPvEEEvDpT_, symObjAddr: 0x3FB8, symBinAddr: 0x10000706C, symSize: 0x24 }
  - { offsetInCU: 0xA645, offset: 0xA645, size: 0x8, addend: 0x0, symName: __ZNSt3__119__allocator_destroyB8ue170006INS_9allocatorINS_6vectorI4CellNS1_IS3_EEEEEENS_16reverse_iteratorIPS5_EES9_EEvRT_T0_T1_, symObjAddr: 0x4094, symBinAddr: 0x100007148, symSize: 0x70 }
  - { offsetInCU: 0xA6A8, offset: 0xA6A8, size: 0x8, addend: 0x0, symName: __ZNSt3__1neB8ue170006IPNS_6vectorI4CellNS_9allocatorIS2_EEEES6_EEbRKNS_16reverse_iteratorIT_EERKNS7_IT0_EE, symObjAddr: 0x4138, symBinAddr: 0x1000071EC, symSize: 0x48 }
  - { offsetInCU: 0xA6F4, offset: 0xA6F4, size: 0x8, addend: 0x0, symName: __ZNSt3__112__to_addressB8ue170006INS_16reverse_iteratorIPNS_6vectorI4CellNS_9allocatorIS3_EEEEEEvEEu7__decayIDTclsr19__to_address_helperIT_EE6__callclsr3stdE7declvalIRKS9_EEEEESB_, symObjAddr: 0x41A8, symBinAddr: 0x10000725C, symSize: 0x24 }
  - { offsetInCU: 0xA72A, offset: 0xA72A, size: 0x8, addend: 0x0, symName: __ZNSt3__110destroy_atB8ue170006INS_6vectorI4CellNS_9allocatorIS2_EEEELi0EEEvPT_, symObjAddr: 0x4204, symBinAddr: 0x1000072B8, symSize: 0x24 }
  - { offsetInCU: 0xA761, offset: 0xA761, size: 0x8, addend: 0x0, symName: __ZNSt3__112__destroy_atB8ue170006INS_6vectorI4CellNS_9allocatorIS2_EEEELi0EEEvPT_, symObjAddr: 0x4228, symBinAddr: 0x1000072DC, symSize: 0x24 }
  - { offsetInCU: 0xA7C1, offset: 0xA7C1, size: 0x8, addend: 0x0, symName: __ZNSt3__14prevB8ue170006IPNS_6vectorI4CellNS_9allocatorIS2_EEEEEENS_9enable_ifIXsr29__has_input_iterator_categoryIT_EE5valueES8_E4typeES8_NS_15iterator_traitsIS8_E15difference_typeE, symObjAddr: 0x431C, symBinAddr: 0x1000073D0, symSize: 0x3C }
  - { offsetInCU: 0xA804, offset: 0xA804, size: 0x8, addend: 0x0, symName: __ZNSt3__19__advanceB8ue170006IPNS_6vectorI4CellNS_9allocatorIS2_EEEEEEvRT_NS_15iterator_traitsIS7_E15difference_typeENS_26random_access_iterator_tagE, symObjAddr: 0x4390, symBinAddr: 0x100007444, symSize: 0x30 }
  - { offsetInCU: 0xA8A0, offset: 0xA8A0, size: 0x8, addend: 0x0, symName: __ZNSt3__116__pad_and_outputB8ue170006IcNS_11char_traitsIcEEEENS_19ostreambuf_iteratorIT_T0_EES6_PKS4_S8_S8_RNS_8ios_baseES4_, symObjAddr: 0x4B80, symBinAddr: 0x100007C34, symSize: 0x240 }
  - { offsetInCU: 0xA96F, offset: 0xA96F, size: 0x8, addend: 0x0, symName: __ZNSt3__112__to_addressB8ue170006IcEEPT_S2_, symObjAddr: 0x50E8, symBinAddr: 0x10000819C, symSize: 0x14 }
  - { offsetInCU: 0xA9A4, offset: 0xA9A4, size: 0x8, addend: 0x0, symName: __ZNSt3__19use_facetB8ue170006INS_5ctypeIcEEEERKT_RKNS_6localeE, symObjAddr: 0x52F8, symBinAddr: 0x1000083AC, symSize: 0x2C }
  - { offsetInCU: 0xB3DE, offset: 0xB3DE, size: 0x8, addend: 0x0, symName: __ZSt28__throw_bad_array_new_lengthB8ue170006v, symObjAddr: 0x20C0, symBinAddr: 0x100005174, symSize: 0x34 }
  - { offsetInCU: 0xE178, offset: 0xE178, size: 0x8, addend: 0x0, symName: __ZN5Robot7measureEv, symObjAddr: 0x0, symBinAddr: 0x1000030B4, symSize: 0x328 }
  - { offsetInCU: 0xE1BC, offset: 0xE1BC, size: 0x8, addend: 0x0, symName: __ZNKSt3__110shared_ptrI3MapEptB8ue170006Ev, symObjAddr: 0x338, symBinAddr: 0x1000033EC, symSize: 0x18 }
  - { offsetInCU: 0xE1E2, offset: 0xE1E2, size: 0x8, addend: 0x0, symName: __ZNSt3__16vectorINS0_I4CellNS_9allocatorIS1_EEEENS2_IS4_EEEixB8ue170006Em, symObjAddr: 0x350, symBinAddr: 0x100003404, symSize: 0x2C }
  - { offsetInCU: 0xE219, offset: 0xE219, size: 0x8, addend: 0x0, symName: __ZNSt3__16vectorI4CellNS_9allocatorIS1_EEEixB8ue170006Em, symObjAddr: 0x37C, symBinAddr: 0x100003430, symSize: 0x2C }
  - { offsetInCU: 0xE250, offset: 0xE250, size: 0x8, addend: 0x0, symName: __ZN5Robot4leftEv, symObjAddr: 0x3A8, symBinAddr: 0x10000345C, symSize: 0x164 }
  - { offsetInCU: 0xE278, offset: 0xE278, size: 0x8, addend: 0x0, symName: __ZNSt3__113basic_ostreamIcNS_11char_traitsIcEEElsB8ue170006EPFRS3_S4_E, symObjAddr: 0x554, symBinAddr: 0x100003608, symSize: 0x2C }
  - { offsetInCU: 0xE2AC, offset: 0xE2AC, size: 0x8, addend: 0x0, symName: __ZN5Robot5printEv, symObjAddr: 0x680, symBinAddr: 0x100003734, symSize: 0x47C }
  - { offsetInCU: 0xE36A, offset: 0xE36A, size: 0x8, addend: 0x0, symName: __ZN5Robot2upEv, symObjAddr: 0xB0C, symBinAddr: 0x100003BC0, symSize: 0x158 }
  - { offsetInCU: 0xE392, offset: 0xE392, size: 0x8, addend: 0x0, symName: __ZN5Robot5rightEv, symObjAddr: 0xC64, symBinAddr: 0x100003D18, symSize: 0x158 }
  - { offsetInCU: 0xE3BA, offset: 0xE3BA, size: 0x8, addend: 0x0, symName: __ZNKSt3__16vectorINS0_I4CellNS_9allocatorIS1_EEEENS2_IS4_EEE4sizeB8ue170006Ev, symObjAddr: 0xDBC, symBinAddr: 0x100003E70, symSize: 0x28 }
  - { offsetInCU: 0xE3E0, offset: 0xE3E0, size: 0x8, addend: 0x0, symName: __ZN5Robot4downEv, symObjAddr: 0xDE4, symBinAddr: 0x100003E98, symSize: 0x170 }
  - { offsetInCU: 0xE408, offset: 0xE408, size: 0x8, addend: 0x0, symName: __ZN5Robot11left_rotateEv, symObjAddr: 0xF54, symBinAddr: 0x100004008, symSize: 0x50 }
  - { offsetInCU: 0xE430, offset: 0xE430, size: 0x8, addend: 0x0, symName: __ZN5Robot12right_rotateEv, symObjAddr: 0xFA4, symBinAddr: 0x100004058, symSize: 0x50 }
  - { offsetInCU: 0xE458, offset: 0xE458, size: 0x8, addend: 0x0, symName: __ZNSt3__16vectorINS0_I4CellNS_9allocatorIS1_EEEENS2_IS4_EEEC1ERKS6_, symObjAddr: 0xFF4, symBinAddr: 0x1000040A8, symSize: 0x34 }
  - { offsetInCU: 0xE493, offset: 0xE493, size: 0x8, addend: 0x0, symName: __ZNKSt3__16vectorI4CellNS_9allocatorIS1_EEE4sizeB8ue170006Ev, symObjAddr: 0x1028, symBinAddr: 0x1000040DC, symSize: 0x28 }
  - { offsetInCU: 0xE4B9, offset: 0xE4B9, size: 0x8, addend: 0x0, symName: __ZNSt3__113basic_ostreamIcNS_11char_traitsIcEEElsB8ue170006EPFRNS_8ios_baseES5_E, symObjAddr: 0x1090, symBinAddr: 0x100004144, symSize: 0x40 }
  - { offsetInCU: 0xE4ED, offset: 0xE4ED, size: 0x8, addend: 0x0, symName: __ZNSt3__16vectorINS0_I4CellNS_9allocatorIS1_EEEENS2_IS4_EEED1B8ue170006Ev, symObjAddr: 0x116C, symBinAddr: 0x100004220, symSize: 0x2C }
  - { offsetInCU: 0xE517, offset: 0xE517, size: 0x8, addend: 0x0, symName: __ZNKSt3__112basic_stringIcNS_11char_traitsIcEENS_9allocatorIcEEEcvNS_17basic_string_viewIcS2_EEB8ue170006Ev, symObjAddr: 0x1248, symBinAddr: 0x1000042FC, symSize: 0x50 }
  - { offsetInCU: 0xE53D, offset: 0xE53D, size: 0x8, addend: 0x0, symName: __ZNSt3__117basic_string_viewIcNS_11char_traitsIcEEEC1B8ue170006EPKc, symObjAddr: 0x1298, symBinAddr: 0x10000434C, symSize: 0x34 }
  - { offsetInCU: 0xE576, offset: 0xE576, size: 0x8, addend: 0x0, symName: __ZNKSt3__117basic_string_viewIcNS_11char_traitsIcEEE4sizeB8ue170006Ev, symObjAddr: 0x12D8, symBinAddr: 0x10000438C, symSize: 0x18 }
  - { offsetInCU: 0xE59C, offset: 0xE59C, size: 0x8, addend: 0x0, symName: __ZNKSt3__117basic_string_viewIcNS_11char_traitsIcEEE7compareES3_, symObjAddr: 0x12F0, symBinAddr: 0x1000043A4, symSize: 0x13C }
  - { offsetInCU: 0xE5EF, offset: 0xE5EF, size: 0x8, addend: 0x0, symName: __ZNSt3__111char_traitsIcE7compareB8ue170006EPKcS3_m, symObjAddr: 0x1458, symBinAddr: 0x10000450C, symSize: 0x34 }
  - { offsetInCU: 0xE62E, offset: 0xE62E, size: 0x8, addend: 0x0, symName: __ZNKSt3__117basic_string_viewIcNS_11char_traitsIcEEE4dataB8ue170006Ev, symObjAddr: 0x148C, symBinAddr: 0x100004540, symSize: 0x18 }
  - { offsetInCU: 0xE668, offset: 0xE668, size: 0x8, addend: 0x0, symName: __ZNKSt3__16__lessIvvEclB8ue170006ImmEEbRKT_RKT0_, symObjAddr: 0x14F8, symBinAddr: 0x1000045AC, symSize: 0x34 }
  - { offsetInCU: 0xE6BC, offset: 0xE6BC, size: 0x8, addend: 0x0, symName: __ZNKSt3__112basic_stringIcNS_11char_traitsIcEENS_9allocatorIcEEE4dataB8ue170006Ev, symObjAddr: 0x152C, symBinAddr: 0x1000045E0, symSize: 0x28 }
  - { offsetInCU: 0xE6E2, offset: 0xE6E2, size: 0x8, addend: 0x0, symName: __ZNKSt3__112basic_stringIcNS_11char_traitsIcEENS_9allocatorIcEEE4sizeB8ue170006Ev, symObjAddr: 0x1554, symBinAddr: 0x100004608, symSize: 0x54 }
  - { offsetInCU: 0xE708, offset: 0xE708, size: 0x8, addend: 0x0, symName: __ZNSt3__117basic_string_viewIcNS_11char_traitsIcEEEC1B8ue170006EPKcm, symObjAddr: 0x15A8, symBinAddr: 0x10000465C, symSize: 0x3C }
  - { offsetInCU: 0xE750, offset: 0xE750, size: 0x8, addend: 0x0, symName: __ZNKSt3__112basic_stringIcNS_11char_traitsIcEENS_9allocatorIcEEE13__get_pointerB8ue170006Ev, symObjAddr: 0x15F8, symBinAddr: 0x1000046AC, symSize: 0x54 }
  - { offsetInCU: 0xE776, offset: 0xE776, size: 0x8, addend: 0x0, symName: __ZNKSt3__112basic_stringIcNS_11char_traitsIcEENS_9allocatorIcEEE9__is_longB8ue170006Ev, symObjAddr: 0x164C, symBinAddr: 0x100004700, symSize: 0x38 }
  - { offsetInCU: 0xE79C, offset: 0xE79C, size: 0x8, addend: 0x0, symName: __ZNKSt3__112basic_stringIcNS_11char_traitsIcEENS_9allocatorIcEEE18__get_long_pointerB8ue170006Ev, symObjAddr: 0x1684, symBinAddr: 0x100004738, symSize: 0x28 }
  - { offsetInCU: 0xE7C2, offset: 0xE7C2, size: 0x8, addend: 0x0, symName: __ZNKSt3__112basic_stringIcNS_11char_traitsIcEENS_9allocatorIcEEE19__get_short_pointerB8ue170006Ev, symObjAddr: 0x16AC, symBinAddr: 0x100004760, symSize: 0x28 }
  - { offsetInCU: 0xE7E8, offset: 0xE7E8, size: 0x8, addend: 0x0, symName: __ZNKSt3__117__compressed_pairINS_12basic_stringIcNS_11char_traitsIcEENS_9allocatorIcEEE5__repES5_E5firstB8ue170006Ev, symObjAddr: 0x16D4, symBinAddr: 0x100004788, symSize: 0x24 }
  - { offsetInCU: 0xE80E, offset: 0xE80E, size: 0x8, addend: 0x0, symName: __ZNKSt3__122__compressed_pair_elemINS_12basic_stringIcNS_11char_traitsIcEENS_9allocatorIcEEE5__repELi0ELb0EE5__getB8ue170006Ev, symObjAddr: 0x16F8, symBinAddr: 0x1000047AC, symSize: 0x14 }
  - { offsetInCU: 0xE834, offset: 0xE834, size: 0x8, addend: 0x0, symName: __ZNSt3__114pointer_traitsIPKcE10pointer_toB8ue170006ERS1_, symObjAddr: 0x170C, symBinAddr: 0x1000047C0, symSize: 0x14 }
  - { offsetInCU: 0xE857, offset: 0xE857, size: 0x8, addend: 0x0, symName: __ZNKSt3__112basic_stringIcNS_11char_traitsIcEENS_9allocatorIcEEE15__get_long_sizeB8ue170006Ev, symObjAddr: 0x1720, symBinAddr: 0x1000047D4, symSize: 0x28 }
  - { offsetInCU: 0xE87D, offset: 0xE87D, size: 0x8, addend: 0x0, symName: __ZNKSt3__112basic_stringIcNS_11char_traitsIcEENS_9allocatorIcEEE16__get_short_sizeB8ue170006Ev, symObjAddr: 0x1748, symBinAddr: 0x1000047FC, symSize: 0x34 }
  - { offsetInCU: 0xE8A3, offset: 0xE8A3, size: 0x8, addend: 0x0, symName: __ZNSt3__117basic_string_viewIcNS_11char_traitsIcEEEC2B8ue170006EPKcm, symObjAddr: 0x177C, symBinAddr: 0x100004830, symSize: 0x2C }
  - { offsetInCU: 0xE8EB, offset: 0xE8EB, size: 0x8, addend: 0x0, symName: __ZNSt3__117basic_string_viewIcNS_11char_traitsIcEEEC2B8ue170006EPKc, symObjAddr: 0x17A8, symBinAddr: 0x10000485C, symSize: 0x44 }
  - { offsetInCU: 0xE924, offset: 0xE924, size: 0x8, addend: 0x0, symName: __ZNSt3__111char_traitsIcE6lengthB8ue170006EPKc, symObjAddr: 0x1810, symBinAddr: 0x1000048C4, symSize: 0x34 }
  - { offsetInCU: 0xE947, offset: 0xE947, size: 0x8, addend: 0x0, symName: __ZNSt3__16vectorINS0_I4CellNS_9allocatorIS1_EEEENS2_IS4_EEEC2ERKS6_, symObjAddr: 0x1868, symBinAddr: 0x10000491C, symSize: 0x94 }
  - { offsetInCU: 0xE98C, offset: 0xE98C, size: 0x8, addend: 0x0, symName: __ZNSt3__116allocator_traitsINS_9allocatorINS_6vectorI4CellNS1_IS3_EEEEEEE37select_on_container_copy_constructionB8ue170006IS6_vvEES6_RKS6_, symObjAddr: 0x18FC, symBinAddr: 0x1000049B0, symSize: 0x10 }
  - { offsetInCU: 0xE9BB, offset: 0xE9BB, size: 0x8, addend: 0x0, symName: __ZNKSt3__16vectorINS0_I4CellNS_9allocatorIS1_EEEENS2_IS4_EEE7__allocB8ue170006Ev, symObjAddr: 0x190C, symBinAddr: 0x1000049C0, symSize: 0x28 }
  - { offsetInCU: 0xE9EB, offset: 0xE9EB, size: 0x8, addend: 0x0, symName: __ZNSt3__117__compressed_pairIPNS_6vectorI4CellNS_9allocatorIS2_EEEENS3_IS5_EEEC1B8ue170006IDnS7_EEOT_OT0_, symObjAddr: 0x1934, symBinAddr: 0x1000049E8, symSize: 0x3C }
  - { offsetInCU: 0xEA43, offset: 0xEA43, size: 0x8, addend: 0x0, symName: __ZNSt3__16vectorINS0_I4CellNS_9allocatorIS1_EEEENS2_IS4_EEE16__init_with_sizeB8ue170006IPS4_S8_EEvT_T0_m, symObjAddr: 0x1970, symBinAddr: 0x100004A24, symSize: 0xB8 }
  - { offsetInCU: 0xEAB7, offset: 0xEAB7, size: 0x8, addend: 0x0, symName: __ZNKSt3__117__compressed_pairIPNS_6vectorI4CellNS_9allocatorIS2_EEEENS3_IS5_EEE6secondB8ue170006Ev, symObjAddr: 0x1A28, symBinAddr: 0x100004ADC, symSize: 0x24 }
  - { offsetInCU: 0xEADD, offset: 0xEADD, size: 0x8, addend: 0x0, symName: __ZNKSt3__122__compressed_pair_elemINS_9allocatorINS_6vectorI4CellNS1_IS3_EEEEEELi1ELb1EE5__getB8ue170006Ev, symObjAddr: 0x1A4C, symBinAddr: 0x100004B00, symSize: 0x14 }
  - { offsetInCU: 0xEB03, offset: 0xEB03, size: 0x8, addend: 0x0, symName: __ZNSt3__117__compressed_pairIPNS_6vectorI4CellNS_9allocatorIS2_EEEENS3_IS5_EEEC2B8ue170006IDnS7_EEOT_OT0_, symObjAddr: 0x1A60, symBinAddr: 0x100004B14, symSize: 0x44 }
  - { offsetInCU: 0xEB5B, offset: 0xEB5B, size: 0x8, addend: 0x0, symName: __ZNSt3__122__compressed_pair_elemIPNS_6vectorI4CellNS_9allocatorIS2_EEEELi0ELb0EEC2B8ue170006IDnvEEOT_, symObjAddr: 0x1AA4, symBinAddr: 0x100004B58, symSize: 0x1C }
  - { offsetInCU: 0xEB9D, offset: 0xEB9D, size: 0x8, addend: 0x0, symName: __ZNSt3__122__compressed_pair_elemINS_9allocatorINS_6vectorI4CellNS1_IS3_EEEEEELi1ELb1EEC2B8ue170006IS6_vEEOT_, symObjAddr: 0x1AC0, symBinAddr: 0x100004B74, symSize: 0x18 }
  - { offsetInCU: 0xEBDF, offset: 0xEBDF, size: 0x8, addend: 0x0, symName: __ZNSt3__16vectorINS0_I4CellNS_9allocatorIS1_EEEENS2_IS4_EEE16__destroy_vectorC1B8ue170006ERS6_, symObjAddr: 0x1B18, symBinAddr: 0x100004BCC, symSize: 0x34 }
  - { offsetInCU: 0xEC18, offset: 0xEC18, size: 0x8, addend: 0x0, symName: __ZNSt3__16vectorINS0_I4CellNS_9allocatorIS1_EEEENS2_IS4_EEE11__vallocateB8ue170006Em, symObjAddr: 0x1B4C, symBinAddr: 0x100004C00, symSize: 0xB4 }
  - { offsetInCU: 0xEC5C, offset: 0xEC5C, size: 0x8, addend: 0x0, symName: __ZNSt3__16vectorINS0_I4CellNS_9allocatorIS1_EEEENS2_IS4_EEE18__construct_at_endIPS4_S8_EEvT_T0_m, symObjAddr: 0x1C00, symBinAddr: 0x100004CB4, symSize: 0x8C }
  - { offsetInCU: 0xECD2, offset: 0xECD2, size: 0x8, addend: 0x0, symName: __ZNSt3__128__exception_guard_exceptionsINS_6vectorINS1_I4CellNS_9allocatorIS2_EEEENS3_IS5_EEE16__destroy_vectorEE10__completeB8ue170006Ev, symObjAddr: 0x1C8C, symBinAddr: 0x100004D40, symSize: 0x1C }
  - { offsetInCU: 0xECF8, offset: 0xECF8, size: 0x8, addend: 0x0, symName: __ZNSt3__128__exception_guard_exceptionsINS_6vectorINS1_I4CellNS_9allocatorIS2_EEEENS3_IS5_EEE16__destroy_vectorEED1B8ue170006Ev, symObjAddr: 0x1CA8, symBinAddr: 0x100004D5C, symSize: 0x2C }
  - { offsetInCU: 0xED22, offset: 0xED22, size: 0x8, addend: 0x0, symName: __ZNSt3__128__exception_guard_exceptionsINS_6vectorINS1_I4CellNS_9allocatorIS2_EEEENS3_IS5_EEE16__destroy_vectorEEC1B8ue170006ES8_, symObjAddr: 0x1CD4, symBinAddr: 0x100004D88, symSize: 0x34 }
  - { offsetInCU: 0xED5A, offset: 0xED5A, size: 0x8, addend: 0x0, symName: __ZNSt3__128__exception_guard_exceptionsINS_6vectorINS1_I4CellNS_9allocatorIS2_EEEENS3_IS5_EEE16__destroy_vectorEEC2B8ue170006ES8_, symObjAddr: 0x1D08, symBinAddr: 0x100004DBC, symSize: 0x24 }
  - { offsetInCU: 0xED92, offset: 0xED92, size: 0x8, addend: 0x0, symName: __ZNSt3__16vectorINS0_I4CellNS_9allocatorIS1_EEEENS2_IS4_EEE16__destroy_vectorC2B8ue170006ERS6_, symObjAddr: 0x1D2C, symBinAddr: 0x100004DE0, symSize: 0x20 }
  - { offsetInCU: 0xEDCB, offset: 0xEDCB, size: 0x8, addend: 0x0, symName: __ZNKSt3__16vectorINS0_I4CellNS_9allocatorIS1_EEEENS2_IS4_EEE8max_sizeEv, symObjAddr: 0x1D4C, symBinAddr: 0x100004E00, symSize: 0x60 }
  - { offsetInCU: 0xEDF3, offset: 0xEDF3, size: 0x8, addend: 0x0, symName: __ZNKSt3__16vectorINS0_I4CellNS_9allocatorIS1_EEEENS2_IS4_EEE20__throw_length_errorB8ue170006Ev, symObjAddr: 0x1DAC, symBinAddr: 0x100004E60, symSize: 0x1C }
  - { offsetInCU: 0xEE19, offset: 0xEE19, size: 0x8, addend: 0x0, symName: __ZNSt3__16vectorINS0_I4CellNS_9allocatorIS1_EEEENS2_IS4_EEE7__allocB8ue170006Ev, symObjAddr: 0x1E08, symBinAddr: 0x100004EBC, symSize: 0x28 }
  - { offsetInCU: 0xEE3F, offset: 0xEE3F, size: 0x8, addend: 0x0, symName: __ZNSt3__16vectorINS0_I4CellNS_9allocatorIS1_EEEENS2_IS4_EEE9__end_capB8ue170006Ev, symObjAddr: 0x1E30, symBinAddr: 0x100004EE4, symSize: 0x28 }
  - { offsetInCU: 0xEE65, offset: 0xEE65, size: 0x8, addend: 0x0, symName: __ZNKSt3__16vectorINS0_I4CellNS_9allocatorIS1_EEEENS2_IS4_EEE14__annotate_newB8ue170006Em, symObjAddr: 0x1E58, symBinAddr: 0x100004F0C, symSize: 0xC8 }
  - { offsetInCU: 0xEE9A, offset: 0xEE9A, size: 0x8, addend: 0x0, symName: __ZNSt3__116allocator_traitsINS_9allocatorINS_6vectorI4CellNS1_IS3_EEEEEEE8max_sizeB8ue170006IS6_vvEEmRKS6_, symObjAddr: 0x1F20, symBinAddr: 0x100004FD4, symSize: 0x28 }
  - { offsetInCU: 0xEEC6, offset: 0xEEC6, size: 0x8, addend: 0x0, symName: __ZNSt3__114numeric_limitsIlE3maxB8ue170006Ev, symObjAddr: 0x1F48, symBinAddr: 0x100004FFC, symSize: 0x14 }
  - { offsetInCU: 0xEEDA, offset: 0xEEDA, size: 0x8, addend: 0x0, symName: __ZNSt3__114numeric_limitsImE3maxB8ue170006Ev, symObjAddr: 0x1F5C, symBinAddr: 0x100005010, symSize: 0x14 }
  - { offsetInCU: 0xEEEE, offset: 0xEEEE, size: 0x8, addend: 0x0, symName: __ZNSt3__123__libcpp_numeric_limitsImLb1EE3maxB8ue170006Ev, symObjAddr: 0x1F70, symBinAddr: 0x100005024, symSize: 0x8 }
  - { offsetInCU: 0xEF02, offset: 0xEF02, size: 0x8, addend: 0x0, symName: __ZNSt3__123__libcpp_numeric_limitsIlLb1EE3maxB8ue170006Ev, symObjAddr: 0x1F78, symBinAddr: 0x10000502C, symSize: 0x8 }
  - { offsetInCU: 0xEF16, offset: 0xEF16, size: 0x8, addend: 0x0, symName: __ZNSt12length_errorC1B8ue170006EPKc, symObjAddr: 0x1FE4, symBinAddr: 0x100005098, symSize: 0x34 }
  - { offsetInCU: 0xEF4E, offset: 0xEF4E, size: 0x8, addend: 0x0, symName: __ZNSt12length_errorC2B8ue170006EPKc, symObjAddr: 0x2018, symBinAddr: 0x1000050CC, symSize: 0x4C }
  - { offsetInCU: 0xEF86, offset: 0xEF86, size: 0x8, addend: 0x0, symName: __ZNSt3__19allocatorINS_6vectorI4CellNS0_IS2_EEEEE8allocateB8ue170006Em, symObjAddr: 0x2064, symBinAddr: 0x100005118, symSize: 0x5C }
  - { offsetInCU: 0xEFBA, offset: 0xEFBA, size: 0x8, addend: 0x0, symName: __ZNSt3__117__compressed_pairIPNS_6vectorI4CellNS_9allocatorIS2_EEEENS3_IS5_EEE6secondB8ue170006Ev, symObjAddr: 0x21C4, symBinAddr: 0x100005278, symSize: 0x24 }
  - { offsetInCU: 0xEFE0, offset: 0xEFE0, size: 0x8, addend: 0x0, symName: __ZNSt3__122__compressed_pair_elemINS_9allocatorINS_6vectorI4CellNS1_IS3_EEEEEELi1ELb1EE5__getB8ue170006Ev, symObjAddr: 0x21E8, symBinAddr: 0x10000529C, symSize: 0x14 }
  - { offsetInCU: 0xF006, offset: 0xF006, size: 0x8, addend: 0x0, symName: __ZNSt3__117__compressed_pairIPNS_6vectorI4CellNS_9allocatorIS2_EEEENS3_IS5_EEE5firstB8ue170006Ev, symObjAddr: 0x21FC, symBinAddr: 0x1000052B0, symSize: 0x24 }
  - { offsetInCU: 0xF02C, offset: 0xF02C, size: 0x8, addend: 0x0, symName: __ZNSt3__122__compressed_pair_elemIPNS_6vectorI4CellNS_9allocatorIS2_EEEELi0ELb0EE5__getB8ue170006Ev, symObjAddr: 0x2220, symBinAddr: 0x1000052D4, symSize: 0x14 }
  - { offsetInCU: 0xF052, offset: 0xF052, size: 0x8, addend: 0x0, symName: __ZNKSt3__16vectorINS0_I4CellNS_9allocatorIS1_EEEENS2_IS4_EEE31__annotate_contiguous_containerB8ue170006EPKvS8_S8_S8_, symObjAddr: 0x2234, symBinAddr: 0x1000052E8, symSize: 0x20 }
  - { offsetInCU: 0xF0A8, offset: 0xF0A8, size: 0x8, addend: 0x0, symName: __ZNKSt3__16vectorINS0_I4CellNS_9allocatorIS1_EEEENS2_IS4_EEE4dataB8ue170006Ev, symObjAddr: 0x2254, symBinAddr: 0x100005308, symSize: 0x28 }
  - { offsetInCU: 0xF0CE, offset: 0xF0CE, size: 0x8, addend: 0x0, symName: __ZNKSt3__16vectorINS0_I4CellNS_9allocatorIS1_EEEENS2_IS4_EEE8capacityB8ue170006Ev, symObjAddr: 0x227C, symBinAddr: 0x100005330, symSize: 0x40 }
  - { offsetInCU: 0xF0F4, offset: 0xF0F4, size: 0x8, addend: 0x0, symName: __ZNKSt3__16vectorINS0_I4CellNS_9allocatorIS1_EEEENS2_IS4_EEE9__end_capB8ue170006Ev, symObjAddr: 0x22D0, symBinAddr: 0x100005384, symSize: 0x28 }
  - { offsetInCU: 0xF11A, offset: 0xF11A, size: 0x8, addend: 0x0, symName: __ZNKSt3__117__compressed_pairIPNS_6vectorI4CellNS_9allocatorIS2_EEEENS3_IS5_EEE5firstB8ue170006Ev, symObjAddr: 0x22F8, symBinAddr: 0x1000053AC, symSize: 0x24 }
  - { offsetInCU: 0xF140, offset: 0xF140, size: 0x8, addend: 0x0, symName: __ZNKSt3__122__compressed_pair_elemIPNS_6vectorI4CellNS_9allocatorIS2_EEEELi0ELb0EE5__getB8ue170006Ev, symObjAddr: 0x231C, symBinAddr: 0x1000053D0, symSize: 0x14 }
  - { offsetInCU: 0xF17F, offset: 0xF17F, size: 0x8, addend: 0x0, symName: __ZNSt3__16vectorINS0_I4CellNS_9allocatorIS1_EEEENS2_IS4_EEE21_ConstructTransactionC1B8ue170006ERS6_m, symObjAddr: 0x2330, symBinAddr: 0x1000053E4, symSize: 0x3C }
  - { offsetInCU: 0xF1C7, offset: 0xF1C7, size: 0x8, addend: 0x0, symName: __ZNSt3__16vectorINS0_I4CellNS_9allocatorIS1_EEEENS2_IS4_EEE21_ConstructTransactionD1B8ue170006Ev, symObjAddr: 0x23EC, symBinAddr: 0x1000054A0, symSize: 0x2C }
  - { offsetInCU: 0xF1F1, offset: 0xF1F1, size: 0x8, addend: 0x0, symName: __ZNSt3__16vectorINS0_I4CellNS_9allocatorIS1_EEEENS2_IS4_EEE21_ConstructTransactionC2B8ue170006ERS6_m, symObjAddr: 0x2418, symBinAddr: 0x1000054CC, symSize: 0x4C }
  - { offsetInCU: 0xF252, offset: 0xF252, size: 0x8, addend: 0x0, symName: __ZNSt3__119__unwrap_range_implIPNS_6vectorI4CellNS_9allocatorIS2_EEEES6_E8__unwrapB8ue170006ES6_S6_, symObjAddr: 0x25F4, symBinAddr: 0x1000056A8, symSize: 0x58 }
  - { offsetInCU: 0xF288, offset: 0xF288, size: 0x8, addend: 0x0, symName: __ZNSt3__14pairIPNS_6vectorI4CellNS_9allocatorIS2_EEEES6_EC1B8ue170006IS6_S6_LPv0EEEOT_OT0_, symObjAddr: 0x264C, symBinAddr: 0x100005700, symSize: 0x3C }
  - { offsetInCU: 0xF2E6, offset: 0xF2E6, size: 0x8, addend: 0x0, symName: __ZNSt3__14pairIPNS_6vectorI4CellNS_9allocatorIS2_EEEES6_EC2B8ue170006IS6_S6_LPv0EEEOT_OT0_, symObjAddr: 0x2688, symBinAddr: 0x10000573C, symSize: 0x34 }
  - { offsetInCU: 0xF344, offset: 0xF344, size: 0x8, addend: 0x0, symName: __ZNSt3__129_AllocatorDestroyRangeReverseINS_9allocatorINS_6vectorI4CellNS1_IS3_EEEEEEPS5_EC1B8ue170006ERS6_RS7_SA_, symObjAddr: 0x2708, symBinAddr: 0x1000057BC, symSize: 0x44 }
  - { offsetInCU: 0xF39B, offset: 0xF39B, size: 0x8, addend: 0x0, symName: __ZNSt3__116allocator_traitsINS_9allocatorINS_6vectorI4CellNS1_IS3_EEEEEEE9constructB8ue170006IS5_JRS5_EvvEEvRS6_PT_DpOT0_, symObjAddr: 0x274C, symBinAddr: 0x100005800, symSize: 0x30 }
  - { offsetInCU: 0xF3F0, offset: 0xF3F0, size: 0x8, addend: 0x0, symName: __ZNSt3__128__exception_guard_exceptionsINS_29_AllocatorDestroyRangeReverseINS_9allocatorINS_6vectorI4CellNS2_IS4_EEEEEEPS6_EEE10__completeB8ue170006Ev, symObjAddr: 0x277C, symBinAddr: 0x100005830, symSize: 0x1C }
  - { offsetInCU: 0xF416, offset: 0xF416, size: 0x8, addend: 0x0, symName: __ZNSt3__128__exception_guard_exceptionsINS_29_AllocatorDestroyRangeReverseINS_9allocatorINS_6vectorI4CellNS2_IS4_EEEEEEPS6_EEED1B8ue170006Ev, symObjAddr: 0x2798, symBinAddr: 0x10000584C, symSize: 0x2C }
  - { offsetInCU: 0xF440, offset: 0xF440, size: 0x8, addend: 0x0, symName: __ZNSt3__128__exception_guard_exceptionsINS_29_AllocatorDestroyRangeReverseINS_9allocatorINS_6vectorI4CellNS2_IS4_EEEEEEPS6_EEEC1B8ue170006ES9_, symObjAddr: 0x27C4, symBinAddr: 0x100005878, symSize: 0x34 }
  - { offsetInCU: 0xF479, offset: 0xF479, size: 0x8, addend: 0x0, symName: __ZNSt3__128__exception_guard_exceptionsINS_29_AllocatorDestroyRangeReverseINS_9allocatorINS_6vectorI4CellNS2_IS4_EEEEEEPS6_EEEC2B8ue170006ES9_, symObjAddr: 0x27F8, symBinAddr: 0x1000058AC, symSize: 0x30 }
  - { offsetInCU: 0xF4B2, offset: 0xF4B2, size: 0x8, addend: 0x0, symName: __ZNSt3__129_AllocatorDestroyRangeReverseINS_9allocatorINS_6vectorI4CellNS1_IS3_EEEEEEPS5_EC2B8ue170006ERS6_RS7_SA_, symObjAddr: 0x2828, symBinAddr: 0x1000058DC, symSize: 0x38 }
  - { offsetInCU: 0xF509, offset: 0xF509, size: 0x8, addend: 0x0, symName: __ZNSt3__16vectorI4CellNS_9allocatorIS1_EEEC1ERKS4_, symObjAddr: 0x289C, symBinAddr: 0x100005950, symSize: 0x34 }
  - { offsetInCU: 0xF544, offset: 0xF544, size: 0x8, addend: 0x0, symName: __ZNSt3__16vectorI4CellNS_9allocatorIS1_EEEC2ERKS4_, symObjAddr: 0x28D0, symBinAddr: 0x100005984, symSize: 0x94 }
  - { offsetInCU: 0xF589, offset: 0xF589, size: 0x8, addend: 0x0, symName: __ZNSt3__116allocator_traitsINS_9allocatorI4CellEEE37select_on_container_copy_constructionB8ue170006IS3_vvEES3_RKS3_, symObjAddr: 0x2964, symBinAddr: 0x100005A18, symSize: 0x10 }
  - { offsetInCU: 0xF5B8, offset: 0xF5B8, size: 0x8, addend: 0x0, symName: __ZNKSt3__16vectorI4CellNS_9allocatorIS1_EEE7__allocB8ue170006Ev, symObjAddr: 0x2974, symBinAddr: 0x100005A28, symSize: 0x28 }
  - { offsetInCU: 0xF5E3, offset: 0xF5E3, size: 0x8, addend: 0x0, symName: __ZNSt3__117__compressed_pairIP4CellNS_9allocatorIS1_EEEC1B8ue170006IDnS4_EEOT_OT0_, symObjAddr: 0x299C, symBinAddr: 0x100005A50, symSize: 0x3C }
  - { offsetInCU: 0xF63B, offset: 0xF63B, size: 0x8, addend: 0x0, symName: __ZNSt3__16vectorI4CellNS_9allocatorIS1_EEE16__init_with_sizeB8ue170006IPS1_S6_EEvT_T0_m, symObjAddr: 0x29D8, symBinAddr: 0x100005A8C, symSize: 0xB8 }
  - { offsetInCU: 0xF6AF, offset: 0xF6AF, size: 0x8, addend: 0x0, symName: __ZNKSt3__117__compressed_pairIP4CellNS_9allocatorIS1_EEE6secondB8ue170006Ev, symObjAddr: 0x2A90, symBinAddr: 0x100005B44, symSize: 0x24 }
  - { offsetInCU: 0xF6D5, offset: 0xF6D5, size: 0x8, addend: 0x0, symName: __ZNKSt3__122__compressed_pair_elemINS_9allocatorI4CellEELi1ELb1EE5__getB8ue170006Ev, symObjAddr: 0x2AB4, symBinAddr: 0x100005B68, symSize: 0x14 }
  - { offsetInCU: 0xF6FB, offset: 0xF6FB, size: 0x8, addend: 0x0, symName: __ZNSt3__117__compressed_pairIP4CellNS_9allocatorIS1_EEEC2B8ue170006IDnS4_EEOT_OT0_, symObjAddr: 0x2AC8, symBinAddr: 0x100005B7C, symSize: 0x44 }
  - { offsetInCU: 0xF753, offset: 0xF753, size: 0x8, addend: 0x0, symName: __ZNSt3__122__compressed_pair_elemIP4CellLi0ELb0EEC2B8ue170006IDnvEEOT_, symObjAddr: 0x2B0C, symBinAddr: 0x100005BC0, symSize: 0x1C }
  - { offsetInCU: 0xF795, offset: 0xF795, size: 0x8, addend: 0x0, symName: __ZNSt3__122__compressed_pair_elemINS_9allocatorI4CellEELi1ELb1EEC2B8ue170006IS3_vEEOT_, symObjAddr: 0x2B28, symBinAddr: 0x100005BDC, symSize: 0x18 }
  - { offsetInCU: 0xF7D7, offset: 0xF7D7, size: 0x8, addend: 0x0, symName: __ZNSt3__16vectorI4CellNS_9allocatorIS1_EEE16__destroy_vectorC1B8ue170006ERS4_, symObjAddr: 0x2B80, symBinAddr: 0x100005C34, symSize: 0x34 }
  - { offsetInCU: 0xF810, offset: 0xF810, size: 0x8, addend: 0x0, symName: __ZNSt3__16vectorI4CellNS_9allocatorIS1_EEE11__vallocateB8ue170006Em, symObjAddr: 0x2BB4, symBinAddr: 0x100005C68, symSize: 0xB4 }
  - { offsetInCU: 0xF854, offset: 0xF854, size: 0x8, addend: 0x0, symName: __ZNSt3__16vectorI4CellNS_9allocatorIS1_EEE18__construct_at_endIPS1_S6_EEvT_T0_m, symObjAddr: 0x2C68, symBinAddr: 0x100005D1C, symSize: 0x8C }
  - { offsetInCU: 0xF8CA, offset: 0xF8CA, size: 0x8, addend: 0x0, symName: __ZNSt3__128__exception_guard_exceptionsINS_6vectorI4CellNS_9allocatorIS2_EEE16__destroy_vectorEE10__completeB8ue170006Ev, symObjAddr: 0x2CF4, symBinAddr: 0x100005DA8, symSize: 0x1C }
  - { offsetInCU: 0xF8F0, offset: 0xF8F0, size: 0x8, addend: 0x0, symName: __ZNSt3__128__exception_guard_exceptionsINS_6vectorI4CellNS_9allocatorIS2_EEE16__destroy_vectorEED1B8ue170006Ev, symObjAddr: 0x2D10, symBinAddr: 0x100005DC4, symSize: 0x2C }
  - { offsetInCU: 0xF91A, offset: 0xF91A, size: 0x8, addend: 0x0, symName: __ZNSt3__128__exception_guard_exceptionsINS_6vectorI4CellNS_9allocatorIS2_EEE16__destroy_vectorEEC1B8ue170006ES6_, symObjAddr: 0x2D3C, symBinAddr: 0x100005DF0, symSize: 0x34 }
  - { offsetInCU: 0xF952, offset: 0xF952, size: 0x8, addend: 0x0, symName: __ZNSt3__128__exception_guard_exceptionsINS_6vectorI4CellNS_9allocatorIS2_EEE16__destroy_vectorEEC2B8ue170006ES6_, symObjAddr: 0x2D70, symBinAddr: 0x100005E24, symSize: 0x24 }
  - { offsetInCU: 0xF98A, offset: 0xF98A, size: 0x8, addend: 0x0, symName: __ZNSt3__16vectorI4CellNS_9allocatorIS1_EEE16__destroy_vectorC2B8ue170006ERS4_, symObjAddr: 0x2D94, symBinAddr: 0x100005E48, symSize: 0x20 }
  - { offsetInCU: 0xF9C3, offset: 0xF9C3, size: 0x8, addend: 0x0, symName: __ZNKSt3__16vectorI4CellNS_9allocatorIS1_EEE8max_sizeEv, symObjAddr: 0x2DB4, symBinAddr: 0x100005E68, symSize: 0x60 }
  - { offsetInCU: 0xF9EB, offset: 0xF9EB, size: 0x8, addend: 0x0, symName: __ZNKSt3__16vectorI4CellNS_9allocatorIS1_EEE20__throw_length_errorB8ue170006Ev, symObjAddr: 0x2E14, symBinAddr: 0x100005EC8, symSize: 0x1C }
  - { offsetInCU: 0xFA11, offset: 0xFA11, size: 0x8, addend: 0x0, symName: __ZNSt3__16vectorI4CellNS_9allocatorIS1_EEE7__allocB8ue170006Ev, symObjAddr: 0x2E70, symBinAddr: 0x100005F24, symSize: 0x28 }
  - { offsetInCU: 0xFA37, offset: 0xFA37, size: 0x8, addend: 0x0, symName: __ZNSt3__16vectorI4CellNS_9allocatorIS1_EEE9__end_capB8ue170006Ev, symObjAddr: 0x2E98, symBinAddr: 0x100005F4C, symSize: 0x28 }
  - { offsetInCU: 0xFA5D, offset: 0xFA5D, size: 0x8, addend: 0x0, symName: __ZNKSt3__16vectorI4CellNS_9allocatorIS1_EEE14__annotate_newB8ue170006Em, symObjAddr: 0x2EC0, symBinAddr: 0x100005F74, symSize: 0xC8 }
  - { offsetInCU: 0xFA92, offset: 0xFA92, size: 0x8, addend: 0x0, symName: __ZNSt3__116allocator_traitsINS_9allocatorI4CellEEE8max_sizeB8ue170006IS3_vvEEmRKS3_, symObjAddr: 0x2F88, symBinAddr: 0x10000603C, symSize: 0x28 }
  - { offsetInCU: 0xFABE, offset: 0xFABE, size: 0x8, addend: 0x0, symName: __ZNSt3__19allocatorI4CellE8allocateB8ue170006Em, symObjAddr: 0x2FB0, symBinAddr: 0x100006064, symSize: 0x5C }
  - { offsetInCU: 0xFAF2, offset: 0xFAF2, size: 0x8, addend: 0x0, symName: __ZNSt3__117__compressed_pairIP4CellNS_9allocatorIS1_EEE6secondB8ue170006Ev, symObjAddr: 0x300C, symBinAddr: 0x1000060C0, symSize: 0x24 }
  - { offsetInCU: 0xFB18, offset: 0xFB18, size: 0x8, addend: 0x0, symName: __ZNSt3__122__compressed_pair_elemINS_9allocatorI4CellEELi1ELb1EE5__getB8ue170006Ev, symObjAddr: 0x3030, symBinAddr: 0x1000060E4, symSize: 0x14 }
  - { offsetInCU: 0xFB3E, offset: 0xFB3E, size: 0x8, addend: 0x0, symName: __ZNSt3__117__compressed_pairIP4CellNS_9allocatorIS1_EEE5firstB8ue170006Ev, symObjAddr: 0x3044, symBinAddr: 0x1000060F8, symSize: 0x24 }
  - { offsetInCU: 0xFB64, offset: 0xFB64, size: 0x8, addend: 0x0, symName: __ZNSt3__122__compressed_pair_elemIP4CellLi0ELb0EE5__getB8ue170006Ev, symObjAddr: 0x3068, symBinAddr: 0x10000611C, symSize: 0x14 }
  - { offsetInCU: 0xFB8A, offset: 0xFB8A, size: 0x8, addend: 0x0, symName: __ZNKSt3__16vectorI4CellNS_9allocatorIS1_EEE31__annotate_contiguous_containerB8ue170006EPKvS6_S6_S6_, symObjAddr: 0x307C, symBinAddr: 0x100006130, symSize: 0x20 }
  - { offsetInCU: 0xFBE0, offset: 0xFBE0, size: 0x8, addend: 0x0, symName: __ZNKSt3__16vectorI4CellNS_9allocatorIS1_EEE4dataB8ue170006Ev, symObjAddr: 0x309C, symBinAddr: 0x100006150, symSize: 0x28 }
  - { offsetInCU: 0xFC06, offset: 0xFC06, size: 0x8, addend: 0x0, symName: __ZNKSt3__16vectorI4CellNS_9allocatorIS1_EEE8capacityB8ue170006Ev, symObjAddr: 0x30C4, symBinAddr: 0x100006178, symSize: 0x40 }
  - { offsetInCU: 0xFC2C, offset: 0xFC2C, size: 0x8, addend: 0x0, symName: __ZNKSt3__16vectorI4CellNS_9allocatorIS1_EEE9__end_capB8ue170006Ev, symObjAddr: 0x3118, symBinAddr: 0x1000061CC, symSize: 0x28 }
  - { offsetInCU: 0xFC52, offset: 0xFC52, size: 0x8, addend: 0x0, symName: __ZNKSt3__117__compressed_pairIP4CellNS_9allocatorIS1_EEE5firstB8ue170006Ev, symObjAddr: 0x3140, symBinAddr: 0x1000061F4, symSize: 0x24 }
  - { offsetInCU: 0xFC78, offset: 0xFC78, size: 0x8, addend: 0x0, symName: __ZNKSt3__122__compressed_pair_elemIP4CellLi0ELb0EE5__getB8ue170006Ev, symObjAddr: 0x3164, symBinAddr: 0x100006218, symSize: 0x14 }
  - { offsetInCU: 0xFCB7, offset: 0xFCB7, size: 0x8, addend: 0x0, symName: __ZNSt3__16vectorI4CellNS_9allocatorIS1_EEE21_ConstructTransactionC1B8ue170006ERS4_m, symObjAddr: 0x3178, symBinAddr: 0x10000622C, symSize: 0x3C }
  - { offsetInCU: 0xFCFF, offset: 0xFCFF, size: 0x8, addend: 0x0, symName: __ZNSt3__16vectorI4CellNS_9allocatorIS1_EEE21_ConstructTransactionD1B8ue170006Ev, symObjAddr: 0x3234, symBinAddr: 0x1000062E8, symSize: 0x2C }
  - { offsetInCU: 0xFD29, offset: 0xFD29, size: 0x8, addend: 0x0, symName: __ZNSt3__16vectorI4CellNS_9allocatorIS1_EEE21_ConstructTransactionC2B8ue170006ERS4_m, symObjAddr: 0x3260, symBinAddr: 0x100006314, symSize: 0x4C }
  - { offsetInCU: 0xFD8A, offset: 0xFD8A, size: 0x8, addend: 0x0, symName: __ZNSt3__119__unwrap_range_implIP4CellS2_E8__unwrapB8ue170006ES2_S2_, symObjAddr: 0x343C, symBinAddr: 0x1000064F0, symSize: 0x58 }
  - { offsetInCU: 0xFDC0, offset: 0xFDC0, size: 0x8, addend: 0x0, symName: __ZNSt3__14pairIP4CellS2_EC1B8ue170006IS2_S2_LPv0EEEOT_OT0_, symObjAddr: 0x3494, symBinAddr: 0x100006548, symSize: 0x3C }
  - { offsetInCU: 0xFE1E, offset: 0xFE1E, size: 0x8, addend: 0x0, symName: __ZNSt3__14pairIP4CellS2_EC2B8ue170006IS2_S2_LPv0EEEOT_OT0_, symObjAddr: 0x34D0, symBinAddr: 0x100006584, symSize: 0x34 }
  - { offsetInCU: 0xFE7C, offset: 0xFE7C, size: 0x8, addend: 0x0, symName: __ZNSt3__129_AllocatorDestroyRangeReverseINS_9allocatorI4CellEEPS2_EC1B8ue170006ERS3_RS4_S7_, symObjAddr: 0x3550, symBinAddr: 0x100006604, symSize: 0x44 }
  - { offsetInCU: 0xFED3, offset: 0xFED3, size: 0x8, addend: 0x0, symName: __ZNSt3__116allocator_traitsINS_9allocatorI4CellEEE9constructB8ue170006IS2_JRS2_EvvEEvRS3_PT_DpOT0_, symObjAddr: 0x3594, symBinAddr: 0x100006648, symSize: 0x30 }
  - { offsetInCU: 0xFF28, offset: 0xFF28, size: 0x8, addend: 0x0, symName: __ZNSt3__128__exception_guard_exceptionsINS_29_AllocatorDestroyRangeReverseINS_9allocatorI4CellEEPS3_EEE10__completeB8ue170006Ev, symObjAddr: 0x35C4, symBinAddr: 0x100006678, symSize: 0x1C }
  - { offsetInCU: 0xFF4E, offset: 0xFF4E, size: 0x8, addend: 0x0, symName: __ZNSt3__128__exception_guard_exceptionsINS_29_AllocatorDestroyRangeReverseINS_9allocatorI4CellEEPS3_EEED1B8ue170006Ev, symObjAddr: 0x35E0, symBinAddr: 0x100006694, symSize: 0x2C }
  - { offsetInCU: 0xFF78, offset: 0xFF78, size: 0x8, addend: 0x0, symName: __ZNSt3__128__exception_guard_exceptionsINS_29_AllocatorDestroyRangeReverseINS_9allocatorI4CellEEPS3_EEEC1B8ue170006ES6_, symObjAddr: 0x360C, symBinAddr: 0x1000066C0, symSize: 0x34 }
  - { offsetInCU: 0xFFB1, offset: 0xFFB1, size: 0x8, addend: 0x0, symName: __ZNSt3__128__exception_guard_exceptionsINS_29_AllocatorDestroyRangeReverseINS_9allocatorI4CellEEPS3_EEEC2B8ue170006ES6_, symObjAddr: 0x3640, symBinAddr: 0x1000066F4, symSize: 0x30 }
  - { offsetInCU: 0xFFEA, offset: 0xFFEA, size: 0x8, addend: 0x0, symName: __ZNSt3__129_AllocatorDestroyRangeReverseINS_9allocatorI4CellEEPS2_EC2B8ue170006ERS3_RS4_S7_, symObjAddr: 0x3670, symBinAddr: 0x100006724, symSize: 0x38 }
  - { offsetInCU: 0x1004B, offset: 0x1004B, size: 0x8, addend: 0x0, symName: __ZN4CellC1ERKS_, symObjAddr: 0x36E4, symBinAddr: 0x100006798, symSize: 0x34 }
  - { offsetInCU: 0x10080, offset: 0x10080, size: 0x8, addend: 0x0, symName: __ZN4CellC2ERKS_, symObjAddr: 0x3718, symBinAddr: 0x1000067CC, symSize: 0x34 }
  - { offsetInCU: 0x100B5, offset: 0x100B5, size: 0x8, addend: 0x0, symName: __ZNSt3__128__exception_guard_exceptionsINS_29_AllocatorDestroyRangeReverseINS_9allocatorI4CellEEPS3_EEED2B8ue170006Ev, symObjAddr: 0x374C, symBinAddr: 0x100006800, symSize: 0x50 }
  - { offsetInCU: 0x100DF, offset: 0x100DF, size: 0x8, addend: 0x0, symName: __ZNKSt3__129_AllocatorDestroyRangeReverseINS_9allocatorI4CellEEPS2_EclB8ue170006Ev, symObjAddr: 0x379C, symBinAddr: 0x100006850, symSize: 0x68 }
  - { offsetInCU: 0x10105, offset: 0x10105, size: 0x8, addend: 0x0, symName: __ZNSt3__116reverse_iteratorIP4CellEC1B8ue170006ES2_, symObjAddr: 0x3874, symBinAddr: 0x100006928, symSize: 0x34 }
  - { offsetInCU: 0x1013D, offset: 0x1013D, size: 0x8, addend: 0x0, symName: __ZNSt3__116allocator_traitsINS_9allocatorI4CellEEE7destroyB8ue170006IS2_vvEEvRS3_PT_, symObjAddr: 0x38F0, symBinAddr: 0x1000069A4, symSize: 0x28 }
  - { offsetInCU: 0x10178, offset: 0x10178, size: 0x8, addend: 0x0, symName: __ZNSt3__116reverse_iteratorIP4CellEppB8ue170006Ev, symObjAddr: 0x393C, symBinAddr: 0x1000069F0, symSize: 0x20 }
  - { offsetInCU: 0x1019E, offset: 0x1019E, size: 0x8, addend: 0x0, symName: __ZNKSt3__116reverse_iteratorIP4CellE4baseB8ue170006Ev, symObjAddr: 0x395C, symBinAddr: 0x100006A10, symSize: 0x18 }
  - { offsetInCU: 0x101C4, offset: 0x101C4, size: 0x8, addend: 0x0, symName: __ZN4CellD1Ev, symObjAddr: 0x39BC, symBinAddr: 0x100006A70, symSize: 0x2C }
  - { offsetInCU: 0x101F0, offset: 0x101F0, size: 0x8, addend: 0x0, symName: __ZN4CellD2Ev, symObjAddr: 0x39E8, symBinAddr: 0x100006A9C, symSize: 0x2C }
  - { offsetInCU: 0x10221, offset: 0x10221, size: 0x8, addend: 0x0, symName: __ZNSt3__119__to_address_helperINS_16reverse_iteratorIP4CellEEvE6__callB8ue170006ERKS4_, symObjAddr: 0x3A14, symBinAddr: 0x100006AC8, symSize: 0x38 }
  - { offsetInCU: 0x10244, offset: 0x10244, size: 0x8, addend: 0x0, symName: __ZNKSt3__116reverse_iteratorIP4CellEptB8ue170006Ev, symObjAddr: 0x3A4C, symBinAddr: 0x100006B00, symSize: 0x2C }
  - { offsetInCU: 0x1026A, offset: 0x1026A, size: 0x8, addend: 0x0, symName: __ZNSt3__116reverse_iteratorIP4CellEC2B8ue170006ES2_, symObjAddr: 0x3B30, symBinAddr: 0x100006BE4, symSize: 0x28 }
  - { offsetInCU: 0x102A2, offset: 0x102A2, size: 0x8, addend: 0x0, symName: __ZNSt3__118__unwrap_iter_implIP4CellLb1EE8__unwrapB8ue170006ES2_, symObjAddr: 0x3B58, symBinAddr: 0x100006C0C, symSize: 0x24 }
  - { offsetInCU: 0x102C5, offset: 0x102C5, size: 0x8, addend: 0x0, symName: __ZNSt3__118__unwrap_iter_implIP4CellLb1EE8__rewrapB8ue170006ES2_S2_, symObjAddr: 0x3B7C, symBinAddr: 0x100006C30, symSize: 0x58 }
  - { offsetInCU: 0x102F6, offset: 0x102F6, size: 0x8, addend: 0x0, symName: __ZNSt3__16vectorI4CellNS_9allocatorIS1_EEE21_ConstructTransactionD2B8ue170006Ev, symObjAddr: 0x3BD4, symBinAddr: 0x100006C88, symSize: 0x20 }
  - { offsetInCU: 0x10320, offset: 0x10320, size: 0x8, addend: 0x0, symName: __ZNSt3__128__exception_guard_exceptionsINS_6vectorI4CellNS_9allocatorIS2_EEE16__destroy_vectorEED2B8ue170006Ev, symObjAddr: 0x3BF4, symBinAddr: 0x100006CA8, symSize: 0x50 }
  - { offsetInCU: 0x1034A, offset: 0x1034A, size: 0x8, addend: 0x0, symName: __ZNSt3__16vectorI4CellNS_9allocatorIS1_EEE16__destroy_vectorclB8ue170006Ev, symObjAddr: 0x3C44, symBinAddr: 0x100006CF8, symSize: 0x90 }
  - { offsetInCU: 0x10370, offset: 0x10370, size: 0x8, addend: 0x0, symName: __ZNSt3__16vectorI4CellNS_9allocatorIS1_EEE7__clearB8ue170006Ev, symObjAddr: 0x3CD4, symBinAddr: 0x100006D88, symSize: 0x28 }
  - { offsetInCU: 0x10396, offset: 0x10396, size: 0x8, addend: 0x0, symName: __ZNKSt3__16vectorI4CellNS_9allocatorIS1_EEE17__annotate_deleteB8ue170006Ev, symObjAddr: 0x3CFC, symBinAddr: 0x100006DB0, symSize: 0xD4 }
  - { offsetInCU: 0x103BC, offset: 0x103BC, size: 0x8, addend: 0x0, symName: __ZNSt3__116allocator_traitsINS_9allocatorI4CellEEE10deallocateB8ue170006ERS3_PS2_m, symObjAddr: 0x3DD0, symBinAddr: 0x100006E84, symSize: 0x34 }
  - { offsetInCU: 0x103FE, offset: 0x103FE, size: 0x8, addend: 0x0, symName: __ZNSt3__16vectorI4CellNS_9allocatorIS1_EEE22__base_destruct_at_endB8ue170006EPS1_, symObjAddr: 0x3E04, symBinAddr: 0x100006EB8, symSize: 0x8C }
  - { offsetInCU: 0x10442, offset: 0x10442, size: 0x8, addend: 0x0, symName: __ZNSt3__19allocatorI4CellE10deallocateB8ue170006EPS1_m, symObjAddr: 0x3E90, symBinAddr: 0x100006F44, symSize: 0x44 }
  - { offsetInCU: 0x10484, offset: 0x10484, size: 0x8, addend: 0x0, symName: __ZNSt3__128__exception_guard_exceptionsINS_29_AllocatorDestroyRangeReverseINS_9allocatorINS_6vectorI4CellNS2_IS4_EEEEEEPS6_EEED2B8ue170006Ev, symObjAddr: 0x3FDC, symBinAddr: 0x100007090, symSize: 0x50 }
  - { offsetInCU: 0x104AE, offset: 0x104AE, size: 0x8, addend: 0x0, symName: __ZNKSt3__129_AllocatorDestroyRangeReverseINS_9allocatorINS_6vectorI4CellNS1_IS3_EEEEEEPS5_EclB8ue170006Ev, symObjAddr: 0x402C, symBinAddr: 0x1000070E0, symSize: 0x68 }
  - { offsetInCU: 0x104D4, offset: 0x104D4, size: 0x8, addend: 0x0, symName: __ZNSt3__116reverse_iteratorIPNS_6vectorI4CellNS_9allocatorIS2_EEEEEC1B8ue170006ES6_, symObjAddr: 0x4104, symBinAddr: 0x1000071B8, symSize: 0x34 }
  - { offsetInCU: 0x1050C, offset: 0x1050C, size: 0x8, addend: 0x0, symName: __ZNSt3__116allocator_traitsINS_9allocatorINS_6vectorI4CellNS1_IS3_EEEEEEE7destroyB8ue170006IS5_vvEEvRS6_PT_, symObjAddr: 0x4180, symBinAddr: 0x100007234, symSize: 0x28 }
  - { offsetInCU: 0x10547, offset: 0x10547, size: 0x8, addend: 0x0, symName: __ZNSt3__116reverse_iteratorIPNS_6vectorI4CellNS_9allocatorIS2_EEEEEppB8ue170006Ev, symObjAddr: 0x41CC, symBinAddr: 0x100007280, symSize: 0x20 }
  - { offsetInCU: 0x1056D, offset: 0x1056D, size: 0x8, addend: 0x0, symName: __ZNKSt3__116reverse_iteratorIPNS_6vectorI4CellNS_9allocatorIS2_EEEEE4baseB8ue170006Ev, symObjAddr: 0x41EC, symBinAddr: 0x1000072A0, symSize: 0x18 }
  - { offsetInCU: 0x10593, offset: 0x10593, size: 0x8, addend: 0x0, symName: __ZNSt3__16vectorI4CellNS_9allocatorIS1_EEED1B8ue170006Ev, symObjAddr: 0x424C, symBinAddr: 0x100007300, symSize: 0x2C }
  - { offsetInCU: 0x105BD, offset: 0x105BD, size: 0x8, addend: 0x0, symName: __ZNSt3__16vectorI4CellNS_9allocatorIS1_EEED2B8ue170006Ev, symObjAddr: 0x4278, symBinAddr: 0x10000732C, symSize: 0x40 }
  - { offsetInCU: 0x105EC, offset: 0x105EC, size: 0x8, addend: 0x0, symName: __ZNSt3__119__to_address_helperINS_16reverse_iteratorIPNS_6vectorI4CellNS_9allocatorIS3_EEEEEEvE6__callB8ue170006ERKS8_, symObjAddr: 0x42B8, symBinAddr: 0x10000736C, symSize: 0x38 }
  - { offsetInCU: 0x1060F, offset: 0x1060F, size: 0x8, addend: 0x0, symName: __ZNKSt3__116reverse_iteratorIPNS_6vectorI4CellNS_9allocatorIS2_EEEEEptB8ue170006Ev, symObjAddr: 0x42F0, symBinAddr: 0x1000073A4, symSize: 0x2C }
  - { offsetInCU: 0x10635, offset: 0x10635, size: 0x8, addend: 0x0, symName: __ZNSt3__116reverse_iteratorIPNS_6vectorI4CellNS_9allocatorIS2_EEEEEC2B8ue170006ES6_, symObjAddr: 0x43C0, symBinAddr: 0x100007474, symSize: 0x28 }
  - { offsetInCU: 0x1066D, offset: 0x1066D, size: 0x8, addend: 0x0, symName: __ZNSt3__118__unwrap_iter_implIPNS_6vectorI4CellNS_9allocatorIS2_EEEELb1EE8__unwrapB8ue170006ES6_, symObjAddr: 0x43E8, symBinAddr: 0x10000749C, symSize: 0x24 }
  - { offsetInCU: 0x10690, offset: 0x10690, size: 0x8, addend: 0x0, symName: __ZNSt3__118__unwrap_iter_implIPNS_6vectorI4CellNS_9allocatorIS2_EEEELb1EE8__rewrapB8ue170006ES6_S6_, symObjAddr: 0x440C, symBinAddr: 0x1000074C0, symSize: 0x58 }
  - { offsetInCU: 0x106C1, offset: 0x106C1, size: 0x8, addend: 0x0, symName: __ZNSt3__16vectorINS0_I4CellNS_9allocatorIS1_EEEENS2_IS4_EEE21_ConstructTransactionD2B8ue170006Ev, symObjAddr: 0x4464, symBinAddr: 0x100007518, symSize: 0x20 }
  - { offsetInCU: 0x106EB, offset: 0x106EB, size: 0x8, addend: 0x0, symName: __ZNSt3__128__exception_guard_exceptionsINS_6vectorINS1_I4CellNS_9allocatorIS2_EEEENS3_IS5_EEE16__destroy_vectorEED2B8ue170006Ev, symObjAddr: 0x4484, symBinAddr: 0x100007538, symSize: 0x50 }
  - { offsetInCU: 0x10715, offset: 0x10715, size: 0x8, addend: 0x0, symName: __ZNSt3__16vectorINS0_I4CellNS_9allocatorIS1_EEEENS2_IS4_EEE16__destroy_vectorclB8ue170006Ev, symObjAddr: 0x44D4, symBinAddr: 0x100007588, symSize: 0x90 }
  - { offsetInCU: 0x1073B, offset: 0x1073B, size: 0x8, addend: 0x0, symName: __ZNSt3__16vectorINS0_I4CellNS_9allocatorIS1_EEEENS2_IS4_EEE7__clearB8ue170006Ev, symObjAddr: 0x4564, symBinAddr: 0x100007618, symSize: 0x28 }
  - { offsetInCU: 0x10761, offset: 0x10761, size: 0x8, addend: 0x0, symName: __ZNKSt3__16vectorINS0_I4CellNS_9allocatorIS1_EEEENS2_IS4_EEE17__annotate_deleteB8ue170006Ev, symObjAddr: 0x458C, symBinAddr: 0x100007640, symSize: 0xD4 }
  - { offsetInCU: 0x10787, offset: 0x10787, size: 0x8, addend: 0x0, symName: __ZNSt3__116allocator_traitsINS_9allocatorINS_6vectorI4CellNS1_IS3_EEEEEEE10deallocateB8ue170006ERS6_PS5_m, symObjAddr: 0x4660, symBinAddr: 0x100007714, symSize: 0x34 }
  - { offsetInCU: 0x107C9, offset: 0x107C9, size: 0x8, addend: 0x0, symName: __ZNSt3__16vectorINS0_I4CellNS_9allocatorIS1_EEEENS2_IS4_EEE22__base_destruct_at_endB8ue170006EPS4_, symObjAddr: 0x4694, symBinAddr: 0x100007748, symSize: 0x8C }
  - { offsetInCU: 0x1080D, offset: 0x1080D, size: 0x8, addend: 0x0, symName: __ZNSt3__19allocatorINS_6vectorI4CellNS0_IS2_EEEEE10deallocateB8ue170006EPS4_m, symObjAddr: 0x4720, symBinAddr: 0x1000077D4, symSize: 0x44 }
  - { offsetInCU: 0x1084F, offset: 0x1084F, size: 0x8, addend: 0x0, symName: __ZNSt3__18ios_base4setfB8ue170006Ejj, symObjAddr: 0x4764, symBinAddr: 0x100007818, symSize: 0x5C }
  - { offsetInCU: 0x108A4, offset: 0x108A4, size: 0x8, addend: 0x0, symName: __ZNSt3__18ios_base6unsetfB8ue170006Ej, symObjAddr: 0x47C0, symBinAddr: 0x100007874, symSize: 0x28 }
  - { offsetInCU: 0x108DB, offset: 0x108DB, size: 0x8, addend: 0x0, symName: __ZNSt3__18__iom_t6C1B8ue170006Ei, symObjAddr: 0x47E8, symBinAddr: 0x10000789C, symSize: 0x34 }
  - { offsetInCU: 0x10913, offset: 0x10913, size: 0x8, addend: 0x0, symName: __ZNSt3__18__iom_t6C2B8ue170006Ei, symObjAddr: 0x481C, symBinAddr: 0x1000078D0, symSize: 0x20 }
  - { offsetInCU: 0x1094B, offset: 0x1094B, size: 0x8, addend: 0x0, symName: __ZNSt3__112basic_stringIcNS_11char_traitsIcEENS_9allocatorIcEEEC1B8ue170006EOS5_, symObjAddr: 0x483C, symBinAddr: 0x1000078F0, symSize: 0x34 }
  - { offsetInCU: 0x10984, offset: 0x10984, size: 0x8, addend: 0x0, symName: __ZNSt3__112basic_stringIcNS_11char_traitsIcEENS_9allocatorIcEEEC2B8ue170006EOS5_, symObjAddr: 0x4870, symBinAddr: 0x100007924, symSize: 0x50 }
  - { offsetInCU: 0x109BD, offset: 0x109BD, size: 0x8, addend: 0x0, symName: __ZNSt3__112basic_stringIcNS_11char_traitsIcEENS_9allocatorIcEEE14__default_initB8ue170006Ev, symObjAddr: 0x48C0, symBinAddr: 0x100007974, symSize: 0x40 }
  - { offsetInCU: 0x109E3, offset: 0x109E3, size: 0x8, addend: 0x0, symName: __ZNSt3__117__compressed_pairINS_12basic_stringIcNS_11char_traitsIcEENS_9allocatorIcEEE5__repES5_E5firstB8ue170006Ev, symObjAddr: 0x4900, symBinAddr: 0x1000079B4, symSize: 0x24 }
  - { offsetInCU: 0x10A09, offset: 0x10A09, size: 0x8, addend: 0x0, symName: __ZNSt3__122__compressed_pair_elemINS_12basic_stringIcNS_11char_traitsIcEENS_9allocatorIcEEE5__repELi0ELb0EE5__getB8ue170006Ev, symObjAddr: 0x4924, symBinAddr: 0x1000079D8, symSize: 0x14 }
  - { offsetInCU: 0x10A2F, offset: 0x10A2F, size: 0x8, addend: 0x0, symName: __ZNSt3__16vectorINS0_I4CellNS_9allocatorIS1_EEEENS2_IS4_EEED2B8ue170006Ev, symObjAddr: 0x4938, symBinAddr: 0x1000079EC, symSize: 0x40 }
  - { offsetInCU: 0x10A77, offset: 0x10A77, size: 0x8, addend: 0x0, symName: __ZNKSt3__113basic_ostreamIcNS_11char_traitsIcEEE6sentrycvbB8ue170006Ev, symObjAddr: 0x4B64, symBinAddr: 0x100007C18, symSize: 0x1C }
  - { offsetInCU: 0x10A9D, offset: 0x10A9D, size: 0x8, addend: 0x0, symName: __ZNSt3__119ostreambuf_iteratorIcNS_11char_traitsIcEEEC1B8ue170006ERNS_13basic_ostreamIcS2_EE, symObjAddr: 0x4DC0, symBinAddr: 0x100007E74, symSize: 0x34 }
  - { offsetInCU: 0x10AD5, offset: 0x10AD5, size: 0x8, addend: 0x0, symName: __ZNKSt3__18ios_base5flagsB8ue170006Ev, symObjAddr: 0x4DF4, symBinAddr: 0x100007EA8, symSize: 0x18 }
  - { offsetInCU: 0x10AFD, offset: 0x10AFD, size: 0x8, addend: 0x0, symName: __ZNKSt3__19basic_iosIcNS_11char_traitsIcEEE4fillB8ue170006Ev, symObjAddr: 0x4E0C, symBinAddr: 0x100007EC0, symSize: 0x64 }
  - { offsetInCU: 0x10B25, offset: 0x10B25, size: 0x8, addend: 0x0, symName: __ZNKSt3__119ostreambuf_iteratorIcNS_11char_traitsIcEEE6failedB8ue170006Ev, symObjAddr: 0x4E70, symBinAddr: 0x100007F24, symSize: 0x24 }
  - { offsetInCU: 0x10B4B, offset: 0x10B4B, size: 0x8, addend: 0x0, symName: __ZNSt3__19basic_iosIcNS_11char_traitsIcEEE8setstateB8ue170006Ej, symObjAddr: 0x4E94, symBinAddr: 0x100007F48, symSize: 0x2C }
  - { offsetInCU: 0x10B80, offset: 0x10B80, size: 0x8, addend: 0x0, symName: __ZNKSt3__18ios_base5widthB8ue170006Ev, symObjAddr: 0x4EC0, symBinAddr: 0x100007F74, symSize: 0x18 }
  - { offsetInCU: 0x10BA8, offset: 0x10BA8, size: 0x8, addend: 0x0, symName: __ZNSt3__115basic_streambufIcNS_11char_traitsIcEEE5sputnB8ue170006EPKcl, symObjAddr: 0x4ED8, symBinAddr: 0x100007F8C, symSize: 0x3C }
  - { offsetInCU: 0x10BEA, offset: 0x10BEA, size: 0x8, addend: 0x0, symName: __ZNSt3__112basic_stringIcNS_11char_traitsIcEENS_9allocatorIcEEEC1B8ue170006Emc, symObjAddr: 0x4F14, symBinAddr: 0x100007FC8, symSize: 0x3C }
  - { offsetInCU: 0x10C32, offset: 0x10C32, size: 0x8, addend: 0x0, symName: __ZNSt3__112basic_stringIcNS_11char_traitsIcEENS_9allocatorIcEEE4dataB8ue170006Ev, symObjAddr: 0x4F50, symBinAddr: 0x100008004, symSize: 0x28 }
  - { offsetInCU: 0x10C58, offset: 0x10C58, size: 0x8, addend: 0x0, symName: __ZNSt3__18ios_base5widthB8ue170006El, symObjAddr: 0x4F78, symBinAddr: 0x10000802C, symSize: 0x2C }
  - { offsetInCU: 0x10C9E, offset: 0x10C9E, size: 0x8, addend: 0x0, symName: __ZNSt3__112basic_stringIcNS_11char_traitsIcEENS_9allocatorIcEEEC2B8ue170006Emc, symObjAddr: 0x4FA4, symBinAddr: 0x100008058, symSize: 0x4C }
  - { offsetInCU: 0x10CEB, offset: 0x10CEB, size: 0x8, addend: 0x0, symName: __ZNSt3__117__compressed_pairINS_12basic_stringIcNS_11char_traitsIcEENS_9allocatorIcEEE5__repES5_EC1B8ue170006INS_18__default_init_tagESA_EEOT_OT0_, symObjAddr: 0x4FF0, symBinAddr: 0x1000080A4, symSize: 0x3C }
  - { offsetInCU: 0x10D43, offset: 0x10D43, size: 0x8, addend: 0x0, symName: __ZNSt3__117__compressed_pairINS_12basic_stringIcNS_11char_traitsIcEENS_9allocatorIcEEE5__repES5_EC2B8ue170006INS_18__default_init_tagESA_EEOT_OT0_, symObjAddr: 0x502C, symBinAddr: 0x1000080E0, symSize: 0x3C }
  - { offsetInCU: 0x10D9B, offset: 0x10D9B, size: 0x8, addend: 0x0, symName: __ZNSt3__122__compressed_pair_elemINS_12basic_stringIcNS_11char_traitsIcEENS_9allocatorIcEEE5__repELi0ELb0EEC2B8ue170006ENS_18__default_init_tagE, symObjAddr: 0x5068, symBinAddr: 0x10000811C, symSize: 0x14 }
  - { offsetInCU: 0x10DCF, offset: 0x10DCF, size: 0x8, addend: 0x0, symName: __ZNSt3__122__compressed_pair_elemINS_9allocatorIcEELi1ELb1EEC2B8ue170006ENS_18__default_init_tagE, symObjAddr: 0x507C, symBinAddr: 0x100008130, symSize: 0x2C }
  - { offsetInCU: 0x10E03, offset: 0x10E03, size: 0x8, addend: 0x0, symName: __ZNSt3__19allocatorIcEC2B8ue170006Ev, symObjAddr: 0x50A8, symBinAddr: 0x10000815C, symSize: 0x2C }
  - { offsetInCU: 0x10E2D, offset: 0x10E2D, size: 0x8, addend: 0x0, symName: __ZNSt3__116__non_trivial_ifILb1ENS_9allocatorIcEEEC2B8ue170006Ev, symObjAddr: 0x50D4, symBinAddr: 0x100008188, symSize: 0x14 }
  - { offsetInCU: 0x10E57, offset: 0x10E57, size: 0x8, addend: 0x0, symName: __ZNSt3__112basic_stringIcNS_11char_traitsIcEENS_9allocatorIcEEE13__get_pointerB8ue170006Ev, symObjAddr: 0x50FC, symBinAddr: 0x1000081B0, symSize: 0x54 }
  - { offsetInCU: 0x10E7D, offset: 0x10E7D, size: 0x8, addend: 0x0, symName: __ZNSt3__112basic_stringIcNS_11char_traitsIcEENS_9allocatorIcEEE18__get_long_pointerB8ue170006Ev, symObjAddr: 0x5150, symBinAddr: 0x100008204, symSize: 0x28 }
  - { offsetInCU: 0x10EA3, offset: 0x10EA3, size: 0x8, addend: 0x0, symName: __ZNSt3__112basic_stringIcNS_11char_traitsIcEENS_9allocatorIcEEE19__get_short_pointerB8ue170006Ev, symObjAddr: 0x5178, symBinAddr: 0x10000822C, symSize: 0x28 }
  - { offsetInCU: 0x10EC9, offset: 0x10EC9, size: 0x8, addend: 0x0, symName: __ZNSt3__114pointer_traitsIPcE10pointer_toB8ue170006ERc, symObjAddr: 0x51A0, symBinAddr: 0x100008254, symSize: 0x14 }
  - { offsetInCU: 0x10EEC, offset: 0x10EEC, size: 0x8, addend: 0x0, symName: __ZNSt3__119ostreambuf_iteratorIcNS_11char_traitsIcEEEC2B8ue170006ERNS_13basic_ostreamIcS2_EE, symObjAddr: 0x51B4, symBinAddr: 0x100008268, symSize: 0x54 }
  - { offsetInCU: 0x10F24, offset: 0x10F24, size: 0x8, addend: 0x0, symName: __ZNKSt3__19basic_iosIcNS_11char_traitsIcEEE5rdbufB8ue170006Ev, symObjAddr: 0x5208, symBinAddr: 0x1000082BC, symSize: 0x24 }
  - { offsetInCU: 0x10F4C, offset: 0x10F4C, size: 0x8, addend: 0x0, symName: __ZNKSt3__18ios_base5rdbufB8ue170006Ev, symObjAddr: 0x522C, symBinAddr: 0x1000082E0, symSize: 0x18 }
  - { offsetInCU: 0x10F72, offset: 0x10F72, size: 0x8, addend: 0x0, symName: __ZNSt3__111char_traitsIcE11eq_int_typeB8ue170006Eii, symObjAddr: 0x5244, symBinAddr: 0x1000082F8, symSize: 0x28 }
  - { offsetInCU: 0x10FA5, offset: 0x10FA5, size: 0x8, addend: 0x0, symName: __ZNSt3__111char_traitsIcE3eofB8ue170006Ev, symObjAddr: 0x526C, symBinAddr: 0x100008320, symSize: 0x8 }
  - { offsetInCU: 0x10FB9, offset: 0x10FB9, size: 0x8, addend: 0x0, symName: __ZNKSt3__19basic_iosIcNS_11char_traitsIcEEE5widenB8ue170006Ec, symObjAddr: 0x5274, symBinAddr: 0x100008328, symSize: 0x84 }
  - { offsetInCU: 0x11027, offset: 0x11027, size: 0x8, addend: 0x0, symName: __ZNKSt3__15ctypeIcE5widenB8ue170006Ec, symObjAddr: 0x5324, symBinAddr: 0x1000083D8, symSize: 0x38 }
  - { offsetInCU: 0x1105C, offset: 0x1105C, size: 0x8, addend: 0x0, symName: __ZNSt3__18ios_base8setstateB8ue170006Ej, symObjAddr: 0x535C, symBinAddr: 0x100008410, symSize: 0x34 }
  - { offsetInCU: 0x40, offset: 0x111E5, size: 0x8, addend: 0x0, symName: _yyleng, symObjAddr: 0x211A0, symBinAddr: 0x10005C008, symSize: 0x0 }
  - { offsetInCU: 0x7F, offset: 0x11224, size: 0x8, addend: 0x0, symName: _yyin, symObjAddr: 0x211A8, symBinAddr: 0x10005C010, symSize: 0x0 }
  - { offsetInCU: 0x263, offset: 0x11408, size: 0x8, addend: 0x0, symName: _yyout, symObjAddr: 0x211B0, symBinAddr: 0x10005C018, symSize: 0x0 }
  - { offsetInCU: 0x27A, offset: 0x1141F, size: 0x8, addend: 0x0, symName: _yylineno, symObjAddr: 0x3888, symBinAddr: 0x10005C000, symSize: 0x0 }
  - { offsetInCU: 0x291, offset: 0x11436, size: 0x8, addend: 0x0, symName: _yy_flex_debug, symObjAddr: 0x211B8, symBinAddr: 0x10005C020, symSize: 0x0 }
  - { offsetInCU: 0x2A8, offset: 0x1144D, size: 0x8, addend: 0x0, symName: _yytext, symObjAddr: 0x211C0, symBinAddr: 0x10005C028, symSize: 0x0 }
  - { offsetInCU: 0x2BF, offset: 0x11464, size: 0x8, addend: 0x0, symName: __ZL7yy_init, symObjAddr: 0x211C8, symBinAddr: 0x10005C0E0, symSize: 0x0 }
  - { offsetInCU: 0x2DA, offset: 0x1147F, size: 0x8, addend: 0x0, symName: __ZL8yy_start, symObjAddr: 0x211CC, symBinAddr: 0x10005C0E4, symSize: 0x0 }
  - { offsetInCU: 0x2F4, offset: 0x11499, size: 0x8, addend: 0x0, symName: __ZL15yy_buffer_stack, symObjAddr: 0x211D0, symBinAddr: 0x10005C0E8, symSize: 0x0 }
  - { offsetInCU: 0x3BD, offset: 0x11562, size: 0x8, addend: 0x0, symName: __ZL19yy_buffer_stack_top, symObjAddr: 0x211D8, symBinAddr: 0x10005C0F0, symSize: 0x0 }
  - { offsetInCU: 0x3D8, offset: 0x1157D, size: 0x8, addend: 0x0, symName: __ZL10yy_c_buf_p, symObjAddr: 0x211E0, symBinAddr: 0x10005C0F8, symSize: 0x0 }
  - { offsetInCU: 0x3F3, offset: 0x11598, size: 0x8, addend: 0x0, symName: __ZL12yy_hold_char, symObjAddr: 0x211E8, symBinAddr: 0x10005C100, symSize: 0x0 }
  - { offsetInCU: 0x40E, offset: 0x115B3, size: 0x8, addend: 0x0, symName: __ZL5yy_ec, symObjAddr: 0x3A6C, symBinAddr: 0x100053A14, symSize: 0x0 }
  - { offsetInCU: 0x453, offset: 0x115F8, size: 0x8, addend: 0x0, symName: __ZL9yy_accept, symObjAddr: 0x3B6C, symBinAddr: 0x100053B14, symSize: 0x0 }
  - { offsetInCU: 0x48A, offset: 0x1162F, size: 0x8, addend: 0x0, symName: __ZL23yy_last_accepting_state, symObjAddr: 0x211EC, symBinAddr: 0x10005C104, symSize: 0x0 }
  - { offsetInCU: 0x4B1, offset: 0x11656, size: 0x8, addend: 0x0, symName: __ZL22yy_last_accepting_cpos, symObjAddr: 0x211F0, symBinAddr: 0x10005C108, symSize: 0x0 }
  - { offsetInCU: 0x4CC, offset: 0x11671, size: 0x8, addend: 0x0, symName: __ZL6yy_chk, symObjAddr: 0x3C6A, symBinAddr: 0x100053C12, symSize: 0x0 }
  - { offsetInCU: 0x4F3, offset: 0x11698, size: 0x8, addend: 0x0, symName: __ZL7yy_base, symObjAddr: 0x3DE8, symBinAddr: 0x100053D90, symSize: 0x0 }
  - { offsetInCU: 0x51A, offset: 0x116BF, size: 0x8, addend: 0x0, symName: __ZL6yy_def, symObjAddr: 0x3EEC, symBinAddr: 0x100053E94, symSize: 0x0 }
  - { offsetInCU: 0x535, offset: 0x116DA, size: 0x8, addend: 0x0, symName: __ZL7yy_meta, symObjAddr: 0x3FF0, symBinAddr: 0x100053F98, symSize: 0x0 }
  - { offsetInCU: 0x55C, offset: 0x11701, size: 0x8, addend: 0x0, symName: __ZL6yy_nxt, symObjAddr: 0x401A, symBinAddr: 0x100053FC2, symSize: 0x0 }
  - { offsetInCU: 0x577, offset: 0x1171C, size: 0x8, addend: 0x0, symName: __ZL10yy_n_chars, symObjAddr: 0x211F8, symBinAddr: 0x10005C110, symSize: 0x0 }
  - { offsetInCU: 0x592, offset: 0x11737, size: 0x8, addend: 0x0, symName: __ZL27yy_did_buffer_switch_on_eof, symObjAddr: 0x21200, symBinAddr: 0x10005C118, symSize: 0x0 }
  - { offsetInCU: 0x5AC, offset: 0x11751, size: 0x8, addend: 0x0, symName: __ZL19yy_buffer_stack_max, symObjAddr: 0x21208, symBinAddr: 0x10005C120, symSize: 0x0 }
  - { offsetInCU: 0x4F4D, offset: 0x160F2, size: 0x8, addend: 0x0, symName: __Z7yyerrorPKc, symObjAddr: 0x0, symBinAddr: 0x100008444, symSize: 0x40 }
  - { offsetInCU: 0x4F75, offset: 0x1611A, size: 0x8, addend: 0x0, symName: __Z5yylexv, symObjAddr: 0x40, symBinAddr: 0x100008484, symSize: 0x9E4 }
  - { offsetInCU: 0x5055, offset: 0x161FA, size: 0x8, addend: 0x0, symName: __ZL21yyensure_buffer_stackv, symObjAddr: 0xAA4, symBinAddr: 0x100008EE8, symSize: 0x14C }
  - { offsetInCU: 0x509C, offset: 0x16241, size: 0x8, addend: 0x0, symName: __Z16yy_create_bufferP7__sFILEi, symObjAddr: 0xBF0, symBinAddr: 0x100009034, symSize: 0xB8 }
  - { offsetInCU: 0x50E9, offset: 0x1628E, size: 0x8, addend: 0x0, symName: __ZL20yy_load_buffer_statev, symObjAddr: 0xCA8, symBinAddr: 0x1000090EC, symSize: 0x6C }
  - { offsetInCU: 0x5109, offset: 0x162AE, size: 0x8, addend: 0x0, symName: __ZNSt3__112basic_stringIcNS_11char_traitsIcEENS_9allocatorIcEEEC1B8ue170006ILi0EEEPKc, symObjAddr: 0xDE0, symBinAddr: 0x100009158, symSize: 0x34 }
  - { offsetInCU: 0x5148, offset: 0x162ED, size: 0x8, addend: 0x0, symName: __ZNSt3__112basic_stringIcNS_11char_traitsIcEENS_9allocatorIcEEEaSB8ue170006EOS5_, symObjAddr: 0xE14, symBinAddr: 0x10000918C, symSize: 0x34 }
  - { offsetInCU: 0x517D, offset: 0x16322, size: 0x8, addend: 0x0, symName: __ZNKSt3__112basic_stringIcNS_11char_traitsIcEENS_9allocatorIcEEE6substrB8ue170006Emm, symObjAddr: 0xE94, symBinAddr: 0x1000091C0, symSize: 0x68 }
  - { offsetInCU: 0x51C1, offset: 0x16366, size: 0x8, addend: 0x0, symName: __ZNKSt3__112basic_stringIcNS_11char_traitsIcEENS_9allocatorIcEEE6lengthB8ue170006Ev, symObjAddr: 0xEFC, symBinAddr: 0x100009228, symSize: 0x24 }
  - { offsetInCU: 0x51E7, offset: 0x1638C, size: 0x8, addend: 0x0, symName: __ZL21yy_get_previous_statev, symObjAddr: 0xF20, symBinAddr: 0x10000924C, symSize: 0x198 }
  - { offsetInCU: 0x5242, offset: 0x163E7, size: 0x8, addend: 0x0, symName: __ZL16yy_try_NUL_transi, symObjAddr: 0x10B8, symBinAddr: 0x1000093E4, symSize: 0x158 }
  - { offsetInCU: 0x529E, offset: 0x16443, size: 0x8, addend: 0x0, symName: __ZL18yy_get_next_bufferv, symObjAddr: 0x1210, symBinAddr: 0x10000953C, symSize: 0x7A4 }
  - { offsetInCU: 0x53B8, offset: 0x1655D, size: 0x8, addend: 0x0, symName: _yywrap, symObjAddr: 0x19B4, symBinAddr: 0x100009CE0, symSize: 0x8 }
  - { offsetInCU: 0x53D1, offset: 0x16576, size: 0x8, addend: 0x0, symName: __Z9yyrestartP7__sFILE, symObjAddr: 0x19BC, symBinAddr: 0x100009CE8, symSize: 0xEC }
  - { offsetInCU: 0x53FC, offset: 0x165A1, size: 0x8, addend: 0x0, symName: __ZL14yy_fatal_errorPKc, symObjAddr: 0x1AA8, symBinAddr: 0x100009DD4, symSize: 0x3C }
  - { offsetInCU: 0x5427, offset: 0x165CC, size: 0x8, addend: 0x0, symName: __ZL14yy_init_bufferP15yy_buffer_stateP7__sFILE, symObjAddr: 0x1AE4, symBinAddr: 0x100009E10, symSize: 0x124 }
  - { offsetInCU: 0x546F, offset: 0x16614, size: 0x8, addend: 0x0, symName: __Z19yy_switch_to_bufferP15yy_buffer_state, symObjAddr: 0x1C08, symBinAddr: 0x100009F34, symSize: 0x148 }
  - { offsetInCU: 0x5499, offset: 0x1663E, size: 0x8, addend: 0x0, symName: __Z7yyallocm, symObjAddr: 0x1D50, symBinAddr: 0x10000A07C, symSize: 0x24 }
  - { offsetInCU: 0x54C7, offset: 0x1666C, size: 0x8, addend: 0x0, symName: __Z16yy_delete_bufferP15yy_buffer_state, symObjAddr: 0x1D74, symBinAddr: 0x10000A0A0, symSize: 0xE4 }
  - { offsetInCU: 0x54F1, offset: 0x16696, size: 0x8, addend: 0x0, symName: __Z6yyfreePv, symObjAddr: 0x1E58, symBinAddr: 0x10000A184, symSize: 0x24 }
  - { offsetInCU: 0x551B, offset: 0x166C0, size: 0x8, addend: 0x0, symName: __Z15yy_flush_bufferP15yy_buffer_state, symObjAddr: 0x1E7C, symBinAddr: 0x10000A1A8, symSize: 0xE0 }
  - { offsetInCU: 0x5545, offset: 0x166EA, size: 0x8, addend: 0x0, symName: __Z19yypush_buffer_stateP15yy_buffer_state, symObjAddr: 0x1F5C, symBinAddr: 0x10000A288, symSize: 0x16C }
  - { offsetInCU: 0x5570, offset: 0x16715, size: 0x8, addend: 0x0, symName: __Z18yypop_buffer_statev, symObjAddr: 0x20C8, symBinAddr: 0x10000A3F4, symSize: 0x160 }
  - { offsetInCU: 0x558A, offset: 0x1672F, size: 0x8, addend: 0x0, symName: __Z14yy_scan_bufferPcm, symObjAddr: 0x2228, symBinAddr: 0x10000A554, symSize: 0x128 }
  - { offsetInCU: 0x55D6, offset: 0x1677B, size: 0x8, addend: 0x0, symName: __Z14yy_scan_stringPKc, symObjAddr: 0x2350, symBinAddr: 0x10000A67C, symSize: 0x3C }
  - { offsetInCU: 0x5604, offset: 0x167A9, size: 0x8, addend: 0x0, symName: __Z13yy_scan_bytesPKcm, symObjAddr: 0x238C, symBinAddr: 0x10000A6B8, symSize: 0x110 }
  - { offsetInCU: 0x567E, offset: 0x16823, size: 0x8, addend: 0x0, symName: __Z12yyget_linenov, symObjAddr: 0x249C, symBinAddr: 0x10000A7C8, symSize: 0xC }
  - { offsetInCU: 0x569D, offset: 0x16842, size: 0x8, addend: 0x0, symName: __Z8yyget_inv, symObjAddr: 0x24A8, symBinAddr: 0x10000A7D4, symSize: 0xC }
  - { offsetInCU: 0x56BC, offset: 0x16861, size: 0x8, addend: 0x0, symName: __Z9yyget_outv, symObjAddr: 0x24B4, symBinAddr: 0x10000A7E0, symSize: 0xC }
  - { offsetInCU: 0x56DB, offset: 0x16880, size: 0x8, addend: 0x0, symName: __Z10yyget_lengv, symObjAddr: 0x24C0, symBinAddr: 0x10000A7EC, symSize: 0xC }
  - { offsetInCU: 0x56FA, offset: 0x1689F, size: 0x8, addend: 0x0, symName: __Z10yyget_textv, symObjAddr: 0x24CC, symBinAddr: 0x10000A7F8, symSize: 0xC }
  - { offsetInCU: 0x5719, offset: 0x168BE, size: 0x8, addend: 0x0, symName: __Z12yyset_linenoi, symObjAddr: 0x24D8, symBinAddr: 0x10000A804, symSize: 0x1C }
  - { offsetInCU: 0x5744, offset: 0x168E9, size: 0x8, addend: 0x0, symName: __Z8yyset_inP7__sFILE, symObjAddr: 0x24F4, symBinAddr: 0x10000A820, symSize: 0x1C }
  - { offsetInCU: 0x576F, offset: 0x16914, size: 0x8, addend: 0x0, symName: __Z9yyset_outP7__sFILE, symObjAddr: 0x2510, symBinAddr: 0x10000A83C, symSize: 0x1C }
  - { offsetInCU: 0x579A, offset: 0x1693F, size: 0x8, addend: 0x0, symName: __Z11yyget_debugv, symObjAddr: 0x252C, symBinAddr: 0x10000A858, symSize: 0xC }
  - { offsetInCU: 0x57B9, offset: 0x1695E, size: 0x8, addend: 0x0, symName: __Z11yyset_debugi, symObjAddr: 0x2538, symBinAddr: 0x10000A864, symSize: 0x1C }
  - { offsetInCU: 0x57E4, offset: 0x16989, size: 0x8, addend: 0x0, symName: __Z13yylex_destroyv, symObjAddr: 0x2554, symBinAddr: 0x10000A880, symSize: 0xF8 }
  - { offsetInCU: 0x5803, offset: 0x169A8, size: 0x8, addend: 0x0, symName: __ZL15yy_init_globalsv, symObjAddr: 0x264C, symBinAddr: 0x10000A978, symSize: 0x48 }
  - { offsetInCU: 0x5821, offset: 0x169C6, size: 0x8, addend: 0x0, symName: __Z9yyreallocPvm, symObjAddr: 0x2694, symBinAddr: 0x10000A9C0, symSize: 0x2C }
  - { offsetInCU: 0x585F, offset: 0x16A04, size: 0x8, addend: 0x0, symName: __ZNSt3__112basic_stringIcNS_11char_traitsIcEENS_9allocatorIcEEEC2B8ue170006ILi0EEEPKc, symObjAddr: 0x26C0, symBinAddr: 0x10000A9EC, symSize: 0x58 }
  - { offsetInCU: 0x589E, offset: 0x16A43, size: 0x8, addend: 0x0, symName: __ZNSt3__112basic_stringIcNS_11char_traitsIcEENS_9allocatorIcEEE13__move_assignB8ue170006ERS5_NS_17integral_constantIbLb1EEE, symObjAddr: 0x2874, symBinAddr: 0x10000AA44, symSize: 0xC8 }
  - { offsetInCU: 0x58E1, offset: 0x16A86, size: 0x8, addend: 0x0, symName: __ZNSt3__116allocator_traitsINS_9allocatorIcEEE10deallocateB8ue170006ERS2_Pcm, symObjAddr: 0x2974, symBinAddr: 0x10000AB0C, symSize: 0x34 }
  - { offsetInCU: 0x5923, offset: 0x16AC8, size: 0x8, addend: 0x0, symName: __ZNSt3__112basic_stringIcNS_11char_traitsIcEENS_9allocatorIcEEE7__allocB8ue170006Ev, symObjAddr: 0x29A8, symBinAddr: 0x10000AB40, symSize: 0x24 }
  - { offsetInCU: 0x5949, offset: 0x16AEE, size: 0x8, addend: 0x0, symName: __ZNKSt3__112basic_stringIcNS_11char_traitsIcEENS_9allocatorIcEEE14__get_long_capB8ue170006Ev, symObjAddr: 0x29F4, symBinAddr: 0x10000AB64, symSize: 0x30 }
  - { offsetInCU: 0x596F, offset: 0x16B14, size: 0x8, addend: 0x0, symName: __ZNSt3__112basic_stringIcNS_11char_traitsIcEENS_9allocatorIcEEE19__move_assign_allocB8ue170006ERS5_, symObjAddr: 0x2A24, symBinAddr: 0x10000AB94, symSize: 0x2C }
  - { offsetInCU: 0x59A4, offset: 0x16B49, size: 0x8, addend: 0x0, symName: __ZNSt3__112basic_stringIcNS_11char_traitsIcEENS_9allocatorIcEEE16__set_short_sizeB8ue170006Em, symObjAddr: 0x2A74, symBinAddr: 0x10000ABC0, symSize: 0x78 }
  - { offsetInCU: 0x59D9, offset: 0x16B7E, size: 0x8, addend: 0x0, symName: __ZNSt3__111char_traitsIcE6assignB8ue170006ERcRKc, symObjAddr: 0x2AEC, symBinAddr: 0x10000AC38, symSize: 0x24 }
  - { offsetInCU: 0x5A0A, offset: 0x16BAF, size: 0x8, addend: 0x0, symName: __ZNSt3__19allocatorIcE10deallocateB8ue170006EPcm, symObjAddr: 0x2B70, symBinAddr: 0x10000AC5C, symSize: 0x40 }
  - { offsetInCU: 0x5A4C, offset: 0x16BF1, size: 0x8, addend: 0x0, symName: __ZNSt3__117__compressed_pairINS_12basic_stringIcNS_11char_traitsIcEENS_9allocatorIcEEE5__repES5_E6secondB8ue170006Ev, symObjAddr: 0x2CD8, symBinAddr: 0x10000AC9C, symSize: 0x24 }
  - { offsetInCU: 0x5A72, offset: 0x16C17, size: 0x8, addend: 0x0, symName: __ZNSt3__122__compressed_pair_elemINS_9allocatorIcEELi1ELb1EE5__getB8ue170006Ev, symObjAddr: 0x2CFC, symBinAddr: 0x10000ACC0, symSize: 0x14 }
  - { offsetInCU: 0x5A98, offset: 0x16C3D, size: 0x8, addend: 0x0, symName: __ZNSt3__112basic_stringIcNS_11char_traitsIcEENS_9allocatorIcEEE19__move_assign_allocB8ue170006ERS5_NS_17integral_constantIbLb1EEE, symObjAddr: 0x2D10, symBinAddr: 0x10000ACD4, symSize: 0x38 }
  - { offsetInCU: 0x5AD9, offset: 0x16C7E, size: 0x8, addend: 0x0, symName: __ZNSt3__19allocatorIcEC1B8ue170006Ev, symObjAddr: 0x2D70, symBinAddr: 0x10000AD0C, symSize: 0x2C }
  - { offsetInCU: 0x52, offset: 0x16D08, size: 0x8, addend: 0x0, symName: _map_name, symObjAddr: 0x26DF30, symBinAddr: 0x10005C030, symSize: 0x0 }
  - { offsetInCU: 0x2AAC, offset: 0x19762, size: 0x8, addend: 0x0, symName: __ZNSt3__19__any_imp21__get_fallback_typeidB8ue170006IiEEPKvv, symObjAddr: 0x9D80, symBinAddr: 0x10001381C, symSize: 0xC }
  - { offsetInCU: 0x2AD3, offset: 0x19789, size: 0x8, addend: 0x0, symName: __ZNSt3__19__any_imp21__get_fallback_typeidB8ue170006IbEEPKvv, symObjAddr: 0x9F10, symBinAddr: 0x1000139AC, symSize: 0xC }
  - { offsetInCU: 0x2AFA, offset: 0x197B0, size: 0x8, addend: 0x0, symName: __ZNSt3__19__any_imp21__get_fallback_typeidB8ue170006INS_12basic_stringIcNS_11char_traitsIcEENS_9allocatorIcEEEEEEPKvv, symObjAddr: 0x9FD8, symBinAddr: 0x100013A74, symSize: 0xC }
  - { offsetInCU: 0x2B21, offset: 0x197D7, size: 0x8, addend: 0x0, symName: __ZNSt3__19__any_imp21__get_fallback_typeidB8ue170006INS_6vectorIiNS_9allocatorIiEEEEEEPKvv, symObjAddr: 0xA0D4, symBinAddr: 0x100013B70, symSize: 0xC }
  - { offsetInCU: 0x2B48, offset: 0x197FE, size: 0x8, addend: 0x0, symName: __ZNSt3__19__any_imp21__get_fallback_typeidB8ue170006INS_6vectorIbNS_9allocatorIbEEEEEEPKvv, symObjAddr: 0xB5F4, symBinAddr: 0x100015090, symSize: 0xC }
  - { offsetInCU: 0x2B6F, offset: 0x19825, size: 0x8, addend: 0x0, symName: __ZNSt3__19__any_imp21__get_fallback_typeidB8ue170006INS_6vectorINS_12basic_stringIcNS_11char_traitsIcEENS_9allocatorIcEEEENS6_IS8_EEEEEEPKvv, symObjAddr: 0xCC14, symBinAddr: 0x1000166B0, symSize: 0xC }
  - { offsetInCU: 0x2CBB, offset: 0x19971, size: 0x8, addend: 0x0, symName: __ZNSt3__19__any_imp16__compare_typeidB8ue170006INS_12basic_stringIcNS_11char_traitsIcEENS_9allocatorIcEEEEEEbPKSt9type_infoPKv, symObjAddr: 0x114C4, symBinAddr: 0x10001AC8C, symSize: 0xC4 }
  - { offsetInCU: 0x2E23, offset: 0x19AD9, size: 0x8, addend: 0x0, symName: __ZNSt3__19__any_imp16__compare_typeidB8ue170006IiEEbPKSt9type_infoPKv, symObjAddr: 0x11A48, symBinAddr: 0x10001B210, symSize: 0xC4 }
  - { offsetInCU: 0x2F8B, offset: 0x19C41, size: 0x8, addend: 0x0, symName: __ZNSt3__19__any_imp16__compare_typeidB8ue170006IbEEbPKSt9type_infoPKv, symObjAddr: 0x28CDC, symBinAddr: 0x10003024C, symSize: 0xC4 }
  - { offsetInCU: 0x30CD, offset: 0x19D83, size: 0x8, addend: 0x0, symName: __ZNSt3__19__any_imp16__compare_typeidB8ue170006INS_15__bit_referenceINS_6vectorIbNS_9allocatorIbEEEELb1EEEEEbPKSt9type_infoPKv, symObjAddr: 0x2E160, symBinAddr: 0x100035634, symSize: 0xC4 }
  - { offsetInCU: 0x3110, offset: 0x19DC6, size: 0x8, addend: 0x0, symName: __ZNSt3__19__any_imp21__get_fallback_typeidB8ue170006INS_15__bit_referenceINS_6vectorIbNS_9allocatorIbEEEELb1EEEEEPKvv, symObjAddr: 0x2E224, symBinAddr: 0x1000356F8, symSize: 0xC }
  - { offsetInCU: 0x325C, offset: 0x19F12, size: 0x8, addend: 0x0, symName: __ZNSt3__19__any_imp16__compare_typeidB8ue170006INS_6vectorIiNS_9allocatorIiEEEEEEbPKSt9type_infoPKv, symObjAddr: 0x31B48, symBinAddr: 0x10003901C, symSize: 0xC4 }
  - { offsetInCU: 0x33C4, offset: 0x1A07A, size: 0x8, addend: 0x0, symName: __ZNSt3__19__any_imp16__compare_typeidB8ue170006INS_6vectorIbNS_9allocatorIbEEEEEEbPKSt9type_infoPKv, symObjAddr: 0x34614, symBinAddr: 0x10003BAE8, symSize: 0xC4 }
  - { offsetInCU: 0x3506, offset: 0x1A1BC, size: 0x8, addend: 0x0, symName: __ZNSt3__19__any_imp16__compare_typeidB8ue170006ImEEbPKSt9type_infoPKv, symObjAddr: 0x3616C, symBinAddr: 0x10003D640, symSize: 0xC4 }
  - { offsetInCU: 0x3549, offset: 0x1A1FF, size: 0x8, addend: 0x0, symName: __ZNSt3__19__any_imp21__get_fallback_typeidB8ue170006ImEEPKvv, symObjAddr: 0x36230, symBinAddr: 0x10003D704, symSize: 0xC }
  - { offsetInCU: 0x3695, offset: 0x1A34B, size: 0x8, addend: 0x0, symName: __ZNSt3__19__any_imp16__compare_typeidB8ue170006INS_6vectorINS_12basic_stringIcNS_11char_traitsIcEENS_9allocatorIcEEEENS6_IS8_EEEEEEbPKSt9type_infoPKv, symObjAddr: 0x42F3C, symBinAddr: 0x10004A20C, symSize: 0xC4 }
  - { offsetInCU: 0x23B74, offset: 0x3A82A, size: 0x8, addend: 0x0, symName: __ZNSt3__17advanceB8ue170006IPNS_10shared_ptrI7ASTNodeEEllvEEvRT_T0_, symObjAddr: 0x75E4, symBinAddr: 0x100011D1C, symSize: 0x38 }
  - { offsetInCU: 0x23DF4, offset: 0x3AAAA, size: 0x8, addend: 0x0, symName: __ZNSt3__17advanceB8ue170006INS_16reverse_iteratorIPNS_10shared_ptrI7ASTNodeEEEEllvEEvRT_T0_, symObjAddr: 0x7A20, symBinAddr: 0x100012144, symSize: 0x38 }
  - { offsetInCU: 0x24CEA, offset: 0x3B9A0, size: 0x8, addend: 0x0, symName: __ZNSt3__17advanceB8ue170006IPNS_12basic_stringIcNS_11char_traitsIcEENS_9allocatorIcEEEEllvEEvRT_T0_, symObjAddr: 0xDD80, symBinAddr: 0x10001781C, symSize: 0x38 }
  - { offsetInCU: 0x25233, offset: 0x3BEE9, size: 0x8, addend: 0x0, symName: __ZNSt3__17advanceB8ue170006INS_16reverse_iteratorIPNS_12basic_stringIcNS_11char_traitsIcEENS_9allocatorIcEEEEEEllvEEvRT_T0_, symObjAddr: 0x10C74, symBinAddr: 0x10001A43C, symSize: 0x38 }
  - { offsetInCU: 0x2529E, offset: 0x3BF54, size: 0x8, addend: 0x0, symName: __ZNSt3__120dynamic_pointer_castB8ue170006I30FunctionVariableDefinitionNode7ASTNodeEENS_10shared_ptrIT_EERKNS3_IT0_EE, symObjAddr: 0x4B7C, symBinAddr: 0x10000F7B4, symSize: 0xAC }
  - { offsetInCU: 0x25C5E, offset: 0x3C914, size: 0x8, addend: 0x0, symName: __ZNSt3__17advanceB8ue170006IPNS_13unordered_mapINS_12basic_stringIcNS_11char_traitsIcEENS_9allocatorIcEEEENS_10shared_ptrI8VariableEENS_4hashIS7_EENS_8equal_toIS7_EENS5_INS_4pairIKS7_SA_EEEEEEllvEEvRT_T0_, symObjAddr: 0x14D64, symBinAddr: 0x10001E52C, symSize: 0x38 }
  - { offsetInCU: 0x25EDE, offset: 0x3CB94, size: 0x8, addend: 0x0, symName: __ZNSt3__17advanceB8ue170006INS_16reverse_iteratorIPNS_13unordered_mapINS_12basic_stringIcNS_11char_traitsIcEENS_9allocatorIcEEEENS_10shared_ptrI8VariableEENS_4hashIS8_EENS_8equal_toIS8_EENS6_INS_4pairIKS8_SB_EEEEEEEEllvEEvRT_T0_, symObjAddr: 0x15748, symBinAddr: 0x10001EF10, symSize: 0x38 }
  - { offsetInCU: 0x262A7, offset: 0x3CF5D, size: 0x8, addend: 0x0, symName: __ZNSt3__17advanceB8ue170006IPNS_13unordered_mapINS_12basic_stringIcNS_11char_traitsIcEENS_9allocatorIcEEEENS_10shared_ptrI7ASTNodeEENS_4hashIS7_EENS_8equal_toIS7_EENS5_INS_4pairIKS7_SA_EEEEEEllvEEvRT_T0_, symObjAddr: 0x17BD8, symBinAddr: 0x1000213A0, symSize: 0x38 }
  - { offsetInCU: 0x26527, offset: 0x3D1DD, size: 0x8, addend: 0x0, symName: __ZNSt3__17advanceB8ue170006INS_16reverse_iteratorIPNS_13unordered_mapINS_12basic_stringIcNS_11char_traitsIcEENS_9allocatorIcEEEENS_10shared_ptrI7ASTNodeEENS_4hashIS8_EENS_8equal_toIS8_EENS6_INS_4pairIKS8_SB_EEEEEEEEllvEEvRT_T0_, symObjAddr: 0x1853C, symBinAddr: 0x100021D04, symSize: 0x38 }
  - { offsetInCU: 0x2708E, offset: 0x3DD44, size: 0x8, addend: 0x0, symName: __ZNSt3__17advanceB8ue170006IPNS_3setINS_12basic_stringIcNS_11char_traitsIcEENS_9allocatorIcEEEENS_4lessIS7_EENS5_IS7_EEEEllvEEvRT_T0_, symObjAddr: 0x1E448, symBinAddr: 0x100027C10, symSize: 0x38 }
  - { offsetInCU: 0x2730E, offset: 0x3DFC4, size: 0x8, addend: 0x0, symName: __ZNSt3__17advanceB8ue170006INS_16reverse_iteratorIPNS_3setINS_12basic_stringIcNS_11char_traitsIcEENS_9allocatorIcEEEENS_4lessIS8_EENS6_IS8_EEEEEEllvEEvRT_T0_, symObjAddr: 0x1E9D8, symBinAddr: 0x1000281A0, symSize: 0x38 }
  - { offsetInCU: 0x27C52, offset: 0x3E908, size: 0x8, addend: 0x0, symName: __ZNSt3__17advanceB8ue170006INS_16reverse_iteratorIP4CellEEllvEEvRT_T0_, symObjAddr: 0x22974, symBinAddr: 0x10002B738, symSize: 0x38 }
  - { offsetInCU: 0x281C2, offset: 0x3EE78, size: 0x8, addend: 0x0, symName: __ZNSt3__17advanceB8ue170006INS_16reverse_iteratorIPNS_6vectorI4CellNS_9allocatorIS3_EEEEEEllvEEvRT_T0_, symObjAddr: 0x243BC, symBinAddr: 0x10002C804, symSize: 0x38 }
  - { offsetInCU: 0x29D94, offset: 0x40A4A, size: 0x8, addend: 0x0, symName: __ZNSt3__16copy_nB8ue170006IPKcmPcEENS_9enable_ifIXsr37__has_random_access_iterator_categoryIT_EE5valueET1_E4typeES5_T0_S6_, symObjAddr: 0x2D4B8, symBinAddr: 0x10003498C, symSize: 0x44 }
  - { offsetInCU: 0x2A3F3, offset: 0x410A9, size: 0x8, addend: 0x0, symName: __ZNSt3__114__copy_alignedB8ue170006INS_6vectorIbNS_9allocatorIbEEEELb1EEENS_14__bit_iteratorIT_Lb0EXLi0EEEENS5_IS6_XT0_EXLi0EEEES8_S7_, symObjAddr: 0x32B8C, symBinAddr: 0x10003A060, symSize: 0x268 }
  - { offsetInCU: 0x2A51F, offset: 0x411D5, size: 0x8, addend: 0x0, symName: __ZNSt3__16copy_nB8ue170006IPKmmPmEENS_9enable_ifIXsr37__has_random_access_iterator_categoryIT_EE5valueET1_E4typeES5_T0_S6_, symObjAddr: 0x33388, symBinAddr: 0x10003A85C, symSize: 0x44 }
  - { offsetInCU: 0x2A5C6, offset: 0x4127C, size: 0x8, addend: 0x0, symName: __ZNSt3__116__copy_unalignedB8ue170006INS_6vectorIbNS_9allocatorIbEEEELb1EEENS_14__bit_iteratorIT_Lb0EXLi0EEEENS5_IS6_XT0_EXLi0EEEES8_S7_, symObjAddr: 0x32DF4, symBinAddr: 0x10003A2C8, symSize: 0x520 }
  - { offsetInCU: 0x2A746, offset: 0x413FC, size: 0x8, addend: 0x0, symName: __ZNSt3__113__fill_n_trueB8ue170006INS_6vectorIbNS_9allocatorIbEEEEEEvNS_14__bit_iteratorIT_Lb0EXLi0EEEENS6_9size_typeE, symObjAddr: 0x33BC8, symBinAddr: 0x10003B09C, symSize: 0x160 }
  - { offsetInCU: 0x2A80B, offset: 0x414C1, size: 0x8, addend: 0x0, symName: __ZNSt3__114__fill_n_falseB8ue170006INS_6vectorIbNS_9allocatorIbEEEEEEvNS_14__bit_iteratorIT_Lb0EXLi0EEEENS6_9size_typeE, symObjAddr: 0x33D28, symBinAddr: 0x10003B1FC, symSize: 0x15C }
  - { offsetInCU: 0x2B096, offset: 0x41D4C, size: 0x8, addend: 0x0, symName: __ZNSt3__120dynamic_pointer_castB8ue170006I17FunctionStartNode7ASTNodeEENS_10shared_ptrIT_EERKNS3_IT0_EE, symObjAddr: 0x4E04, symBinAddr: 0x10000FA3C, symSize: 0xAC }
  - { offsetInCU: 0x2CBC7, offset: 0x4387D, size: 0x8, addend: 0x0, symName: __ZNSt3__120dynamic_pointer_castB8ue170006I22VariableDefinitionNode7ASTNodeEENS_10shared_ptrIT_EERKNS3_IT0_EE, symObjAddr: 0x533C, symBinAddr: 0x10000FF74, symSize: 0xAC }
  - { offsetInCU: 0x2E5DF, offset: 0x45295, size: 0x8, addend: 0x0, symName: __ZNSt3__120dynamic_pointer_castB8ue170006I27VariableArrayDefinitionNode7ASTNodeEENS_10shared_ptrIT_EERKNS3_IT0_EE, symObjAddr: 0x59CC, symBinAddr: 0x100010604, symSize: 0xAC }
  - { offsetInCU: 0x2F521, offset: 0x461D7, size: 0x8, addend: 0x0, symName: __ZNSt3__111make_sharedB8ue170006I17VariableContainerJEvEENS_10shared_ptrIT_EEDpOT0_, symObjAddr: 0x34, symBinAddr: 0x10000AD38, symSize: 0x38 }
  - { offsetInCU: 0x2F54F, offset: 0x46205, size: 0x8, addend: 0x0, symName: __ZNSt3__111make_sharedB8ue170006I22ParseVariableContainerJEvEENS_10shared_ptrIT_EEDpOT0_, symObjAddr: 0x98, symBinAddr: 0x10000AD9C, symSize: 0x38 }
  - { offsetInCU: 0x2F57D, offset: 0x46233, size: 0x8, addend: 0x0, symName: __ZNSt3__111make_sharedB8ue170006I3MapJRNS_12basic_stringIcNS_11char_traitsIcEENS_9allocatorIcEEEEEvEENS_10shared_ptrIT_EEDpOT0_, symObjAddr: 0xFC, symBinAddr: 0x10000AE00, symSize: 0x40 }
  - { offsetInCU: 0x2F5C0, offset: 0x46276, size: 0x8, addend: 0x0, symName: __ZNSt3__111make_sharedB8ue170006I5RobotJRNS_10shared_ptrI3MapEEiEvEENS2_IT_EEDpOT0_, symObjAddr: 0x168, symBinAddr: 0x10000AE6C, symSize: 0x48 }
  - { offsetInCU: 0x2F617, offset: 0x462CD, size: 0x8, addend: 0x0, symName: __ZNSt3__111make_sharedB8ue170006I9StartNodeJRNS_10shared_ptrI17VariableContainerEEEvEENS2_IT_EEDpOT0_, symObjAddr: 0x419C, symBinAddr: 0x10000EDD4, symSize: 0x40 }
  - { offsetInCU: 0x2F876, offset: 0x4652C, size: 0x8, addend: 0x0, symName: __ZNSt3__120dynamic_pointer_castB8ue170006I7ASTNode13MoveRobotNodeEENS_10shared_ptrIT_EEONS3_IT0_EE, symObjAddr: 0x4258, symBinAddr: 0x10000EE90, symSize: 0x64 }
  - { offsetInCU: 0x2F8C5, offset: 0x4657B, size: 0x8, addend: 0x0, symName: __ZNSt3__111make_sharedB8ue170006I13MoveRobotNodeJRNS_10shared_ptrI17VariableContainerEERNS2_I5RobotEERNS2_I3MapEE9directionEvEENS2_IT_EEDpOT0_, symObjAddr: 0x42BC, symBinAddr: 0x10000EEF4, symSize: 0x58 }
  - { offsetInCU: 0x2FB60, offset: 0x46816, size: 0x8, addend: 0x0, symName: __ZNSt3__120dynamic_pointer_castB8ue170006I7ASTNode15RotateRobotNodeEENS_10shared_ptrIT_EEONS3_IT0_EE, symObjAddr: 0x43BC, symBinAddr: 0x10000EFF4, symSize: 0x64 }
  - { offsetInCU: 0x2FBAF, offset: 0x46865, size: 0x8, addend: 0x0, symName: __ZNSt3__111make_sharedB8ue170006I15RotateRobotNodeJRNS_10shared_ptrI17VariableContainerEERNS2_I5RobotEERNS2_I3MapEEbEvEENS2_IT_EEDpOT0_, symObjAddr: 0x4420, symBinAddr: 0x10000F058, symSize: 0x58 }
  - { offsetInCU: 0x2FE4A, offset: 0x46B00, size: 0x8, addend: 0x0, symName: __ZNSt3__120dynamic_pointer_castB8ue170006I7ASTNode9ValueNodeEENS_10shared_ptrIT_EEONS3_IT0_EE, symObjAddr: 0x44A4, symBinAddr: 0x10000F0DC, symSize: 0x64 }
  - { offsetInCU: 0x2FE99, offset: 0x46B4F, size: 0x8, addend: 0x0, symName: __ZNSt3__111make_sharedB8ue170006I9ValueNodeJRNS_10shared_ptrI17VariableContainerEENS_3anyEEvEENS2_IT_EEDpOT0_, symObjAddr: 0x4508, symBinAddr: 0x10000F140, symSize: 0x48 }
  - { offsetInCU: 0x3010C, offset: 0x46DC2, size: 0x8, addend: 0x0, symName: __ZNSt3__120dynamic_pointer_castB8ue170006I7ASTNode12VariableNodeEENS_10shared_ptrIT_EEONS3_IT0_EE, symObjAddr: 0x4618, symBinAddr: 0x10000F250, symSize: 0x64 }
  - { offsetInCU: 0x3015B, offset: 0x46E11, size: 0x8, addend: 0x0, symName: __ZNSt3__111make_sharedB8ue170006I12VariableNodeJRNS_10shared_ptrI17VariableContainerEERNS_12basic_stringIcNS_11char_traitsIcEENS_9allocatorIcEEEEEvEENS2_IT_EEDpOT0_, symObjAddr: 0x467C, symBinAddr: 0x10000F2B4, symSize: 0x48 }
  - { offsetInCU: 0x303CE, offset: 0x47084, size: 0x8, addend: 0x0, symName: __ZNSt3__120dynamic_pointer_castB8ue170006I7ASTNode17VariableArrayNodeEENS_10shared_ptrIT_EEONS3_IT0_EE, symObjAddr: 0x482C, symBinAddr: 0x10000F464, symSize: 0x64 }
  - { offsetInCU: 0x3041D, offset: 0x470D3, size: 0x8, addend: 0x0, symName: __ZNSt3__111make_sharedB8ue170006I17VariableArrayNodeJRNS_10shared_ptrI17VariableContainerEERNS_12basic_stringIcNS_11char_traitsIcEENS_9allocatorIcEEEERiEvEENS2_IT_EEDpOT0_, symObjAddr: 0x4890, symBinAddr: 0x10000F4C8, symSize: 0x50 }
  - { offsetInCU: 0x306A4, offset: 0x4735A, size: 0x8, addend: 0x0, symName: __ZNSt3__120dynamic_pointer_castB8ue170006I7ASTNode18TypeConversionNodeEENS_10shared_ptrIT_EEONS3_IT0_EE, symObjAddr: 0x490C, symBinAddr: 0x10000F544, symSize: 0x64 }
  - { offsetInCU: 0x306F3, offset: 0x473A9, size: 0x8, addend: 0x0, symName: __ZNSt3__111make_sharedB8ue170006I18TypeConversionNodeJRNS_10shared_ptrI17VariableContainerEERNS_12basic_stringIcNS_11char_traitsIcEENS_9allocatorIcEEEE4TypeEvEENS2_IT_EEDpOT0_, symObjAddr: 0x4970, symBinAddr: 0x10000F5A8, symSize: 0x50 }
  - { offsetInCU: 0x3097A, offset: 0x47630, size: 0x8, addend: 0x0, symName: __ZNSt3__120dynamic_pointer_castB8ue170006I7ASTNode30FunctionVariableDefinitionNodeEENS_10shared_ptrIT_EEONS3_IT0_EE, symObjAddr: 0x4AA4, symBinAddr: 0x10000F6DC, symSize: 0x64 }
  - { offsetInCU: 0x309C9, offset: 0x4767F, size: 0x8, addend: 0x0, symName: __ZNSt3__111make_sharedB8ue170006I30FunctionVariableDefinitionNodeJRNS_10shared_ptrI17VariableContainerEERNS_12basic_stringIcNS_11char_traitsIcEENS_9allocatorIcEEEEEvEENS2_IT_EEDpOT0_, symObjAddr: 0x4B08, symBinAddr: 0x10000F740, symSize: 0x48 }
  - { offsetInCU: 0x30A20, offset: 0x476D6, size: 0x8, addend: 0x0, symName: __ZNSt3__120dynamic_pointer_castB8ue170006I7ASTNode17FunctionStartNodeEENS_10shared_ptrIT_EEONS3_IT0_EE, symObjAddr: 0x4C70, symBinAddr: 0x10000F8A8, symSize: 0x64 }
  - { offsetInCU: 0x30A6F, offset: 0x47725, size: 0x8, addend: 0x0, symName: __ZNSt3__111make_sharedB8ue170006I17FunctionStartNodeJRNS_10shared_ptrI17VariableContainerEERNS_12basic_stringIcNS_11char_traitsIcEENS_9allocatorIcEEEE4TypeEvEENS2_IT_EEDpOT0_, symObjAddr: 0x4CD4, symBinAddr: 0x10000F90C, symSize: 0x50 }
  - { offsetInCU: 0x30ADA, offset: 0x47790, size: 0x8, addend: 0x0, symName: __ZNSt3__120dynamic_pointer_castB8ue170006I7ASTNode22FunctionDefinitionNodeEENS_10shared_ptrIT_EEONS3_IT0_EE, symObjAddr: 0x4D50, symBinAddr: 0x10000F988, symSize: 0x64 }
  - { offsetInCU: 0x30B29, offset: 0x477DF, size: 0x8, addend: 0x0, symName: __ZNSt3__111make_sharedB8ue170006I22FunctionDefinitionNodeJRNS_10shared_ptrI17VariableContainerEERNS_12basic_stringIcNS_11char_traitsIcEENS_9allocatorIcEEEERNS2_I7ASTNodeEEEvEENS2_IT_EEDpOT0_, symObjAddr: 0x4DB4, symBinAddr: 0x10000F9EC, symSize: 0x50 }
  - { offsetInCU: 0x30DB0, offset: 0x47A66, size: 0x8, addend: 0x0, symName: __ZNSt3__120dynamic_pointer_castB8ue170006I7ASTNode16FunctionCallNodeEENS_10shared_ptrIT_EEONS3_IT0_EE, symObjAddr: 0x4F0C, symBinAddr: 0x10000FB44, symSize: 0x64 }
  - { offsetInCU: 0x30DFF, offset: 0x47AB5, size: 0x8, addend: 0x0, symName: __ZNSt3__111make_sharedB8ue170006I16FunctionCallNodeJRNS_10shared_ptrI17VariableContainerEERNS_12basic_stringIcNS_11char_traitsIcEENS_9allocatorIcEEEEEvEENS2_IT_EEDpOT0_, symObjAddr: 0x4F70, symBinAddr: 0x10000FBA8, symSize: 0x48 }
  - { offsetInCU: 0x31072, offset: 0x47D28, size: 0x8, addend: 0x0, symName: __ZNSt3__120dynamic_pointer_castB8ue170006I7ASTNode9CycleNodeEENS_10shared_ptrIT_EEONS3_IT0_EE, symObjAddr: 0x4FE4, symBinAddr: 0x10000FC1C, symSize: 0x64 }
  - { offsetInCU: 0x310C1, offset: 0x47D77, size: 0x8, addend: 0x0, symName: __ZNSt3__111make_sharedB8ue170006I9CycleNodeJRNS_10shared_ptrI7ASTNodeEES5_S5_EvEENS2_IT_EEDpOT0_, symObjAddr: 0x5048, symBinAddr: 0x10000FC80, symSize: 0x50 }
  - { offsetInCU: 0x31348, offset: 0x47FFE, size: 0x8, addend: 0x0, symName: __ZNSt3__120dynamic_pointer_castB8ue170006I7ASTNode18FunctionReturnNodeEENS_10shared_ptrIT_EEONS3_IT0_EE, symObjAddr: 0x50C4, symBinAddr: 0x10000FCFC, symSize: 0x64 }
  - { offsetInCU: 0x31397, offset: 0x4804D, size: 0x8, addend: 0x0, symName: __ZNSt3__111make_sharedB8ue170006I18FunctionReturnNodeJEvEENS_10shared_ptrIT_EEDpOT0_, symObjAddr: 0x5128, symBinAddr: 0x10000FD60, symSize: 0x38 }
  - { offsetInCU: 0x315E1, offset: 0x48297, size: 0x8, addend: 0x0, symName: __ZNSt3__120dynamic_pointer_castB8ue170006I7ASTNode22VariableDefinitionNodeEENS_10shared_ptrIT_EEONS3_IT0_EE, symObjAddr: 0x518C, symBinAddr: 0x10000FDC4, symSize: 0x64 }
  - { offsetInCU: 0x31630, offset: 0x482E6, size: 0x8, addend: 0x0, symName: __ZNSt3__111make_sharedB8ue170006I22VariableDefinitionNodeJRNS_10shared_ptrI17VariableContainerEENS_12basic_stringIcNS_11char_traitsIcEENS_9allocatorIcEEEE4TypeEvEENS2_IT_EEDpOT0_, symObjAddr: 0x51F0, symBinAddr: 0x10000FE28, symSize: 0x50 }
  - { offsetInCU: 0x3169B, offset: 0x48351, size: 0x8, addend: 0x0, symName: __ZNSt3__120dynamic_pointer_castB8ue170006I7ASTNode16DefaultValueNodeEENS_10shared_ptrIT_EEONS3_IT0_EE, symObjAddr: 0x526C, symBinAddr: 0x10000FEA4, symSize: 0x64 }
  - { offsetInCU: 0x316EA, offset: 0x483A0, size: 0x8, addend: 0x0, symName: __ZNSt3__111make_sharedB8ue170006I16DefaultValueNodeJ4TypeEvEENS_10shared_ptrIT_EEDpOT0_, symObjAddr: 0x52D0, symBinAddr: 0x10000FF08, symSize: 0x40 }
  - { offsetInCU: 0x31949, offset: 0x485FF, size: 0x8, addend: 0x0, symName: __ZNSt3__111make_sharedB8ue170006I16DefaultValueNodeJR4TypeEvEENS_10shared_ptrIT_EEDpOT0_, symObjAddr: 0x5430, symBinAddr: 0x100010068, symSize: 0x40 }
  - { offsetInCU: 0x3198C, offset: 0x48642, size: 0x8, addend: 0x0, symName: __ZNSt3__120dynamic_pointer_castB8ue170006I7ASTNode9EqualNodeEENS_10shared_ptrIT_EEONS3_IT0_EE, symObjAddr: 0x5470, symBinAddr: 0x1000100A8, symSize: 0x64 }
  - { offsetInCU: 0x319DB, offset: 0x48691, size: 0x8, addend: 0x0, symName: __ZNSt3__111make_sharedB8ue170006I9EqualNodeJRNS_10shared_ptrI17VariableContainerEERNS_12basic_stringIcNS_11char_traitsIcEENS_9allocatorIcEEEEEvEENS2_IT_EEDpOT0_, symObjAddr: 0x54D4, symBinAddr: 0x10001010C, symSize: 0x48 }
  - { offsetInCU: 0x31C4E, offset: 0x48904, size: 0x8, addend: 0x0, symName: __ZNSt3__120dynamic_pointer_castB8ue170006I7ASTNode14EqualArrayNodeEENS_10shared_ptrIT_EEONS3_IT0_EE, symObjAddr: 0x5548, symBinAddr: 0x100010180, symSize: 0x64 }
  - { offsetInCU: 0x31C9D, offset: 0x48953, size: 0x8, addend: 0x0, symName: __ZNSt3__111make_sharedB8ue170006I14EqualArrayNodeJRNS_10shared_ptrI17VariableContainerEERNS_12basic_stringIcNS_11char_traitsIcEENS_9allocatorIcEEEEiEvEENS2_IT_EEDpOT0_, symObjAddr: 0x55AC, symBinAddr: 0x1000101E4, symSize: 0x50 }
  - { offsetInCU: 0x31F24, offset: 0x48BDA, size: 0x8, addend: 0x0, symName: __ZNSt3__120dynamic_pointer_castB8ue170006I7ASTNode24FunctionCallOperatorNodeEENS_10shared_ptrIT_EEONS3_IT0_EE, symObjAddr: 0x5628, symBinAddr: 0x100010260, symSize: 0x64 }
  - { offsetInCU: 0x31F73, offset: 0x48C29, size: 0x8, addend: 0x0, symName: __ZNSt3__111make_sharedB8ue170006I24FunctionCallOperatorNodeJRNS_10shared_ptrI17VariableContainerEERNS_12basic_stringIcNS_11char_traitsIcEENS_9allocatorIcEEEESC_EvEENS2_IT_EEDpOT0_, symObjAddr: 0x568C, symBinAddr: 0x1000102C4, symSize: 0x50 }
  - { offsetInCU: 0x321FA, offset: 0x48EB0, size: 0x8, addend: 0x0, symName: __ZNSt3__120dynamic_pointer_castB8ue170006I7ASTNode14ArithmeticNodeEENS_10shared_ptrIT_EEONS3_IT0_EE, symObjAddr: 0x5708, symBinAddr: 0x100010340, symSize: 0x64 }
  - { offsetInCU: 0x32249, offset: 0x48EFF, size: 0x8, addend: 0x0, symName: __ZNSt3__111make_sharedB8ue170006I14ArithmeticNodeJRNS_10shared_ptrI17VariableContainerEE9OperationEvEENS2_IT_EEDpOT0_, symObjAddr: 0x576C, symBinAddr: 0x1000103A4, symSize: 0x48 }
  - { offsetInCU: 0x324BC, offset: 0x49172, size: 0x8, addend: 0x0, symName: __ZNSt3__120dynamic_pointer_castB8ue170006I7ASTNode21LogicalArithmeticNodeEENS_10shared_ptrIT_EEONS3_IT0_EE, symObjAddr: 0x57E0, symBinAddr: 0x100010418, symSize: 0x64 }
  - { offsetInCU: 0x3250B, offset: 0x491C1, size: 0x8, addend: 0x0, symName: __ZNSt3__111make_sharedB8ue170006I21LogicalArithmeticNodeJRNS_10shared_ptrI17VariableContainerEE16LogicalOperatorsEvEENS2_IT_EEDpOT0_, symObjAddr: 0x5844, symBinAddr: 0x10001047C, symSize: 0x48 }
  - { offsetInCU: 0x3277E, offset: 0x49434, size: 0x8, addend: 0x0, symName: __ZNSt3__111make_sharedB8ue170006I21LogicalArithmeticNodeJRNS_10shared_ptrI17VariableContainerEERNS_12basic_stringIcNS_11char_traitsIcEENS_9allocatorIcEEEEEvEENS2_IT_EEDpOT0_, symObjAddr: 0x58B8, symBinAddr: 0x1000104F0, symSize: 0x48 }
  - { offsetInCU: 0x327D5, offset: 0x4948B, size: 0x8, addend: 0x0, symName: __ZNSt3__111make_sharedB8ue170006I27VariableArrayDefinitionNodeJRNS_10shared_ptrI17VariableContainerEERNS_12basic_stringIcNS_11char_traitsIcEENS_9allocatorIcEEEE4TypeEvEENS2_IT_EEDpOT0_, symObjAddr: 0x5900, symBinAddr: 0x100010538, symSize: 0x50 }
  - { offsetInCU: 0x32840, offset: 0x494F6, size: 0x8, addend: 0x0, symName: __ZNSt3__112__to_addressB8ue170006INS_10shared_ptrI7ASTNodeEEEEPT_S5_, symObjAddr: 0x6270, symBinAddr: 0x100010C7C, symSize: 0x14 }
  - { offsetInCU: 0x3289A, offset: 0x49550, size: 0x8, addend: 0x0, symName: __ZNSt3__112construct_atB8ue170006INS_10shared_ptrI7ASTNodeEEJRKS3_EPS3_EEPT_S8_DpOT0_, symObjAddr: 0x62F4, symBinAddr: 0x100010D00, symSize: 0x3C }
  - { offsetInCU: 0x3290A, offset: 0x495C0, size: 0x8, addend: 0x0, symName: __ZNSt3__134__libcpp_atomic_refcount_incrementB8ue170006IlEET_RS1_, symObjAddr: 0x6420, symBinAddr: 0x100010E2C, symSize: 0x30 }
  - { offsetInCU: 0x3293F, offset: 0x495F5, size: 0x8, addend: 0x0, symName: __ZNSt3__13maxB8ue170006ImEERKT_S3_S3_, symObjAddr: 0x67C0, symBinAddr: 0x1000111CC, symSize: 0x2C }
  - { offsetInCU: 0x329F8, offset: 0x496AE, size: 0x8, addend: 0x0, symName: __ZNSt3__13maxB8ue170006ImNS_6__lessIvvEEEERKT_S5_S5_T0_, symObjAddr: 0x6AA4, symBinAddr: 0x1000112E0, symSize: 0x54 }
  - { offsetInCU: 0x32A52, offset: 0x49708, size: 0x8, addend: 0x0, symName: __ZNSt3__119__allocate_at_leastB8ue170006INS_9allocatorINS_10shared_ptrI7ASTNodeEEEEEENS_19__allocation_resultINS_16allocator_traitsIT_E7pointerEEERS8_m, symObjAddr: 0x6C08, symBinAddr: 0x100011444, symSize: 0x40 }
  - { offsetInCU: 0x32A95, offset: 0x4974B, size: 0x8, addend: 0x0, symName: __ZNSt3__142__uninitialized_allocator_move_if_noexceptB8ue170006INS_9allocatorINS_10shared_ptrI7ASTNodeEEEENS_16reverse_iteratorIPS4_EES8_S8_EET2_RT_T0_T1_S9_, symObjAddr: 0x6F94, symBinAddr: 0x1000116CC, symSize: 0x12C }
  - { offsetInCU: 0x32B35, offset: 0x497EB, size: 0x8, addend: 0x0, symName: __ZNSt3__14swapB8ue170006IPNS_10shared_ptrI7ASTNodeEEEENS_9enable_ifIXaasr21is_move_constructibleIT_EE5valuesr18is_move_assignableIS6_EE5valueEvE4typeERS6_S9_, symObjAddr: 0x710C, symBinAddr: 0x100011844, symSize: 0x3C }
  - { offsetInCU: 0x32B86, offset: 0x4983C, size: 0x8, addend: 0x0, symName: __ZNSt3__122__make_exception_guardB8ue170006INS_29_AllocatorDestroyRangeReverseINS_9allocatorINS_10shared_ptrI7ASTNodeEEEENS_16reverse_iteratorIPS5_EEEEEENS_28__exception_guard_exceptionsIT_EESC_, symObjAddr: 0x723C, symBinAddr: 0x100011974, symSize: 0x4C }
  - { offsetInCU: 0x32BBC, offset: 0x49872, size: 0x8, addend: 0x0, symName: __ZNSt3__1neB8ue170006IPNS_10shared_ptrI7ASTNodeEES4_EEbRKNS_16reverse_iteratorIT_EERKNS5_IT0_EE, symObjAddr: 0x72CC, symBinAddr: 0x100011A04, symSize: 0x48 }
  - { offsetInCU: 0x32C08, offset: 0x498BE, size: 0x8, addend: 0x0, symName: __ZNSt3__112__to_addressB8ue170006INS_16reverse_iteratorIPNS_10shared_ptrI7ASTNodeEEEEvEEu7__decayIDTclsr19__to_address_helperIT_EE6__callclsr3stdE7declvalIRKS7_EEEEES9_, symObjAddr: 0x7344, symBinAddr: 0x100011A7C, symSize: 0x24 }
  - { offsetInCU: 0x32C3E, offset: 0x498F4, size: 0x8, addend: 0x0, symName: __ZNSt3__112construct_atB8ue170006INS_10shared_ptrI7ASTNodeEEJS3_EPS3_EEPT_S6_DpOT0_, symObjAddr: 0x7494, symBinAddr: 0x100011BCC, symSize: 0x3C }
  - { offsetInCU: 0x32CD7, offset: 0x4998D, size: 0x8, addend: 0x0, symName: __ZNSt3__14prevB8ue170006IPNS_10shared_ptrI7ASTNodeEEEENS_9enable_ifIXsr29__has_input_iterator_categoryIT_EE5valueES6_E4typeES6_NS_15iterator_traitsIS6_E15difference_typeE, symObjAddr: 0x75A8, symBinAddr: 0x100011CE0, symSize: 0x3C }
  - { offsetInCU: 0x32D1B, offset: 0x499D1, size: 0x8, addend: 0x0, symName: __ZNSt3__19__advanceB8ue170006IPNS_10shared_ptrI7ASTNodeEEEEvRT_NS_15iterator_traitsIS5_E15difference_typeENS_26random_access_iterator_tagE, symObjAddr: 0x7630, symBinAddr: 0x100011D54, symSize: 0x28 }
  - { offsetInCU: 0x32D63, offset: 0x49A19, size: 0x8, addend: 0x0, symName: __ZNSt3__119__allocator_destroyB8ue170006INS_9allocatorINS_10shared_ptrI7ASTNodeEEEENS_16reverse_iteratorINS6_IPS4_EEEES9_EEvRT_T0_T1_, symObjAddr: 0x775C, symBinAddr: 0x100011E80, symSize: 0x70 }
  - { offsetInCU: 0x32DC8, offset: 0x49A7E, size: 0x8, addend: 0x0, symName: __ZNSt3__1neB8ue170006INS_16reverse_iteratorIPNS_10shared_ptrI7ASTNodeEEEES6_EEbRKNS1_IT_EERKNS1_IT0_EE, symObjAddr: 0x7808, symBinAddr: 0x100011F2C, symSize: 0x60 }
  - { offsetInCU: 0x32E14, offset: 0x49ACA, size: 0x8, addend: 0x0, symName: __ZNSt3__112__to_addressB8ue170006INS_16reverse_iteratorINS1_IPNS_10shared_ptrI7ASTNodeEEEEEEvEEu7__decayIDTclsr19__to_address_helperIT_EE6__callclsr3stdE7declvalIRKS8_EEEEESA_, symObjAddr: 0x7890, symBinAddr: 0x100011FB4, symSize: 0x24 }
  - { offsetInCU: 0x32E4A, offset: 0x49B00, size: 0x8, addend: 0x0, symName: __ZNSt3__110destroy_atB8ue170006INS_10shared_ptrI7ASTNodeEELi0EEEvPT_, symObjAddr: 0x7908, symBinAddr: 0x10001202C, symSize: 0x24 }
  - { offsetInCU: 0x32E81, offset: 0x49B37, size: 0x8, addend: 0x0, symName: __ZNSt3__112__destroy_atB8ue170006INS_10shared_ptrI7ASTNodeEELi0EEEvPT_, symObjAddr: 0x792C, symBinAddr: 0x100012050, symSize: 0x24 }
  - { offsetInCU: 0x32EE1, offset: 0x49B97, size: 0x8, addend: 0x0, symName: __ZNSt3__14prevB8ue170006INS_16reverse_iteratorIPNS_10shared_ptrI7ASTNodeEEEEEENS_9enable_ifIXsr29__has_input_iterator_categoryIT_EE5valueES8_E4typeES8_NS_15iterator_traitsIS8_E15difference_typeE, symObjAddr: 0x79D4, symBinAddr: 0x1000120F8, symSize: 0x4C }
  - { offsetInCU: 0x32F24, offset: 0x49BDA, size: 0x8, addend: 0x0, symName: __ZNSt3__19__advanceB8ue170006INS_16reverse_iteratorIPNS_10shared_ptrI7ASTNodeEEEEEEvRT_NS_15iterator_traitsIS7_E15difference_typeENS_26random_access_iterator_tagE, symObjAddr: 0x7A58, symBinAddr: 0x10001217C, symSize: 0x2C }
  - { offsetInCU: 0x32F6D, offset: 0x49C23, size: 0x8, addend: 0x0, symName: __ZNSt3__1neB8ue170006IPNS_3setINS_12basic_stringIcNS_11char_traitsIcEENS_9allocatorIcEEEENS_4lessIS7_EENS5_IS7_EEEEEEbRKNS_11__wrap_iterIT_EESH_, symObjAddr: 0x7EF0, symBinAddr: 0x10001250C, symSize: 0x34 }
  - { offsetInCU: 0x32FB0, offset: 0x49C66, size: 0x8, addend: 0x0, symName: __ZNSt3__1neB8ue170006ERKNS_21__tree_const_iteratorINS_12basic_stringIcNS_11char_traitsIcEENS_9allocatorIcEEEEPNS_11__tree_nodeIS6_PvEElEESD_, symObjAddr: 0x7FAC, symBinAddr: 0x1000125C8, symSize: 0x34 }
  - { offsetInCU: 0x32FED, offset: 0x49CA3, size: 0x8, addend: 0x0, symName: __ZNSt3__1eqB8ue170006IPNS_3setINS_12basic_stringIcNS_11char_traitsIcEENS_9allocatorIcEEEENS_4lessIS7_EENS5_IS7_EEEEEEbRKNS_11__wrap_iterIT_EESH_, symObjAddr: 0x8130, symBinAddr: 0x100012700, symSize: 0x48 }
  - { offsetInCU: 0x33064, offset: 0x49D1A, size: 0x8, addend: 0x0, symName: __ZNSt3__1eqB8ue170006ERKNS_21__tree_const_iteratorINS_12basic_stringIcNS_11char_traitsIcEENS_9allocatorIcEEEEPNS_11__tree_nodeIS6_PvEElEESD_, symObjAddr: 0x832C, symBinAddr: 0x1000128FC, symSize: 0x30 }
  - { offsetInCU: 0x330A0, offset: 0x49D56, size: 0x8, addend: 0x0, symName: __ZNSt3__116__tree_next_iterB8ue170006IPNS_15__tree_end_nodeIPNS_16__tree_node_baseIPvEEEES5_EET_T0_, symObjAddr: 0x8EA8, symBinAddr: 0x100012944, symSize: 0x90 }
  - { offsetInCU: 0x330DE, offset: 0x49D94, size: 0x8, addend: 0x0, symName: __ZNSt3__110__tree_minB8ue170006IPNS_16__tree_node_baseIPvEEEET_S5_, symObjAddr: 0x8F38, symBinAddr: 0x1000129D4, symSize: 0x40 }
  - { offsetInCU: 0x33113, offset: 0x49DC9, size: 0x8, addend: 0x0, symName: __ZNSt3__120__tree_is_left_childB8ue170006IPNS_16__tree_node_baseIPvEEEEbT_, symObjAddr: 0x8F78, symBinAddr: 0x100012A14, symSize: 0x2C }
  - { offsetInCU: 0x33148, offset: 0x49DFE, size: 0x8, addend: 0x0, symName: __ZNSt3__1eqB8ue170006ERKNS_19__hash_map_iteratorINS_15__hash_iteratorIPNS_11__hash_nodeINS_17__hash_value_typeINS_12basic_stringIcNS_11char_traitsIcEENS_9allocatorIcEEEENS_10shared_ptrI8VariableEEEEPvEEEEEESK_, symObjAddr: 0x9150, symBinAddr: 0x100012BEC, symSize: 0x30 }
  - { offsetInCU: 0x33185, offset: 0x49E3B, size: 0x8, addend: 0x0, symName: __ZNSt3__18any_castB8ue170006IiEET_RNS_3anyE, symObjAddr: 0x9318, symBinAddr: 0x100012DB4, symSize: 0x48 }
  - { offsetInCU: 0x331CB, offset: 0x49E81, size: 0x8, addend: 0x0, symName: __ZNSt3__18any_castB8ue170006IbEET_RNS_3anyE, symObjAddr: 0x9360, symBinAddr: 0x100012DFC, symSize: 0x4C }
  - { offsetInCU: 0x33211, offset: 0x49EC7, size: 0x8, addend: 0x0, symName: __ZNSt3__18any_castB8ue170006INS_12basic_stringIcNS_11char_traitsIcEENS_9allocatorIcEEEEEET_RNS_3anyE, symObjAddr: 0x93AC, symBinAddr: 0x100012E48, symSize: 0x54 }
  - { offsetInCU: 0x33257, offset: 0x49F0D, size: 0x8, addend: 0x0, symName: __ZNSt3__18any_castB8ue170006INS_6vectorIiNS_9allocatorIiEEEEEET_RNS_3anyE, symObjAddr: 0x9400, symBinAddr: 0x100012E9C, symSize: 0x54 }
  - { offsetInCU: 0x3329D, offset: 0x49F53, size: 0x8, addend: 0x0, symName: __ZNSt3__1neB8ue170006IPiEEbRKNS_11__wrap_iterIT_EES6_, symObjAddr: 0x94B4, symBinAddr: 0x100012F50, symSize: 0x34 }
  - { offsetInCU: 0x332E0, offset: 0x49F96, size: 0x8, addend: 0x0, symName: __ZNSt3__18any_castB8ue170006INS_6vectorIbNS_9allocatorIbEEEEEET_RNS_3anyE, symObjAddr: 0x954C, symBinAddr: 0x100012FE8, symSize: 0x54 }
  - { offsetInCU: 0x33326, offset: 0x49FDC, size: 0x8, addend: 0x0, symName: __ZNSt3__1neB8ue170006ERKNS_14__bit_iteratorINS_6vectorIbNS_9allocatorIbEEEELb0ELm0EEES7_, symObjAddr: 0x9600, symBinAddr: 0x10001309C, symSize: 0x34 }
  - { offsetInCU: 0x33363, offset: 0x4A019, size: 0x8, addend: 0x0, symName: __ZNSt3__18any_castB8ue170006INS_6vectorINS_12basic_stringIcNS_11char_traitsIcEENS_9allocatorIcEEEENS5_IS7_EEEEEET_RNS_3anyE, symObjAddr: 0x972C, symBinAddr: 0x1000131C8, symSize: 0x54 }
  - { offsetInCU: 0x333A9, offset: 0x4A05F, size: 0x8, addend: 0x0, symName: __ZNSt3__1neB8ue170006IPNS_12basic_stringIcNS_11char_traitsIcEENS_9allocatorIcEEEEEEbRKNS_11__wrap_iterIT_EESC_, symObjAddr: 0x97E0, symBinAddr: 0x10001327C, symSize: 0x34 }
  - { offsetInCU: 0x333EC, offset: 0x4A0A2, size: 0x8, addend: 0x0, symName: __ZNSt3__1eqB8ue170006ERKNS_19__hash_map_iteratorINS_15__hash_iteratorIPNS_11__hash_nodeINS_17__hash_value_typeINS_12basic_stringIcNS_11char_traitsIcEENS_9allocatorIcEEEENS_10shared_ptrI7ASTNodeEEEEPvEEEEEESK_, symObjAddr: 0x9968, symBinAddr: 0x100013404, symSize: 0x30 }
  - { offsetInCU: 0x3342A, offset: 0x4A0E0, size: 0x8, addend: 0x0, symName: __ZNSt3__1eqB8ue170006ERKNS_15__hash_iteratorIPNS_11__hash_nodeINS_17__hash_value_typeINS_12basic_stringIcNS_11char_traitsIcEENS_9allocatorIcEEEENS_10shared_ptrI8VariableEEEEPvEEEESI_, symObjAddr: 0x9B30, symBinAddr: 0x1000135CC, symSize: 0x30 }
  - { offsetInCU: 0x334CC, offset: 0x4A182, size: 0x8, addend: 0x0, symName: __ZNSt3__17launderB8ue170006INS_4pairIKNS_12basic_stringIcNS_11char_traitsIcEENS_9allocatorIcEEEENS_10shared_ptrI8VariableEEEEEEPT_SE_, symObjAddr: 0x9C00, symBinAddr: 0x10001369C, symSize: 0x24 }
  - { offsetInCU: 0x33504, offset: 0x4A1BA, size: 0x8, addend: 0x0, symName: __ZNSt3__19__launderB8ue170006INS_4pairIKNS_12basic_stringIcNS_11char_traitsIcEENS_9allocatorIcEEEENS_10shared_ptrI8VariableEEEEEEPT_SE_, symObjAddr: 0x9C24, symBinAddr: 0x1000136C0, symSize: 0x14 }
  - { offsetInCU: 0x3353A, offset: 0x4A1F0, size: 0x8, addend: 0x0, symName: __ZNSt3__18any_castB8ue170006IiEEu13__add_pointerIT_EPNS_3anyE, symObjAddr: 0x9CA0, symBinAddr: 0x10001373C, symSize: 0xA8 }
  - { offsetInCU: 0x3358E, offset: 0x4A244, size: 0x8, addend: 0x0, symName: __ZNSt3__120__throw_bad_any_castB8ue170006Ev, symObjAddr: 0x9D48, symBinAddr: 0x1000137E4, symSize: 0x38 }
  - { offsetInCU: 0x335A7, offset: 0x4A25D, size: 0x8, addend: 0x0, symName: __ZNSt3__122__pointer_or_func_castB8ue170006IPiEET_PvNS_17integral_constantIbLb0EEE, symObjAddr: 0x9D8C, symBinAddr: 0x100013828, symSize: 0x14 }
  - { offsetInCU: 0x335E9, offset: 0x4A29F, size: 0x8, addend: 0x0, symName: __ZNSt3__18any_castB8ue170006IbEEu13__add_pointerIT_EPNS_3anyE, symObjAddr: 0x9E68, symBinAddr: 0x100013904, symSize: 0xA8 }
  - { offsetInCU: 0x3363D, offset: 0x4A2F3, size: 0x8, addend: 0x0, symName: __ZNSt3__122__pointer_or_func_castB8ue170006IPbEET_PvNS_17integral_constantIbLb0EEE, symObjAddr: 0x9F1C, symBinAddr: 0x1000139B8, symSize: 0x14 }
  - { offsetInCU: 0x3367F, offset: 0x4A335, size: 0x8, addend: 0x0, symName: __ZNSt3__18any_castB8ue170006INS_12basic_stringIcNS_11char_traitsIcEENS_9allocatorIcEEEEEEu13__add_pointerIT_EPNS_3anyE, symObjAddr: 0x9F30, symBinAddr: 0x1000139CC, symSize: 0xA8 }
  - { offsetInCU: 0x336D3, offset: 0x4A389, size: 0x8, addend: 0x0, symName: __ZNSt3__122__pointer_or_func_castB8ue170006IPNS_12basic_stringIcNS_11char_traitsIcEENS_9allocatorIcEEEEEET_PvNS_17integral_constantIbLb0EEE, symObjAddr: 0x9FE4, symBinAddr: 0x100013A80, symSize: 0x14 }
  - { offsetInCU: 0x33715, offset: 0x4A3CB, size: 0x8, addend: 0x0, symName: __ZNSt3__18any_castB8ue170006INS_6vectorIiNS_9allocatorIiEEEEEEu13__add_pointerIT_EPNS_3anyE, symObjAddr: 0x9FF8, symBinAddr: 0x100013A94, symSize: 0xA8 }
  - { offsetInCU: 0x33769, offset: 0x4A41F, size: 0x8, addend: 0x0, symName: __ZNSt3__122__pointer_or_func_castB8ue170006IPNS_6vectorIiNS_9allocatorIiEEEEEET_PvNS_17integral_constantIbLb0EEE, symObjAddr: 0xA0E0, symBinAddr: 0x100013B7C, symSize: 0x14 }
  - { offsetInCU: 0x337AB, offset: 0x4A461, size: 0x8, addend: 0x0, symName: __ZNSt3__122__make_exception_guardB8ue170006INS_6vectorIiNS_9allocatorIiEEE16__destroy_vectorEEENS_28__exception_guard_exceptionsIT_EES7_, symObjAddr: 0xA38C, symBinAddr: 0x100013E28, symSize: 0x40 }
  - { offsetInCU: 0x337E0, offset: 0x4A496, size: 0x8, addend: 0x0, symName: __ZNSt3__119__allocate_at_leastB8ue170006INS_9allocatorIiEEEENS_19__allocation_resultINS_16allocator_traitsIT_E7pointerEEERS5_m, symObjAddr: 0xA674, symBinAddr: 0x100014110, symSize: 0x40 }
  - { offsetInCU: 0x33823, offset: 0x4A4D9, size: 0x8, addend: 0x0, symName: __ZNSt3__112__to_addressB8ue170006IiEEPT_S2_, symObjAddr: 0xA928, symBinAddr: 0x1000143C4, symSize: 0x14 }
  - { offsetInCU: 0x33858, offset: 0x4A50E, size: 0x8, addend: 0x0, symName: __ZNSt3__130__uninitialized_allocator_copyB8ue170006INS_9allocatorIiEEPiS3_S3_EET2_RT_T0_T1_S4_, symObjAddr: 0xA9D8, symBinAddr: 0x100014474, symSize: 0x80 }
  - { offsetInCU: 0x338F5, offset: 0x4A5AB, size: 0x8, addend: 0x0, symName: __ZNSt3__114__unwrap_rangeB8ue170006IPiS1_EEDaT_T0_, symObjAddr: 0xAAC8, symBinAddr: 0x100014564, symSize: 0x3C }
  - { offsetInCU: 0x33941, offset: 0x4A5F7, size: 0x8, addend: 0x0, symName: __ZNSt3__135__uninitialized_allocator_copy_implB8ue170006INS_9allocatorIiEEiiiLPv0EEEPT2_RT_PT0_S9_S5_, symObjAddr: 0xAB04, symBinAddr: 0x1000145A0, symSize: 0x38 }
  - { offsetInCU: 0x339C3, offset: 0x4A679, size: 0x8, addend: 0x0, symName: __ZNSt3__113__unwrap_iterB8ue170006IPiNS_18__unwrap_iter_implIS1_Lb1EEELi0EEEDTclsrT0_8__unwrapclsr3stdE7declvalIT_EEEES5_, symObjAddr: 0xAB3C, symBinAddr: 0x1000145D8, symSize: 0x24 }
  - { offsetInCU: 0x33A07, offset: 0x4A6BD, size: 0x8, addend: 0x0, symName: __ZNSt3__113__rewrap_iterB8ue170006IPiS1_NS_18__unwrap_iter_implIS1_Lb1EEEEET_S4_T0_, symObjAddr: 0xAB60, symBinAddr: 0x1000145FC, symSize: 0x3C }
  - { offsetInCU: 0x33BA7, offset: 0x4A85D, size: 0x8, addend: 0x0, symName: __ZNSt3__14copyB8ue170006IPiS1_EET0_T_S3_S2_, symObjAddr: 0xAC64, symBinAddr: 0x100014700, symSize: 0x40 }
  - { offsetInCU: 0x33C01, offset: 0x4A8B7, size: 0x8, addend: 0x0, symName: __ZNSt3__16__copyB8ue170006INS_17_ClassicAlgPolicyEPiS2_S2_EENS_4pairIT0_T2_EES4_T1_S5_, symObjAddr: 0xACA4, symBinAddr: 0x100014740, symSize: 0x44 }
  - { offsetInCU: 0x33C6D, offset: 0x4A923, size: 0x8, addend: 0x0, symName: __ZNSt3__123__dispatch_copy_or_moveB8ue170006INS_17_ClassicAlgPolicyENS_11__copy_loopIS1_EENS_14__copy_trivialEPiS5_S5_EENS_4pairIT2_T4_EES7_T3_S8_, symObjAddr: 0xACE8, symBinAddr: 0x100014784, symSize: 0x44 }
  - { offsetInCU: 0x33CEB, offset: 0x4A9A1, size: 0x8, addend: 0x0, symName: __ZNSt3__121__unwrap_and_dispatchB8ue170006INS_10__overloadINS_11__copy_loopINS_17_ClassicAlgPolicyEEENS_14__copy_trivialEEEPiS7_S7_Li0EEENS_4pairIT0_T2_EES9_T1_SA_, symObjAddr: 0xAD2C, symBinAddr: 0x1000147C8, symSize: 0xB4 }
  - { offsetInCU: 0x33E37, offset: 0x4AAED, size: 0x8, addend: 0x0, symName: __ZNSt3__19make_pairB8ue170006IPiS1_EENS_4pairINS_18__unwrap_ref_decayIT_E4typeENS3_IT0_E4typeEEEOS4_OS7_, symObjAddr: 0xAE28, symBinAddr: 0x1000148C4, symSize: 0x38 }
  - { offsetInCU: 0x33E86, offset: 0x4AB3C, size: 0x8, addend: 0x0, symName: __ZNSt3__114__rewrap_rangeB8ue170006IPiS1_S1_EET0_S2_T1_, symObjAddr: 0xAE60, symBinAddr: 0x1000148FC, symSize: 0x2C }
  - { offsetInCU: 0x33EDB, offset: 0x4AB91, size: 0x8, addend: 0x0, symName: __ZNSt3__119__copy_trivial_implB8ue170006IiiEENS_4pairIPT_PT0_EES3_S3_S5_, symObjAddr: 0xAE8C, symBinAddr: 0x100014928, symSize: 0x80 }
  - { offsetInCU: 0x33F43, offset: 0x4ABF9, size: 0x8, addend: 0x0, symName: __ZNSt3__119__constexpr_memmoveB8ue170006IiiLi0EEEPT_S2_PT0_NS_15__element_countE, symObjAddr: 0xAF0C, symBinAddr: 0x1000149A8, symSize: 0x64 }
  - { offsetInCU: 0x33FB1, offset: 0x4AC67, size: 0x8, addend: 0x0, symName: __ZNSt3__19make_pairB8ue170006IRPiS1_EENS_4pairINS_18__unwrap_ref_decayIT_E4typeENS4_IT0_E4typeEEEOS5_OS8_, symObjAddr: 0xAF70, symBinAddr: 0x100014A0C, symSize: 0x38 }
  - { offsetInCU: 0x34053, offset: 0x4AD09, size: 0x8, addend: 0x0, symName: __ZNSt3__110destroy_atB8ue170006IiLi0EEEvPT_, symObjAddr: 0xB380, symBinAddr: 0x100014E1C, symSize: 0x24 }
  - { offsetInCU: 0x3408B, offset: 0x4AD41, size: 0x8, addend: 0x0, symName: __ZNSt3__112__destroy_atB8ue170006IiLi0EEEvPT_, symObjAddr: 0xB3A4, symBinAddr: 0x100014E40, symSize: 0x10 }
  - { offsetInCU: 0x340C1, offset: 0x4AD77, size: 0x8, addend: 0x0, symName: __ZNSt3__1eqB8ue170006IPiEEbRKNS_11__wrap_iterIT_EES6_, symObjAddr: 0xB478, symBinAddr: 0x100014F14, symSize: 0x48 }
  - { offsetInCU: 0x34104, offset: 0x4ADBA, size: 0x8, addend: 0x0, symName: __ZNSt3__18any_castB8ue170006INS_6vectorIbNS_9allocatorIbEEEEEEu13__add_pointerIT_EPNS_3anyE, symObjAddr: 0xB518, symBinAddr: 0x100014FB4, symSize: 0xA8 }
  - { offsetInCU: 0x34158, offset: 0x4AE0E, size: 0x8, addend: 0x0, symName: __ZNSt3__122__pointer_or_func_castB8ue170006IPNS_6vectorIbNS_9allocatorIbEEEEEET_PvNS_17integral_constantIbLb0EEE, symObjAddr: 0xB600, symBinAddr: 0x10001509C, symSize: 0x14 }
  - { offsetInCU: 0x3419A, offset: 0x4AE50, size: 0x8, addend: 0x0, symName: __ZNSt3__119__allocate_at_leastB8ue170006INS_9allocatorImEEEENS_19__allocation_resultINS_16allocator_traitsIT_E7pointerEEERS5_m, symObjAddr: 0xBB00, symBinAddr: 0x10001559C, symSize: 0x40 }
  - { offsetInCU: 0x341DD, offset: 0x4AE93, size: 0x8, addend: 0x0, symName: __ZNSt3__16__copyB8ue170006INS_17_ClassicAlgPolicyENS_14__bit_iteratorINS_6vectorIbNS_9allocatorIbEEEELb1ELm0EEES7_NS2_IS6_Lb0ELm0EEEEENS_4pairIT0_T2_EESA_T1_SB_, symObjAddr: 0xBCBC, symBinAddr: 0x100015758, symSize: 0x7C }
  - { offsetInCU: 0x3424A, offset: 0x4AF00, size: 0x8, addend: 0x0, symName: __ZNSt3__123__dispatch_copy_or_moveB8ue170006INS_17_ClassicAlgPolicyENS_11__copy_loopIS1_EENS_14__copy_trivialENS_14__bit_iteratorINS_6vectorIbNS_9allocatorIbEEEELb1ELm0EEESA_NS5_IS9_Lb0ELm0EEEEENS_4pairIT2_T4_EESD_T3_SE_, symObjAddr: 0xBD9C, symBinAddr: 0x100015838, symSize: 0x7C }
  - { offsetInCU: 0x342C9, offset: 0x4AF7F, size: 0x8, addend: 0x0, symName: __ZNSt3__121__unwrap_and_dispatchB8ue170006INS_10__overloadINS_11__copy_loopINS_17_ClassicAlgPolicyEEENS_14__copy_trivialEEENS_14__bit_iteratorINS_6vectorIbNS_9allocatorIbEEEELb1ELm0EEESC_NS7_ISB_Lb0ELm0EEELi0EEENS_4pairIT0_T2_EESF_T1_SG_, symObjAddr: 0xBE4C, symBinAddr: 0x1000158E8, symSize: 0x150 }
  - { offsetInCU: 0x3435A, offset: 0x4B010, size: 0x8, addend: 0x0, symName: __ZNSt3__114__unwrap_rangeB8ue170006INS_14__bit_iteratorINS_6vectorIbNS_9allocatorIbEEEELb1ELm0EEES6_EEDaT_T0_, symObjAddr: 0xBF9C, symBinAddr: 0x100015A38, symSize: 0x4C }
  - { offsetInCU: 0x34553, offset: 0x4B209, size: 0x8, addend: 0x0, symName: __ZNSt3__113__unwrap_iterB8ue170006INS_14__bit_iteratorINS_6vectorIbNS_9allocatorIbEEEELb0ELm0EEENS_18__unwrap_iter_implIS6_Lb0EEELi0EEEDTclsrT0_8__unwrapclsr3stdE7declvalIT_EEEESA_, symObjAddr: 0xC0AC, symBinAddr: 0x100015B48, symSize: 0x44 }
  - { offsetInCU: 0x34598, offset: 0x4B24E, size: 0x8, addend: 0x0, symName: __ZNSt3__19make_pairB8ue170006INS_14__bit_iteratorINS_6vectorIbNS_9allocatorIbEEEELb1ELm0EEENS1_IS5_Lb0ELm0EEEEENS_4pairINS_18__unwrap_ref_decayIT_E4typeENS9_IT0_E4typeEEEOSA_OSD_, symObjAddr: 0xC0F0, symBinAddr: 0x100015B8C, symSize: 0x40 }
  - { offsetInCU: 0x345E7, offset: 0x4B29D, size: 0x8, addend: 0x0, symName: __ZNSt3__114__rewrap_rangeB8ue170006INS_14__bit_iteratorINS_6vectorIbNS_9allocatorIbEEEELb1ELm0EEES6_S6_EET0_S7_T1_, symObjAddr: 0xC130, symBinAddr: 0x100015BCC, symSize: 0x5C }
  - { offsetInCU: 0x3463C, offset: 0x4B2F2, size: 0x8, addend: 0x0, symName: __ZNSt3__113__rewrap_iterB8ue170006INS_14__bit_iteratorINS_6vectorIbNS_9allocatorIbEEEELb0ELm0EEES6_NS_18__unwrap_iter_implIS6_Lb0EEEEET_S9_T0_, symObjAddr: 0xC18C, symBinAddr: 0x100015C28, symSize: 0x74 }
  - { offsetInCU: 0x347AF, offset: 0x4B465, size: 0x8, addend: 0x0, symName: __ZNSt3__113__unwrap_iterB8ue170006INS_14__bit_iteratorINS_6vectorIbNS_9allocatorIbEEEELb1ELm0EEENS_18__unwrap_iter_implIS6_Lb0EEELi0EEEDTclsrT0_8__unwrapclsr3stdE7declvalIT_EEEESA_, symObjAddr: 0xC284, symBinAddr: 0x100015D20, symSize: 0x44 }
  - { offsetInCU: 0x3483B, offset: 0x4B4F1, size: 0x8, addend: 0x0, symName: __ZNSt3__1neB8ue170006ERKNS_14__bit_iteratorINS_6vectorIbNS_9allocatorIbEEEELb1ELm0EEES7_, symObjAddr: 0xC35C, symBinAddr: 0x100015DF8, symSize: 0x34 }
  - { offsetInCU: 0x34879, offset: 0x4B52F, size: 0x8, addend: 0x0, symName: __ZNSt3__1eqB8ue170006ERKNS_14__bit_iteratorINS_6vectorIbNS_9allocatorIbEEEELb1ELm0EEES7_, symObjAddr: 0xC4C8, symBinAddr: 0x100015F64, symSize: 0x64 }
  - { offsetInCU: 0x348FD, offset: 0x4B5B3, size: 0x8, addend: 0x0, symName: __ZNSt3__113__rewrap_iterB8ue170006INS_14__bit_iteratorINS_6vectorIbNS_9allocatorIbEEEELb1ELm0EEES6_NS_18__unwrap_iter_implIS6_Lb0EEEEET_S9_T0_, symObjAddr: 0xC6AC, symBinAddr: 0x100016148, symSize: 0x74 }
  - { offsetInCU: 0x34953, offset: 0x4B609, size: 0x8, addend: 0x0, symName: __ZNSt3__1eqB8ue170006ERKNS_14__bit_iteratorINS_6vectorIbNS_9allocatorIbEEEELb0ELm0EEES7_, symObjAddr: 0xC8E4, symBinAddr: 0x100016380, symSize: 0x64 }
  - { offsetInCU: 0x3498F, offset: 0x4B645, size: 0x8, addend: 0x0, symName: __ZNSt3__18any_castB8ue170006INS_6vectorINS_12basic_stringIcNS_11char_traitsIcEENS_9allocatorIcEEEENS5_IS7_EEEEEEu13__add_pointerIT_EPNS_3anyE, symObjAddr: 0xCB38, symBinAddr: 0x1000165D4, symSize: 0xA8 }
  - { offsetInCU: 0x349E3, offset: 0x4B699, size: 0x8, addend: 0x0, symName: __ZNSt3__122__pointer_or_func_castB8ue170006IPNS_6vectorINS_12basic_stringIcNS_11char_traitsIcEENS_9allocatorIcEEEENS5_IS7_EEEEEET_PvNS_17integral_constantIbLb0EEE, symObjAddr: 0xCC20, symBinAddr: 0x1000166BC, symSize: 0x14 }
  - { offsetInCU: 0x34A25, offset: 0x4B6DB, size: 0x8, addend: 0x0, symName: __ZNSt3__122__make_exception_guardB8ue170006INS_6vectorINS_12basic_stringIcNS_11char_traitsIcEENS_9allocatorIcEEEENS5_IS7_EEE16__destroy_vectorEEENS_28__exception_guard_exceptionsIT_EESC_, symObjAddr: 0xCECC, symBinAddr: 0x100016968, symSize: 0x40 }
  - { offsetInCU: 0x34A5A, offset: 0x4B710, size: 0x8, addend: 0x0, symName: __ZNSt3__119__allocate_at_leastB8ue170006INS_9allocatorINS_12basic_stringIcNS_11char_traitsIcEENS1_IcEEEEEEEENS_19__allocation_resultINS_16allocator_traitsIT_E7pointerEEERSA_m, symObjAddr: 0xD1BC, symBinAddr: 0x100016C58, symSize: 0x40 }
  - { offsetInCU: 0x34A9D, offset: 0x4B753, size: 0x8, addend: 0x0, symName: __ZNSt3__112__to_addressB8ue170006INS_12basic_stringIcNS_11char_traitsIcEENS_9allocatorIcEEEEEEPT_S8_, symObjAddr: 0xD490, symBinAddr: 0x100016F2C, symSize: 0x14 }
  - { offsetInCU: 0x34AD2, offset: 0x4B788, size: 0x8, addend: 0x0, symName: __ZNSt3__130__uninitialized_allocator_copyB8ue170006INS_9allocatorINS_12basic_stringIcNS_11char_traitsIcEENS1_IcEEEEEEPS6_S8_S8_EET2_RT_T0_T1_S9_, symObjAddr: 0xD540, symBinAddr: 0x100016FDC, symSize: 0x80 }
  - { offsetInCU: 0x34B6F, offset: 0x4B825, size: 0x8, addend: 0x0, symName: __ZNSt3__114__unwrap_rangeB8ue170006IPNS_12basic_stringIcNS_11char_traitsIcEENS_9allocatorIcEEEES7_EEDaT_T0_, symObjAddr: 0xD638, symBinAddr: 0x1000170D4, symSize: 0x3C }
  - { offsetInCU: 0x34BBB, offset: 0x4B871, size: 0x8, addend: 0x0, symName: __ZNSt3__135__uninitialized_allocator_copy_implB8ue170006INS_9allocatorINS_12basic_stringIcNS_11char_traitsIcEENS1_IcEEEEEEPS6_S8_S8_EET2_RT_T0_T1_S9_, symObjAddr: 0xD674, symBinAddr: 0x100017110, symSize: 0xF4 }
  - { offsetInCU: 0x34C59, offset: 0x4B90F, size: 0x8, addend: 0x0, symName: __ZNSt3__113__unwrap_iterB8ue170006IPNS_12basic_stringIcNS_11char_traitsIcEENS_9allocatorIcEEEENS_18__unwrap_iter_implIS7_Lb1EEELi0EEEDTclsrT0_8__unwrapclsr3stdE7declvalIT_EEEESB_, symObjAddr: 0xD768, symBinAddr: 0x100017204, symSize: 0x24 }
  - { offsetInCU: 0x34C9D, offset: 0x4B953, size: 0x8, addend: 0x0, symName: __ZNSt3__113__rewrap_iterB8ue170006IPNS_12basic_stringIcNS_11char_traitsIcEENS_9allocatorIcEEEES7_NS_18__unwrap_iter_implIS7_Lb1EEEEET_SA_T0_, symObjAddr: 0xD78C, symBinAddr: 0x100017228, symSize: 0x3C }
  - { offsetInCU: 0x34DF4, offset: 0x4BAAA, size: 0x8, addend: 0x0, symName: __ZNSt3__122__make_exception_guardB8ue170006INS_29_AllocatorDestroyRangeReverseINS_9allocatorINS_12basic_stringIcNS_11char_traitsIcEENS2_IcEEEEEEPS7_EEEENS_28__exception_guard_exceptionsIT_EESC_, symObjAddr: 0xD890, symBinAddr: 0x10001732C, symSize: 0x4C }
  - { offsetInCU: 0x34E4F, offset: 0x4BB05, size: 0x8, addend: 0x0, symName: __ZNSt3__112construct_atB8ue170006INS_12basic_stringIcNS_11char_traitsIcEENS_9allocatorIcEEEEJRS6_EPS6_EEPT_SA_DpOT0_, symObjAddr: 0xDA34, symBinAddr: 0x1000174D0, symSize: 0x3C }
  - { offsetInCU: 0x34EBF, offset: 0x4BB75, size: 0x8, addend: 0x0, symName: __ZNSt3__119__allocator_destroyB8ue170006INS_9allocatorINS_12basic_stringIcNS_11char_traitsIcEENS1_IcEEEEEENS_16reverse_iteratorIPS6_EESA_EEvRT_T0_T1_, symObjAddr: 0xDB28, symBinAddr: 0x1000175C4, symSize: 0x70 }
  - { offsetInCU: 0x34F22, offset: 0x4BBD8, size: 0x8, addend: 0x0, symName: __ZNSt3__1neB8ue170006IPNS_12basic_stringIcNS_11char_traitsIcEENS_9allocatorIcEEEES7_EEbRKNS_16reverse_iteratorIT_EERKNS8_IT0_EE, symObjAddr: 0xDBCC, symBinAddr: 0x100017668, symSize: 0x48 }
  - { offsetInCU: 0x34F6E, offset: 0x4BC24, size: 0x8, addend: 0x0, symName: __ZNSt3__112__to_addressB8ue170006INS_16reverse_iteratorIPNS_12basic_stringIcNS_11char_traitsIcEENS_9allocatorIcEEEEEEvEEu7__decayIDTclsr19__to_address_helperIT_EE6__callclsr3stdE7declvalIRKSA_EEEEESC_, symObjAddr: 0xDC3C, symBinAddr: 0x1000176D8, symSize: 0x24 }
  - { offsetInCU: 0x34FA4, offset: 0x4BC5A, size: 0x8, addend: 0x0, symName: __ZNSt3__110destroy_atB8ue170006INS_12basic_stringIcNS_11char_traitsIcEENS_9allocatorIcEEEELi0EEEvPT_, symObjAddr: 0xDC98, symBinAddr: 0x100017734, symSize: 0x24 }
  - { offsetInCU: 0x34FDB, offset: 0x4BC91, size: 0x8, addend: 0x0, symName: __ZNSt3__112__destroy_atB8ue170006INS_12basic_stringIcNS_11char_traitsIcEENS_9allocatorIcEEEELi0EEEvPT_, symObjAddr: 0xDCBC, symBinAddr: 0x100017758, symSize: 0x24 }
  - { offsetInCU: 0x3503B, offset: 0x4BCF1, size: 0x8, addend: 0x0, symName: __ZNSt3__14prevB8ue170006IPNS_12basic_stringIcNS_11char_traitsIcEENS_9allocatorIcEEEEEENS_9enable_ifIXsr29__has_input_iterator_categoryIT_EE5valueES9_E4typeES9_NS_15iterator_traitsIS9_E15difference_typeE, symObjAddr: 0xDD44, symBinAddr: 0x1000177E0, symSize: 0x3C }
  - { offsetInCU: 0x3507F, offset: 0x4BD35, size: 0x8, addend: 0x0, symName: __ZNSt3__19__advanceB8ue170006IPNS_12basic_stringIcNS_11char_traitsIcEENS_9allocatorIcEEEEEEvRT_NS_15iterator_traitsIS8_E15difference_typeENS_26random_access_iterator_tagE, symObjAddr: 0xDDB8, symBinAddr: 0x100017854, symSize: 0x30 }
  - { offsetInCU: 0x3511A, offset: 0x4BDD0, size: 0x8, addend: 0x0, symName: __ZNSt3__1eqB8ue170006IPNS_12basic_stringIcNS_11char_traitsIcEENS_9allocatorIcEEEEEEbRKNS_11__wrap_iterIT_EESC_, symObjAddr: 0xE210, symBinAddr: 0x100017CAC, symSize: 0x48 }
  - { offsetInCU: 0x3515E, offset: 0x4BE14, size: 0x8, addend: 0x0, symName: __ZNSt3__1eqB8ue170006ERKNS_15__hash_iteratorIPNS_11__hash_nodeINS_17__hash_value_typeINS_12basic_stringIcNS_11char_traitsIcEENS_9allocatorIcEEEENS_10shared_ptrI7ASTNodeEEEEPvEEEESI_, symObjAddr: 0xE414, symBinAddr: 0x100017EB0, symSize: 0x30 }
  - { offsetInCU: 0x35200, offset: 0x4BEB6, size: 0x8, addend: 0x0, symName: __ZNSt3__17launderB8ue170006INS_4pairIKNS_12basic_stringIcNS_11char_traitsIcEENS_9allocatorIcEEEENS_10shared_ptrI7ASTNodeEEEEEEPT_SE_, symObjAddr: 0xE4E4, symBinAddr: 0x100017F80, symSize: 0x24 }
  - { offsetInCU: 0x35238, offset: 0x4BEEE, size: 0x8, addend: 0x0, symName: __ZNSt3__19__launderB8ue170006INS_4pairIKNS_12basic_stringIcNS_11char_traitsIcEENS_9allocatorIcEEEENS_10shared_ptrI7ASTNodeEEEEEEPT_SE_, symObjAddr: 0xE508, symBinAddr: 0x100017FA4, symSize: 0x14 }
  - { offsetInCU: 0x3526E, offset: 0x4BF24, size: 0x8, addend: 0x0, symName: __ZNSt3__1neB8ue170006ERKNS_15__tree_iteratorINS_12basic_stringIcNS_11char_traitsIcEENS_9allocatorIcEEEEPNS_11__tree_nodeIS6_PvEElEESD_, symObjAddr: 0xE794, symBinAddr: 0x100018230, symSize: 0x34 }
  - { offsetInCU: 0x352AC, offset: 0x4BF62, size: 0x8, addend: 0x0, symName: __ZNSt3__1eqB8ue170006ERKNS_15__tree_iteratorINS_12basic_stringIcNS_11char_traitsIcEENS_9allocatorIcEEEEPNS_11__tree_nodeIS6_PvEElEESD_, symObjAddr: 0xE8CC, symBinAddr: 0x100018368, symSize: 0x30 }
  - { offsetInCU: 0x352E9, offset: 0x4BF9F, size: 0x8, addend: 0x0, symName: __ZNSt3__1ltB8ue170006ENS_15strong_orderingENS_20_CmpUnspecifiedParamE, symObjAddr: 0xE934, symBinAddr: 0x1000183D0, symSize: 0x24 }
  - { offsetInCU: 0x35322, offset: 0x4BFD8, size: 0x8, addend: 0x0, symName: __ZNSt3__1ssB8ue170006IcNS_11char_traitsIcEENS_9allocatorIcEEEEDaRKNS_12basic_stringIT_T0_T1_EESC_, symObjAddr: 0xE958, symBinAddr: 0x1000183F4, symSize: 0x5C }
  - { offsetInCU: 0x35396, offset: 0x4C04C, size: 0x8, addend: 0x0, symName: __ZNSt3__1ssB8ue170006IcNS_11char_traitsIcEEEEDaNS_17basic_string_viewIT_T0_EES7_, symObjAddr: 0xE9E8, symBinAddr: 0x100018484, symSize: 0x7C }
  - { offsetInCU: 0x3540C, offset: 0x4C0C2, size: 0x8, addend: 0x0, symName: __ZNSt3__112construct_atB8ue170006INS_12basic_stringIcNS_11char_traitsIcEENS_9allocatorIcEEEEJRKS6_EPS6_EEPT_SB_DpOT0_, symObjAddr: 0xF6D4, symBinAddr: 0x100018F18, symSize: 0x3C }
  - { offsetInCU: 0x3547C, offset: 0x4C132, size: 0x8, addend: 0x0, symName: __ZNSt3__127__tree_balance_after_insertB8ue170006IPNS_16__tree_node_baseIPvEEEEvT_S5_, symObjAddr: 0xF784, symBinAddr: 0x100018FC8, symSize: 0x27C }
  - { offsetInCU: 0x354F8, offset: 0x4C1AE, size: 0x8, addend: 0x0, symName: __ZNSt3__118__tree_left_rotateB8ue170006IPNS_16__tree_node_baseIPvEEEEvT_, symObjAddr: 0xFA28, symBinAddr: 0x10001926C, symSize: 0xD8 }
  - { offsetInCU: 0x3553A, offset: 0x4C1F0, size: 0x8, addend: 0x0, symName: __ZNSt3__119__tree_right_rotateB8ue170006IPNS_16__tree_node_baseIPvEEEEvT_, symObjAddr: 0xFB00, symBinAddr: 0x100019344, symSize: 0xCC }
  - { offsetInCU: 0x3557C, offset: 0x4C232, size: 0x8, addend: 0x0, symName: __ZNSt3__142__uninitialized_allocator_move_if_noexceptB8ue170006INS_9allocatorINS_12basic_stringIcNS_11char_traitsIcEENS1_IcEEEEEENS_16reverse_iteratorIPS6_EESA_SA_EET2_RT_T0_T1_SB_, symObjAddr: 0x10538, symBinAddr: 0x100019D7C, symSize: 0x124 }
  - { offsetInCU: 0x3561C, offset: 0x4C2D2, size: 0x8, addend: 0x0, symName: __ZNSt3__14swapB8ue170006IPNS_12basic_stringIcNS_11char_traitsIcEENS_9allocatorIcEEEEEENS_9enable_ifIXaasr21is_move_constructibleIT_EE5valuesr18is_move_assignableIS9_EE5valueEvE4typeERS9_SC_, symObjAddr: 0x1065C, symBinAddr: 0x100019EA0, symSize: 0x3C }
  - { offsetInCU: 0x3566D, offset: 0x4C323, size: 0x8, addend: 0x0, symName: __ZNSt3__122__make_exception_guardB8ue170006INS_29_AllocatorDestroyRangeReverseINS_9allocatorINS_12basic_stringIcNS_11char_traitsIcEENS2_IcEEEEEENS_16reverse_iteratorIPS7_EEEEEENS_28__exception_guard_exceptionsIT_EESE_, symObjAddr: 0x10698, symBinAddr: 0x100019EDC, symSize: 0x4C }
  - { offsetInCU: 0x356A3, offset: 0x4C359, size: 0x8, addend: 0x0, symName: __ZNSt3__112construct_atB8ue170006INS_12basic_stringIcNS_11char_traitsIcEENS_9allocatorIcEEEEJS6_EPS6_EEPT_S9_DpOT0_, symObjAddr: 0x10864, symBinAddr: 0x10001A0A8, symSize: 0x3C }
  - { offsetInCU: 0x35713, offset: 0x4C3C9, size: 0x8, addend: 0x0, symName: __ZNSt3__119__allocator_destroyB8ue170006INS_9allocatorINS_12basic_stringIcNS_11char_traitsIcEENS1_IcEEEEEENS_16reverse_iteratorINS8_IPS6_EEEESB_EEvRT_T0_T1_, symObjAddr: 0x10A20, symBinAddr: 0x10001A1E8, symSize: 0x70 }
  - { offsetInCU: 0x35778, offset: 0x4C42E, size: 0x8, addend: 0x0, symName: __ZNSt3__1neB8ue170006INS_16reverse_iteratorIPNS_12basic_stringIcNS_11char_traitsIcEENS_9allocatorIcEEEEEES9_EEbRKNS1_IT_EERKNS1_IT0_EE, symObjAddr: 0x10ACC, symBinAddr: 0x10001A294, symSize: 0x60 }
  - { offsetInCU: 0x357C4, offset: 0x4C47A, size: 0x8, addend: 0x0, symName: __ZNSt3__112__to_addressB8ue170006INS_16reverse_iteratorINS1_IPNS_12basic_stringIcNS_11char_traitsIcEENS_9allocatorIcEEEEEEEEvEEu7__decayIDTclsr19__to_address_helperIT_EE6__callclsr3stdE7declvalIRKSB_EEEEESD_, symObjAddr: 0x10B2C, symBinAddr: 0x10001A2F4, symSize: 0x24 }
  - { offsetInCU: 0x35823, offset: 0x4C4D9, size: 0x8, addend: 0x0, symName: __ZNSt3__14prevB8ue170006INS_16reverse_iteratorIPNS_12basic_stringIcNS_11char_traitsIcEENS_9allocatorIcEEEEEEEENS_9enable_ifIXsr29__has_input_iterator_categoryIT_EE5valueESB_E4typeESB_NS_15iterator_traitsISB_E15difference_typeE, symObjAddr: 0x10C28, symBinAddr: 0x10001A3F0, symSize: 0x4C }
  - { offsetInCU: 0x35866, offset: 0x4C51C, size: 0x8, addend: 0x0, symName: __ZNSt3__19__advanceB8ue170006INS_16reverse_iteratorIPNS_12basic_stringIcNS_11char_traitsIcEENS_9allocatorIcEEEEEEEEvRT_NS_15iterator_traitsISA_E15difference_typeENS_26random_access_iterator_tagE, symObjAddr: 0x10CAC, symBinAddr: 0x10001A474, symSize: 0x2C }
  - { offsetInCU: 0x358AF, offset: 0x4C565, size: 0x8, addend: 0x0, symName: __ZNSt3__134__libcpp_atomic_refcount_decrementB8ue170006IlEET_RS1_, symObjAddr: 0x1104C, symBinAddr: 0x10001A814, symSize: 0x30 }
  - { offsetInCU: 0x358E5, offset: 0x4C59B, size: 0x8, addend: 0x0, symName: __ZNSt3__120__libcpp_unreachableB8ue170006Ev, symObjAddr: 0x11408, symBinAddr: 0x10001ABD0, symSize: 0x4 }
  - { offsetInCU: 0x35923, offset: 0x4C5D9, size: 0x8, addend: 0x0, symName: __ZNSt3__112construct_atB8ue170006IiJRiEPiEEPT_S4_DpOT0_, symObjAddr: 0x1179C, symBinAddr: 0x10001AF64, symSize: 0x2C }
  - { offsetInCU: 0x35993, offset: 0x4C649, size: 0x8, addend: 0x0, symName: __ZNSt3__112construct_atB8ue170006IiJRKiEPiEEPT_S5_DpOT0_, symObjAddr: 0x11964, symBinAddr: 0x10001B12C, symSize: 0x2C }
  - { offsetInCU: 0x35A03, offset: 0x4C6B9, size: 0x8, addend: 0x0, symName: __ZNSt3__112construct_atB8ue170006IiJiEPiEEPT_S3_DpOT0_, symObjAddr: 0x11A1C, symBinAddr: 0x10001B1E4, symSize: 0x2C }
  - { offsetInCU: 0x35A73, offset: 0x4C729, size: 0x8, addend: 0x0, symName: __ZNSt3__14swapB8ue170006IP7ASTNodeEENS_9enable_ifIXaasr21is_move_constructibleIT_EE5valuesr18is_move_assignableIS4_EE5valueEvE4typeERS4_S7_, symObjAddr: 0x11B50, symBinAddr: 0x10001B318, symSize: 0x3C }
  - { offsetInCU: 0x35AC4, offset: 0x4C77A, size: 0x8, addend: 0x0, symName: __ZNSt3__14swapB8ue170006IPNS_19__shared_weak_countEEENS_9enable_ifIXaasr21is_move_constructibleIT_EE5valuesr18is_move_assignableIS4_EE5valueEvE4typeERS4_S7_, symObjAddr: 0x11B8C, symBinAddr: 0x10001B354, symSize: 0x3C }
  - { offsetInCU: 0x35B15, offset: 0x4C7CB, size: 0x8, addend: 0x0, symName: __ZNSt3__115allocate_sharedB8ue170006I17VariableContainerNS_9allocatorIS1_EEJEvEENS_10shared_ptrIT_EERKT0_DpOT1_, symObjAddr: 0x11E24, symBinAddr: 0x10001B5EC, symSize: 0x90 }
  - { offsetInCU: 0x35E9F, offset: 0x4CB55, size: 0x8, addend: 0x0, symName: __ZNSt3__112construct_atB8ue170006I17VariableContainerJEPS1_EEPT_S4_DpOT0_, symObjAddr: 0x1255C, symBinAddr: 0x10001BD24, symSize: 0x44 }
  - { offsetInCU: 0x35EFB, offset: 0x4CBB1, size: 0x8, addend: 0x0, symName: __ZNSt3__112__to_addressB8ue170006INS_13unordered_mapINS_12basic_stringIcNS_11char_traitsIcEENS_9allocatorIcEEEENS_10shared_ptrI8VariableEENS_4hashIS7_EENS_8equal_toIS7_EENS5_INS_4pairIKS7_SA_EEEEEEEEPT_SL_, symObjAddr: 0x132B4, symBinAddr: 0x10001CA7C, symSize: 0x14 }
  - { offsetInCU: 0x35F55, offset: 0x4CC0B, size: 0x8, addend: 0x0, symName: __ZNSt3__112construct_atB8ue170006INS_13unordered_mapINS_12basic_stringIcNS_11char_traitsIcEENS_9allocatorIcEEEENS_10shared_ptrI8VariableEENS_4hashIS7_EENS_8equal_toIS7_EENS5_INS_4pairIKS7_SA_EEEEEEJEPSJ_EEPT_SM_DpOT0_, symObjAddr: 0x13340, symBinAddr: 0x10001CB08, symSize: 0x34 }
  - { offsetInCU: 0x35FB1, offset: 0x4CC67, size: 0x8, addend: 0x0, symName: __ZNSt3__119__allocate_at_leastB8ue170006INS_9allocatorINS_13unordered_mapINS_12basic_stringIcNS_11char_traitsIcEENS1_IcEEEENS_10shared_ptrI8VariableEENS_4hashIS7_EENS_8equal_toIS7_EENS1_INS_4pairIKS7_SA_EEEEEEEEEENS_19__allocation_resultINS_16allocator_traitsIT_E7pointerEEERSN_m, symObjAddr: 0x13CE0, symBinAddr: 0x10001D4A8, symSize: 0x40 }
  - { offsetInCU: 0x35FF4, offset: 0x4CCAA, size: 0x8, addend: 0x0, symName: __ZNSt3__142__uninitialized_allocator_move_if_noexceptB8ue170006INS_9allocatorINS_13unordered_mapINS_12basic_stringIcNS_11char_traitsIcEENS1_IcEEEENS_10shared_ptrI8VariableEENS_4hashIS7_EENS_8equal_toIS7_EENS1_INS_4pairIKS7_SA_EEEEEEEENS_16reverse_iteratorIPSJ_EESN_SN_EET2_RT_T0_T1_SO_, symObjAddr: 0x14040, symBinAddr: 0x10001D808, symSize: 0x12C }
  - { offsetInCU: 0x36094, offset: 0x4CD4A, size: 0x8, addend: 0x0, symName: __ZNSt3__14swapB8ue170006IPNS_13unordered_mapINS_12basic_stringIcNS_11char_traitsIcEENS_9allocatorIcEEEENS_10shared_ptrI8VariableEENS_4hashIS7_EENS_8equal_toIS7_EENS5_INS_4pairIKS7_SA_EEEEEEEENS_9enable_ifIXaasr21is_move_constructibleIT_EE5valuesr18is_move_assignableISM_EE5valueEvE4typeERSM_SP_, symObjAddr: 0x141B8, symBinAddr: 0x10001D980, symSize: 0x3C }
  - { offsetInCU: 0x360E5, offset: 0x4CD9B, size: 0x8, addend: 0x0, symName: __ZNSt3__122__make_exception_guardB8ue170006INS_29_AllocatorDestroyRangeReverseINS_9allocatorINS_13unordered_mapINS_12basic_stringIcNS_11char_traitsIcEENS2_IcEEEENS_10shared_ptrI8VariableEENS_4hashIS8_EENS_8equal_toIS8_EENS2_INS_4pairIKS8_SB_EEEEEEEENS_16reverse_iteratorIPSK_EEEEEENS_28__exception_guard_exceptionsIT_EESR_, symObjAddr: 0x14304, symBinAddr: 0x10001DACC, symSize: 0x4C }
  - { offsetInCU: 0x3611B, offset: 0x4CDD1, size: 0x8, addend: 0x0, symName: __ZNSt3__1neB8ue170006IPNS_13unordered_mapINS_12basic_stringIcNS_11char_traitsIcEENS_9allocatorIcEEEENS_10shared_ptrI8VariableEENS_4hashIS7_EENS_8equal_toIS7_EENS5_INS_4pairIKS7_SA_EEEEEESK_EEbRKNS_16reverse_iteratorIT_EERKNSL_IT0_EE, symObjAddr: 0x14394, symBinAddr: 0x10001DB5C, symSize: 0x48 }
  - { offsetInCU: 0x36167, offset: 0x4CE1D, size: 0x8, addend: 0x0, symName: __ZNSt3__112__to_addressB8ue170006INS_16reverse_iteratorIPNS_13unordered_mapINS_12basic_stringIcNS_11char_traitsIcEENS_9allocatorIcEEEENS_10shared_ptrI8VariableEENS_4hashIS8_EENS_8equal_toIS8_EENS6_INS_4pairIKS8_SB_EEEEEEEEvEEu7__decayIDTclsr19__to_address_helperIT_EE6__callclsr3stdE7declvalIRKSN_EEEEESP_, symObjAddr: 0x1440C, symBinAddr: 0x10001DBD4, symSize: 0x24 }
  - { offsetInCU: 0x3619D, offset: 0x4CE53, size: 0x8, addend: 0x0, symName: __ZNSt3__112construct_atB8ue170006INS_13unordered_mapINS_12basic_stringIcNS_11char_traitsIcEENS_9allocatorIcEEEENS_10shared_ptrI8VariableEENS_4hashIS7_EENS_8equal_toIS7_EENS5_INS_4pairIKS7_SA_EEEEEEJSJ_EPSJ_EEPT_SM_DpOT0_, symObjAddr: 0x1455C, symBinAddr: 0x10001DD24, symSize: 0x3C }
  - { offsetInCU: 0x3620D, offset: 0x4CEC3, size: 0x8, addend: 0x0, symName: __ZNSt3__116__constrain_hashB8ue170006Emm, symObjAddr: 0x147F4, symBinAddr: 0x10001DFBC, symSize: 0x98 }
  - { offsetInCU: 0x36270, offset: 0x4CF26, size: 0x8, addend: 0x0, symName: __ZNSt3__14prevB8ue170006IPNS_13unordered_mapINS_12basic_stringIcNS_11char_traitsIcEENS_9allocatorIcEEEENS_10shared_ptrI8VariableEENS_4hashIS7_EENS_8equal_toIS7_EENS5_INS_4pairIKS7_SA_EEEEEEEENS_9enable_ifIXsr29__has_input_iterator_categoryIT_EE5valueESM_E4typeESM_NS_15iterator_traitsISM_E15difference_typeE, symObjAddr: 0x14D28, symBinAddr: 0x10001E4F0, symSize: 0x3C }
  - { offsetInCU: 0x362B4, offset: 0x4CF6A, size: 0x8, addend: 0x0, symName: __ZNSt3__19__advanceB8ue170006IPNS_13unordered_mapINS_12basic_stringIcNS_11char_traitsIcEENS_9allocatorIcEEEENS_10shared_ptrI8VariableEENS_4hashIS7_EENS_8equal_toIS7_EENS5_INS_4pairIKS7_SA_EEEEEEEEvRT_NS_15iterator_traitsISL_E15difference_typeENS_26random_access_iterator_tagE, symObjAddr: 0x14D9C, symBinAddr: 0x10001E564, symSize: 0x30 }
  - { offsetInCU: 0x362FC, offset: 0x4CFB2, size: 0x8, addend: 0x0, symName: __ZNSt3__119__allocator_destroyB8ue170006INS_9allocatorINS_13unordered_mapINS_12basic_stringIcNS_11char_traitsIcEENS1_IcEEEENS_10shared_ptrI8VariableEENS_4hashIS7_EENS_8equal_toIS7_EENS1_INS_4pairIKS7_SA_EEEEEEEENS_16reverse_iteratorINSL_IPSJ_EEEESO_EEvRT_T0_T1_, symObjAddr: 0x14ED0, symBinAddr: 0x10001E698, symSize: 0x70 }
  - { offsetInCU: 0x36361, offset: 0x4D017, size: 0x8, addend: 0x0, symName: __ZNSt3__1neB8ue170006INS_16reverse_iteratorIPNS_13unordered_mapINS_12basic_stringIcNS_11char_traitsIcEENS_9allocatorIcEEEENS_10shared_ptrI8VariableEENS_4hashIS8_EENS_8equal_toIS8_EENS6_INS_4pairIKS8_SB_EEEEEEEESM_EEbRKNS1_IT_EERKNS1_IT0_EE, symObjAddr: 0x14F7C, symBinAddr: 0x10001E744, symSize: 0x60 }
  - { offsetInCU: 0x363AD, offset: 0x4D063, size: 0x8, addend: 0x0, symName: __ZNSt3__112__to_addressB8ue170006INS_16reverse_iteratorINS1_IPNS_13unordered_mapINS_12basic_stringIcNS_11char_traitsIcEENS_9allocatorIcEEEENS_10shared_ptrI8VariableEENS_4hashIS8_EENS_8equal_toIS8_EENS6_INS_4pairIKS8_SB_EEEEEEEEEEvEEu7__decayIDTclsr19__to_address_helperIT_EE6__callclsr3stdE7declvalIRKSO_EEEEESQ_, symObjAddr: 0x15004, symBinAddr: 0x10001E7CC, symSize: 0x24 }
  - { offsetInCU: 0x363E3, offset: 0x4D099, size: 0x8, addend: 0x0, symName: __ZNSt3__110destroy_atB8ue170006INS_13unordered_mapINS_12basic_stringIcNS_11char_traitsIcEENS_9allocatorIcEEEENS_10shared_ptrI8VariableEENS_4hashIS7_EENS_8equal_toIS7_EENS5_INS_4pairIKS7_SA_EEEEEELi0EEEvPT_, symObjAddr: 0x1507C, symBinAddr: 0x10001E844, symSize: 0x24 }
  - { offsetInCU: 0x3641A, offset: 0x4D0D0, size: 0x8, addend: 0x0, symName: __ZNSt3__112__destroy_atB8ue170006INS_13unordered_mapINS_12basic_stringIcNS_11char_traitsIcEENS_9allocatorIcEEEENS_10shared_ptrI8VariableEENS_4hashIS7_EENS_8equal_toIS7_EENS5_INS_4pairIKS7_SA_EEEEEELi0EEEvPT_, symObjAddr: 0x150A0, symBinAddr: 0x10001E868, symSize: 0x24 }
  - { offsetInCU: 0x36451, offset: 0x4D107, size: 0x8, addend: 0x0, symName: __ZNSt3__110destroy_atB8ue170006INS_4pairIKNS_12basic_stringIcNS_11char_traitsIcEENS_9allocatorIcEEEENS_10shared_ptrI8VariableEEEELi0EEEvPT_, symObjAddr: 0x15344, symBinAddr: 0x10001EB0C, symSize: 0x24 }
  - { offsetInCU: 0x36488, offset: 0x4D13E, size: 0x8, addend: 0x0, symName: __ZNSt3__112__destroy_atB8ue170006INS_4pairIKNS_12basic_stringIcNS_11char_traitsIcEENS_9allocatorIcEEEENS_10shared_ptrI8VariableEEEELi0EEEvPT_, symObjAddr: 0x15368, symBinAddr: 0x10001EB30, symSize: 0x24 }
  - { offsetInCU: 0x364E8, offset: 0x4D19E, size: 0x8, addend: 0x0, symName: __ZNSt3__14prevB8ue170006INS_16reverse_iteratorIPNS_13unordered_mapINS_12basic_stringIcNS_11char_traitsIcEENS_9allocatorIcEEEENS_10shared_ptrI8VariableEENS_4hashIS8_EENS_8equal_toIS8_EENS6_INS_4pairIKS8_SB_EEEEEEEEEENS_9enable_ifIXsr29__has_input_iterator_categoryIT_EE5valueESO_E4typeESO_NS_15iterator_traitsISO_E15difference_typeE, symObjAddr: 0x156FC, symBinAddr: 0x10001EEC4, symSize: 0x4C }
  - { offsetInCU: 0x3652B, offset: 0x4D1E1, size: 0x8, addend: 0x0, symName: __ZNSt3__19__advanceB8ue170006INS_16reverse_iteratorIPNS_13unordered_mapINS_12basic_stringIcNS_11char_traitsIcEENS_9allocatorIcEEEENS_10shared_ptrI8VariableEENS_4hashIS8_EENS_8equal_toIS8_EENS6_INS_4pairIKS8_SB_EEEEEEEEEEvRT_NS_15iterator_traitsISN_E15difference_typeENS_26random_access_iterator_tagE, symObjAddr: 0x15780, symBinAddr: 0x10001EF48, symSize: 0x2C }
  - { offsetInCU: 0x36574, offset: 0x4D22A, size: 0x8, addend: 0x0, symName: __ZNSt3__112__to_addressB8ue170006INS_13unordered_mapINS_12basic_stringIcNS_11char_traitsIcEENS_9allocatorIcEEEENS_10shared_ptrI7ASTNodeEENS_4hashIS7_EENS_8equal_toIS7_EENS5_INS_4pairIKS7_SA_EEEEEEEEPT_SL_, symObjAddr: 0x16200, symBinAddr: 0x10001F9C8, symSize: 0x14 }
  - { offsetInCU: 0x365CE, offset: 0x4D284, size: 0x8, addend: 0x0, symName: __ZNSt3__112construct_atB8ue170006INS_13unordered_mapINS_12basic_stringIcNS_11char_traitsIcEENS_9allocatorIcEEEENS_10shared_ptrI7ASTNodeEENS_4hashIS7_EENS_8equal_toIS7_EENS5_INS_4pairIKS7_SA_EEEEEEJEPSJ_EEPT_SM_DpOT0_, symObjAddr: 0x1628C, symBinAddr: 0x10001FA54, symSize: 0x34 }
  - { offsetInCU: 0x3662A, offset: 0x4D2E0, size: 0x8, addend: 0x0, symName: __ZNSt3__119__allocate_at_leastB8ue170006INS_9allocatorINS_13unordered_mapINS_12basic_stringIcNS_11char_traitsIcEENS1_IcEEEENS_10shared_ptrI7ASTNodeEENS_4hashIS7_EENS_8equal_toIS7_EENS1_INS_4pairIKS7_SA_EEEEEEEEEENS_19__allocation_resultINS_16allocator_traitsIT_E7pointerEEERSN_m, symObjAddr: 0x16C08, symBinAddr: 0x1000203D0, symSize: 0x40 }
  - { offsetInCU: 0x3666D, offset: 0x4D323, size: 0x8, addend: 0x0, symName: __ZNSt3__142__uninitialized_allocator_move_if_noexceptB8ue170006INS_9allocatorINS_13unordered_mapINS_12basic_stringIcNS_11char_traitsIcEENS1_IcEEEENS_10shared_ptrI7ASTNodeEENS_4hashIS7_EENS_8equal_toIS7_EENS1_INS_4pairIKS7_SA_EEEEEEEENS_16reverse_iteratorIPSJ_EESN_SN_EET2_RT_T0_T1_SO_, symObjAddr: 0x16F68, symBinAddr: 0x100020730, symSize: 0x12C }
  - { offsetInCU: 0x3670D, offset: 0x4D3C3, size: 0x8, addend: 0x0, symName: __ZNSt3__14swapB8ue170006IPNS_13unordered_mapINS_12basic_stringIcNS_11char_traitsIcEENS_9allocatorIcEEEENS_10shared_ptrI7ASTNodeEENS_4hashIS7_EENS_8equal_toIS7_EENS5_INS_4pairIKS7_SA_EEEEEEEENS_9enable_ifIXaasr21is_move_constructibleIT_EE5valuesr18is_move_assignableISM_EE5valueEvE4typeERSM_SP_, symObjAddr: 0x170E0, symBinAddr: 0x1000208A8, symSize: 0x3C }
  - { offsetInCU: 0x3675E, offset: 0x4D414, size: 0x8, addend: 0x0, symName: __ZNSt3__122__make_exception_guardB8ue170006INS_29_AllocatorDestroyRangeReverseINS_9allocatorINS_13unordered_mapINS_12basic_stringIcNS_11char_traitsIcEENS2_IcEEEENS_10shared_ptrI7ASTNodeEENS_4hashIS8_EENS_8equal_toIS8_EENS2_INS_4pairIKS8_SB_EEEEEEEENS_16reverse_iteratorIPSK_EEEEEENS_28__exception_guard_exceptionsIT_EESR_, symObjAddr: 0x1722C, symBinAddr: 0x1000209F4, symSize: 0x4C }
  - { offsetInCU: 0x36794, offset: 0x4D44A, size: 0x8, addend: 0x0, symName: __ZNSt3__1neB8ue170006IPNS_13unordered_mapINS_12basic_stringIcNS_11char_traitsIcEENS_9allocatorIcEEEENS_10shared_ptrI7ASTNodeEENS_4hashIS7_EENS_8equal_toIS7_EENS5_INS_4pairIKS7_SA_EEEEEESK_EEbRKNS_16reverse_iteratorIT_EERKNSL_IT0_EE, symObjAddr: 0x172BC, symBinAddr: 0x100020A84, symSize: 0x48 }
  - { offsetInCU: 0x367E0, offset: 0x4D496, size: 0x8, addend: 0x0, symName: __ZNSt3__112__to_addressB8ue170006INS_16reverse_iteratorIPNS_13unordered_mapINS_12basic_stringIcNS_11char_traitsIcEENS_9allocatorIcEEEENS_10shared_ptrI7ASTNodeEENS_4hashIS8_EENS_8equal_toIS8_EENS6_INS_4pairIKS8_SB_EEEEEEEEvEEu7__decayIDTclsr19__to_address_helperIT_EE6__callclsr3stdE7declvalIRKSN_EEEEESP_, symObjAddr: 0x17334, symBinAddr: 0x100020AFC, symSize: 0x24 }
  - { offsetInCU: 0x36816, offset: 0x4D4CC, size: 0x8, addend: 0x0, symName: __ZNSt3__112construct_atB8ue170006INS_13unordered_mapINS_12basic_stringIcNS_11char_traitsIcEENS_9allocatorIcEEEENS_10shared_ptrI7ASTNodeEENS_4hashIS7_EENS_8equal_toIS7_EENS5_INS_4pairIKS7_SA_EEEEEEJSJ_EPSJ_EEPT_SM_DpOT0_, symObjAddr: 0x17484, symBinAddr: 0x100020C4C, symSize: 0x3C }
  - { offsetInCU: 0x368AF, offset: 0x4D565, size: 0x8, addend: 0x0, symName: __ZNSt3__14prevB8ue170006IPNS_13unordered_mapINS_12basic_stringIcNS_11char_traitsIcEENS_9allocatorIcEEEENS_10shared_ptrI7ASTNodeEENS_4hashIS7_EENS_8equal_toIS7_EENS5_INS_4pairIKS7_SA_EEEEEEEENS_9enable_ifIXsr29__has_input_iterator_categoryIT_EE5valueESM_E4typeESM_NS_15iterator_traitsISM_E15difference_typeE, symObjAddr: 0x17B9C, symBinAddr: 0x100021364, symSize: 0x3C }
  - { offsetInCU: 0x368F3, offset: 0x4D5A9, size: 0x8, addend: 0x0, symName: __ZNSt3__19__advanceB8ue170006IPNS_13unordered_mapINS_12basic_stringIcNS_11char_traitsIcEENS_9allocatorIcEEEENS_10shared_ptrI7ASTNodeEENS_4hashIS7_EENS_8equal_toIS7_EENS5_INS_4pairIKS7_SA_EEEEEEEEvRT_NS_15iterator_traitsISL_E15difference_typeENS_26random_access_iterator_tagE, symObjAddr: 0x17C10, symBinAddr: 0x1000213D8, symSize: 0x30 }
  - { offsetInCU: 0x3693B, offset: 0x4D5F1, size: 0x8, addend: 0x0, symName: __ZNSt3__119__allocator_destroyB8ue170006INS_9allocatorINS_13unordered_mapINS_12basic_stringIcNS_11char_traitsIcEENS1_IcEEEENS_10shared_ptrI7ASTNodeEENS_4hashIS7_EENS_8equal_toIS7_EENS1_INS_4pairIKS7_SA_EEEEEEEENS_16reverse_iteratorINSL_IPSJ_EEEESO_EEvRT_T0_T1_, symObjAddr: 0x17D44, symBinAddr: 0x10002150C, symSize: 0x70 }
  - { offsetInCU: 0x369A0, offset: 0x4D656, size: 0x8, addend: 0x0, symName: __ZNSt3__1neB8ue170006INS_16reverse_iteratorIPNS_13unordered_mapINS_12basic_stringIcNS_11char_traitsIcEENS_9allocatorIcEEEENS_10shared_ptrI7ASTNodeEENS_4hashIS8_EENS_8equal_toIS8_EENS6_INS_4pairIKS8_SB_EEEEEEEESM_EEbRKNS1_IT_EERKNS1_IT0_EE, symObjAddr: 0x17DF0, symBinAddr: 0x1000215B8, symSize: 0x60 }
  - { offsetInCU: 0x369EC, offset: 0x4D6A2, size: 0x8, addend: 0x0, symName: __ZNSt3__112__to_addressB8ue170006INS_16reverse_iteratorINS1_IPNS_13unordered_mapINS_12basic_stringIcNS_11char_traitsIcEENS_9allocatorIcEEEENS_10shared_ptrI7ASTNodeEENS_4hashIS8_EENS_8equal_toIS8_EENS6_INS_4pairIKS8_SB_EEEEEEEEEEvEEu7__decayIDTclsr19__to_address_helperIT_EE6__callclsr3stdE7declvalIRKSO_EEEEESQ_, symObjAddr: 0x17E78, symBinAddr: 0x100021640, symSize: 0x24 }
  - { offsetInCU: 0x36A22, offset: 0x4D6D8, size: 0x8, addend: 0x0, symName: __ZNSt3__110destroy_atB8ue170006INS_13unordered_mapINS_12basic_stringIcNS_11char_traitsIcEENS_9allocatorIcEEEENS_10shared_ptrI7ASTNodeEENS_4hashIS7_EENS_8equal_toIS7_EENS5_INS_4pairIKS7_SA_EEEEEELi0EEEvPT_, symObjAddr: 0x17EF0, symBinAddr: 0x1000216B8, symSize: 0x24 }
  - { offsetInCU: 0x36A59, offset: 0x4D70F, size: 0x8, addend: 0x0, symName: __ZNSt3__112__destroy_atB8ue170006INS_13unordered_mapINS_12basic_stringIcNS_11char_traitsIcEENS_9allocatorIcEEEENS_10shared_ptrI7ASTNodeEENS_4hashIS7_EENS_8equal_toIS7_EENS5_INS_4pairIKS7_SA_EEEEEELi0EEEvPT_, symObjAddr: 0x17F14, symBinAddr: 0x1000216DC, symSize: 0x24 }
  - { offsetInCU: 0x36A90, offset: 0x4D746, size: 0x8, addend: 0x0, symName: __ZNSt3__110destroy_atB8ue170006INS_4pairIKNS_12basic_stringIcNS_11char_traitsIcEENS_9allocatorIcEEEENS_10shared_ptrI7ASTNodeEEEELi0EEEvPT_, symObjAddr: 0x181B8, symBinAddr: 0x100021980, symSize: 0x24 }
  - { offsetInCU: 0x36AC7, offset: 0x4D77D, size: 0x8, addend: 0x0, symName: __ZNSt3__112__destroy_atB8ue170006INS_4pairIKNS_12basic_stringIcNS_11char_traitsIcEENS_9allocatorIcEEEENS_10shared_ptrI7ASTNodeEEEELi0EEEvPT_, symObjAddr: 0x181DC, symBinAddr: 0x1000219A4, symSize: 0x24 }
  - { offsetInCU: 0x36B27, offset: 0x4D7DD, size: 0x8, addend: 0x0, symName: __ZNSt3__14prevB8ue170006INS_16reverse_iteratorIPNS_13unordered_mapINS_12basic_stringIcNS_11char_traitsIcEENS_9allocatorIcEEEENS_10shared_ptrI7ASTNodeEENS_4hashIS8_EENS_8equal_toIS8_EENS6_INS_4pairIKS8_SB_EEEEEEEEEENS_9enable_ifIXsr29__has_input_iterator_categoryIT_EE5valueESO_E4typeESO_NS_15iterator_traitsISO_E15difference_typeE, symObjAddr: 0x184F0, symBinAddr: 0x100021CB8, symSize: 0x4C }
  - { offsetInCU: 0x36B6A, offset: 0x4D820, size: 0x8, addend: 0x0, symName: __ZNSt3__19__advanceB8ue170006INS_16reverse_iteratorIPNS_13unordered_mapINS_12basic_stringIcNS_11char_traitsIcEENS_9allocatorIcEEEENS_10shared_ptrI7ASTNodeEENS_4hashIS8_EENS_8equal_toIS8_EENS6_INS_4pairIKS8_SB_EEEEEEEEEEvRT_NS_15iterator_traitsISN_E15difference_typeENS_26random_access_iterator_tagE, symObjAddr: 0x18574, symBinAddr: 0x100021D3C, symSize: 0x2C }
  - { offsetInCU: 0x36BB3, offset: 0x4D869, size: 0x8, addend: 0x0, symName: __ZNSt3__111make_sharedB8ue170006I8VariableJRS1_EvEENS_10shared_ptrIT_EEDpOT0_, symObjAddr: 0x18A58, symBinAddr: 0x100022220, symSize: 0x40 }
  - { offsetInCU: 0x36C1A, offset: 0x4D8D0, size: 0x8, addend: 0x0, symName: __ZNSt3__116__is_hash_power2B8ue170006Em, symObjAddr: 0x1921C, symBinAddr: 0x1000229E4, symSize: 0x50 }
  - { offsetInCU: 0x36C46, offset: 0x4D8FC, size: 0x8, addend: 0x0, symName: __ZNSt3__116__do_string_hashB8ue170006IPKcEEmT_S3_, symObjAddr: 0x1941C, symBinAddr: 0x100022BE4, symSize: 0x3C }
  - { offsetInCU: 0x36C8C, offset: 0x4D942, size: 0x8, addend: 0x0, symName: __ZNSt3__110__loadwordB8ue170006ImEET_PKv, symObjAddr: 0x19E10, symBinAddr: 0x1000235D8, symSize: 0x20 }
  - { offsetInCU: 0x36CCF, offset: 0x4D985, size: 0x8, addend: 0x0, symName: __ZNSt3__14swapB8ue170006ImEENS_9enable_ifIXaasr21is_move_constructibleIT_EE5valuesr18is_move_assignableIS2_EE5valueEvE4typeERS2_S5_, symObjAddr: 0x19FCC, symBinAddr: 0x100023794, symSize: 0x3C }
  - { offsetInCU: 0x36D20, offset: 0x4D9D6, size: 0x8, addend: 0x0, symName: __ZNSt3__110__loadwordB8ue170006IjEET_PKv, symObjAddr: 0x1A05C, symBinAddr: 0x100023824, symSize: 0x20 }
  - { offsetInCU: 0x36D63, offset: 0x4DA19, size: 0x8, addend: 0x0, symName: __ZNSt3__1eqB8ue170006INS_9allocatorIcEEEEbRKNS_12basic_stringIcNS_11char_traitsIcEET_EES9_, symObjAddr: 0x1A254, symBinAddr: 0x100023A1C, symSize: 0x148 }
  - { offsetInCU: 0x36DD6, offset: 0x4DA8C, size: 0x8, addend: 0x0, symName: __ZNSt3__17launderB8ue170006IKNS_4pairIKNS_12basic_stringIcNS_11char_traitsIcEENS_9allocatorIcEEEENS_10shared_ptrI8VariableEEEEEEPT_SF_, symObjAddr: 0x1A39C, symBinAddr: 0x100023B64, symSize: 0x24 }
  - { offsetInCU: 0x36E0E, offset: 0x4DAC4, size: 0x8, addend: 0x0, symName: __ZNSt3__19__launderB8ue170006IKNS_4pairIKNS_12basic_stringIcNS_11char_traitsIcEENS_9allocatorIcEEEENS_10shared_ptrI8VariableEEEEEEPT_SF_, symObjAddr: 0x1A3C0, symBinAddr: 0x100023B88, symSize: 0x14 }
  - { offsetInCU: 0x36E87, offset: 0x4DB3D, size: 0x8, addend: 0x0, symName: __ZNSt3__112construct_atB8ue170006INS_4pairIKNS_12basic_stringIcNS_11char_traitsIcEENS_9allocatorIcEEEENS_10shared_ptrI8VariableEEEEJRS8_SB_EPSC_EEPT_SG_DpOT0_, symObjAddr: 0x1A6B0, symBinAddr: 0x100023E78, symSize: 0x44 }
  - { offsetInCU: 0x36F0A, offset: 0x4DBC0, size: 0x8, addend: 0x0, symName: __ZNSt3__116__next_hash_pow2B8ue170006Em, symObjAddr: 0x1AC90, symBinAddr: 0x100024458, symSize: 0x6C }
  - { offsetInCU: 0x36F53, offset: 0x4DC09, size: 0x8, addend: 0x0, symName: __ZNSt3__112__libcpp_clzB8ue170006Em, symObjAddr: 0x1AE20, symBinAddr: 0x1000245E8, symSize: 0x1C }
  - { offsetInCU: 0x36F7F, offset: 0x4DC35, size: 0x8, addend: 0x0, symName: __ZNSt3__115allocate_sharedB8ue170006I8VariableNS_9allocatorIS1_EEJRS1_EvEENS_10shared_ptrIT_EERKT0_DpOT1_, symObjAddr: 0x1B06C, symBinAddr: 0x100024834, symSize: 0x98 }
  - { offsetInCU: 0x37365, offset: 0x4E01B, size: 0x8, addend: 0x0, symName: __ZNSt3__112construct_atB8ue170006I8VariableJRS1_EPS1_EEPT_S5_DpOT0_, symObjAddr: 0x1B73C, symBinAddr: 0x100024F04, symSize: 0x3C }
  - { offsetInCU: 0x373D5, offset: 0x4E08B, size: 0x8, addend: 0x0, symName: __ZNSt3__110destroy_atB8ue170006I8VariableLi0EEEvPT_, symObjAddr: 0x1B934, symBinAddr: 0x1000250FC, symSize: 0x24 }
  - { offsetInCU: 0x3740C, offset: 0x4E0C2, size: 0x8, addend: 0x0, symName: __ZNSt3__112__destroy_atB8ue170006I8VariableLi0EEEvPT_, symObjAddr: 0x1B958, symBinAddr: 0x100025120, symSize: 0x24 }
  - { offsetInCU: 0x37476, offset: 0x4E12C, size: 0x8, addend: 0x0, symName: __ZNSt3__110destroy_atB8ue170006I17VariableContainerLi0EEEvPT_, symObjAddr: 0x1BFB8, symBinAddr: 0x100025780, symSize: 0x24 }
  - { offsetInCU: 0x374AD, offset: 0x4E163, size: 0x8, addend: 0x0, symName: __ZNSt3__112__destroy_atB8ue170006I17VariableContainerLi0EEEvPT_, symObjAddr: 0x1BFDC, symBinAddr: 0x1000257A4, symSize: 0x2C }
  - { offsetInCU: 0x37517, offset: 0x4E1CD, size: 0x8, addend: 0x0, symName: __ZNSt3__115allocate_sharedB8ue170006I22ParseVariableContainerNS_9allocatorIS1_EEJEvEENS_10shared_ptrIT_EERKT0_DpOT1_, symObjAddr: 0x1C1F4, symBinAddr: 0x1000259BC, symSize: 0x90 }
  - { offsetInCU: 0x378A1, offset: 0x4E557, size: 0x8, addend: 0x0, symName: __ZNSt3__112construct_atB8ue170006I22ParseVariableContainerJEPS1_EEPT_S4_DpOT0_, symObjAddr: 0x1C8A8, symBinAddr: 0x100026070, symSize: 0x44 }
  - { offsetInCU: 0x378FD, offset: 0x4E5B3, size: 0x8, addend: 0x0, symName: __ZNSt3__112__to_addressB8ue170006INS_3setINS_12basic_stringIcNS_11char_traitsIcEENS_9allocatorIcEEEENS_4lessIS7_EENS5_IS7_EEEEEEPT_SD_, symObjAddr: 0x1D2A0, symBinAddr: 0x100026A68, symSize: 0x14 }
  - { offsetInCU: 0x37957, offset: 0x4E60D, size: 0x8, addend: 0x0, symName: __ZNSt3__112construct_atB8ue170006INS_3setINS_12basic_stringIcNS_11char_traitsIcEENS_9allocatorIcEEEENS_4lessIS7_EENS5_IS7_EEEEJEPSB_EEPT_SE_DpOT0_, symObjAddr: 0x1D32C, symBinAddr: 0x100026AF4, symSize: 0x34 }
  - { offsetInCU: 0x379B3, offset: 0x4E669, size: 0x8, addend: 0x0, symName: __ZNSt3__119__allocate_at_leastB8ue170006INS_9allocatorINS_3setINS_12basic_stringIcNS_11char_traitsIcEENS1_IcEEEENS_4lessIS7_EENS1_IS7_EEEEEEEENS_19__allocation_resultINS_16allocator_traitsIT_E7pointerEEERSF_m, symObjAddr: 0x1D958, symBinAddr: 0x100027120, symSize: 0x40 }
  - { offsetInCU: 0x379F6, offset: 0x4E6AC, size: 0x8, addend: 0x0, symName: __ZNSt3__142__uninitialized_allocator_move_if_noexceptB8ue170006INS_9allocatorINS_3setINS_12basic_stringIcNS_11char_traitsIcEENS1_IcEEEENS_4lessIS7_EENS1_IS7_EEEEEENS_16reverse_iteratorIPSB_EESF_SF_EET2_RT_T0_T1_SG_, symObjAddr: 0x1DCB8, symBinAddr: 0x100027480, symSize: 0x12C }
  - { offsetInCU: 0x37A96, offset: 0x4E74C, size: 0x8, addend: 0x0, symName: __ZNSt3__14swapB8ue170006IPNS_3setINS_12basic_stringIcNS_11char_traitsIcEENS_9allocatorIcEEEENS_4lessIS7_EENS5_IS7_EEEEEENS_9enable_ifIXaasr21is_move_constructibleIT_EE5valuesr18is_move_assignableISE_EE5valueEvE4typeERSE_SH_, symObjAddr: 0x1DE30, symBinAddr: 0x1000275F8, symSize: 0x3C }
  - { offsetInCU: 0x37AE7, offset: 0x4E79D, size: 0x8, addend: 0x0, symName: __ZNSt3__122__make_exception_guardB8ue170006INS_29_AllocatorDestroyRangeReverseINS_9allocatorINS_3setINS_12basic_stringIcNS_11char_traitsIcEENS2_IcEEEENS_4lessIS8_EENS2_IS8_EEEEEENS_16reverse_iteratorIPSC_EEEEEENS_28__exception_guard_exceptionsIT_EESJ_, symObjAddr: 0x1DF7C, symBinAddr: 0x100027744, symSize: 0x4C }
  - { offsetInCU: 0x37B1D, offset: 0x4E7D3, size: 0x8, addend: 0x0, symName: __ZNSt3__1neB8ue170006IPNS_3setINS_12basic_stringIcNS_11char_traitsIcEENS_9allocatorIcEEEENS_4lessIS7_EENS5_IS7_EEEESC_EEbRKNS_16reverse_iteratorIT_EERKNSD_IT0_EE, symObjAddr: 0x1E00C, symBinAddr: 0x1000277D4, symSize: 0x48 }
  - { offsetInCU: 0x37B69, offset: 0x4E81F, size: 0x8, addend: 0x0, symName: __ZNSt3__112__to_addressB8ue170006INS_16reverse_iteratorIPNS_3setINS_12basic_stringIcNS_11char_traitsIcEENS_9allocatorIcEEEENS_4lessIS8_EENS6_IS8_EEEEEEvEEu7__decayIDTclsr19__to_address_helperIT_EE6__callclsr3stdE7declvalIRKSF_EEEEESH_, symObjAddr: 0x1E084, symBinAddr: 0x10002784C, symSize: 0x24 }
  - { offsetInCU: 0x37B9F, offset: 0x4E855, size: 0x8, addend: 0x0, symName: __ZNSt3__112construct_atB8ue170006INS_3setINS_12basic_stringIcNS_11char_traitsIcEENS_9allocatorIcEEEENS_4lessIS7_EENS5_IS7_EEEEJSB_EPSB_EEPT_SE_DpOT0_, symObjAddr: 0x1E1D4, symBinAddr: 0x10002799C, symSize: 0x3C }
  - { offsetInCU: 0x37C38, offset: 0x4E8EE, size: 0x8, addend: 0x0, symName: __ZNSt3__14prevB8ue170006IPNS_3setINS_12basic_stringIcNS_11char_traitsIcEENS_9allocatorIcEEEENS_4lessIS7_EENS5_IS7_EEEEEENS_9enable_ifIXsr29__has_input_iterator_categoryIT_EE5valueESE_E4typeESE_NS_15iterator_traitsISE_E15difference_typeE, symObjAddr: 0x1E40C, symBinAddr: 0x100027BD4, symSize: 0x3C }
  - { offsetInCU: 0x37C7C, offset: 0x4E932, size: 0x8, addend: 0x0, symName: __ZNSt3__19__advanceB8ue170006IPNS_3setINS_12basic_stringIcNS_11char_traitsIcEENS_9allocatorIcEEEENS_4lessIS7_EENS5_IS7_EEEEEEvRT_NS_15iterator_traitsISD_E15difference_typeENS_26random_access_iterator_tagE, symObjAddr: 0x1E480, symBinAddr: 0x100027C48, symSize: 0x30 }
  - { offsetInCU: 0x37CC4, offset: 0x4E97A, size: 0x8, addend: 0x0, symName: __ZNSt3__119__allocator_destroyB8ue170006INS_9allocatorINS_3setINS_12basic_stringIcNS_11char_traitsIcEENS1_IcEEEENS_4lessIS7_EENS1_IS7_EEEEEENS_16reverse_iteratorINSD_IPSB_EEEESG_EEvRT_T0_T1_, symObjAddr: 0x1E5B4, symBinAddr: 0x100027D7C, symSize: 0x70 }
  - { offsetInCU: 0x37D29, offset: 0x4E9DF, size: 0x8, addend: 0x0, symName: __ZNSt3__1neB8ue170006INS_16reverse_iteratorIPNS_3setINS_12basic_stringIcNS_11char_traitsIcEENS_9allocatorIcEEEENS_4lessIS8_EENS6_IS8_EEEEEESE_EEbRKNS1_IT_EERKNS1_IT0_EE, symObjAddr: 0x1E660, symBinAddr: 0x100027E28, symSize: 0x60 }
  - { offsetInCU: 0x37D75, offset: 0x4EA2B, size: 0x8, addend: 0x0, symName: __ZNSt3__112__to_addressB8ue170006INS_16reverse_iteratorINS1_IPNS_3setINS_12basic_stringIcNS_11char_traitsIcEENS_9allocatorIcEEEENS_4lessIS8_EENS6_IS8_EEEEEEEEvEEu7__decayIDTclsr19__to_address_helperIT_EE6__callclsr3stdE7declvalIRKSG_EEEEESI_, symObjAddr: 0x1E6E8, symBinAddr: 0x100027EB0, symSize: 0x24 }
  - { offsetInCU: 0x37DAB, offset: 0x4EA61, size: 0x8, addend: 0x0, symName: __ZNSt3__110destroy_atB8ue170006INS_3setINS_12basic_stringIcNS_11char_traitsIcEENS_9allocatorIcEEEENS_4lessIS7_EENS5_IS7_EEEELi0EEEvPT_, symObjAddr: 0x1E760, symBinAddr: 0x100027F28, symSize: 0x24 }
  - { offsetInCU: 0x37DE2, offset: 0x4EA98, size: 0x8, addend: 0x0, symName: __ZNSt3__112__destroy_atB8ue170006INS_3setINS_12basic_stringIcNS_11char_traitsIcEENS_9allocatorIcEEEENS_4lessIS7_EENS5_IS7_EEEELi0EEEvPT_, symObjAddr: 0x1E784, symBinAddr: 0x100027F4C, symSize: 0x24 }
  - { offsetInCU: 0x37E42, offset: 0x4EAF8, size: 0x8, addend: 0x0, symName: __ZNSt3__14prevB8ue170006INS_16reverse_iteratorIPNS_3setINS_12basic_stringIcNS_11char_traitsIcEENS_9allocatorIcEEEENS_4lessIS8_EENS6_IS8_EEEEEEEENS_9enable_ifIXsr29__has_input_iterator_categoryIT_EE5valueESG_E4typeESG_NS_15iterator_traitsISG_E15difference_typeE, symObjAddr: 0x1E98C, symBinAddr: 0x100028154, symSize: 0x4C }
  - { offsetInCU: 0x37E85, offset: 0x4EB3B, size: 0x8, addend: 0x0, symName: __ZNSt3__19__advanceB8ue170006INS_16reverse_iteratorIPNS_3setINS_12basic_stringIcNS_11char_traitsIcEENS_9allocatorIcEEEENS_4lessIS8_EENS6_IS8_EEEEEEEEvRT_NS_15iterator_traitsISF_E15difference_typeENS_26random_access_iterator_tagE, symObjAddr: 0x1EA10, symBinAddr: 0x1000281D8, symSize: 0x2C }
  - { offsetInCU: 0x37ECE, offset: 0x4EB84, size: 0x8, addend: 0x0, symName: __ZNSt3__110destroy_atB8ue170006I22ParseVariableContainerLi0EEEvPT_, symObjAddr: 0x1F10C, symBinAddr: 0x1000288D4, symSize: 0x24 }
  - { offsetInCU: 0x37F05, offset: 0x4EBBB, size: 0x8, addend: 0x0, symName: __ZNSt3__112__destroy_atB8ue170006I22ParseVariableContainerLi0EEEvPT_, symObjAddr: 0x1F130, symBinAddr: 0x1000288F8, symSize: 0x2C }
  - { offsetInCU: 0x37F6F, offset: 0x4EC25, size: 0x8, addend: 0x0, symName: __ZNSt3__115allocate_sharedB8ue170006I3MapNS_9allocatorIS1_EEJRNS_12basic_stringIcNS_11char_traitsIcEENS2_IcEEEEEvEENS_10shared_ptrIT_EERKT0_DpOT1_, symObjAddr: 0x1F39C, symBinAddr: 0x100028B64, symSize: 0x98 }
  - { offsetInCU: 0x38319, offset: 0x4EFCF, size: 0x8, addend: 0x0, symName: __ZNSt3__112construct_atB8ue170006I3MapJRNS_12basic_stringIcNS_11char_traitsIcEENS_9allocatorIcEEEEEPS1_EEPT_SB_DpOT0_, symObjAddr: 0x1FA6C, symBinAddr: 0x100029234, symSize: 0x3C }
  - { offsetInCU: 0x39184, offset: 0x4FE3A, size: 0x8, addend: 0x0, symName: __ZNSt3__17getlineB8ue170006IcNS_11char_traitsIcEENS_9allocatorIcEEEERNS_13basic_istreamIT_T0_EES9_RNS_12basic_stringIS6_S7_T1_EE, symObjAddr: 0x20004, symBinAddr: 0x1000297CC, symSize: 0x5C }
  - { offsetInCU: 0x3974D, offset: 0x50403, size: 0x8, addend: 0x0, symName: __ZNSt3__17getlineB8ue170006IcNS_11char_traitsIcEENS_9allocatorIcEEEERNS_13basic_istreamIT_T0_EES9_RNS_12basic_stringIS6_S7_T1_EES6_, symObjAddr: 0x201F4, symBinAddr: 0x1000299BC, symSize: 0x238 }
  - { offsetInCU: 0x39816, offset: 0x504CC, size: 0x8, addend: 0x0, symName: __ZNSt3__1neB8ue170006IPNS_6vectorI4CellNS_9allocatorIS2_EEEEEEbRKNS_11__wrap_iterIT_EESB_, symObjAddr: 0x205FC, symBinAddr: 0x100029D6C, symSize: 0x34 }
  - { offsetInCU: 0x39859, offset: 0x5050F, size: 0x8, addend: 0x0, symName: __ZNSt3__1neB8ue170006IP4CellEEbRKNS_11__wrap_iterIT_EES7_, symObjAddr: 0x206DC, symBinAddr: 0x100029E18, symSize: 0x34 }
  - { offsetInCU: 0x398CC, offset: 0x50582, size: 0x8, addend: 0x0, symName: __ZNSt3__112construct_atB8ue170006I4CellJRKS1_EPS1_EEPT_S6_DpOT0_, symObjAddr: 0x216A8, symBinAddr: 0x10002AB60, symSize: 0x3C }
  - { offsetInCU: 0x3993C, offset: 0x505F2, size: 0x8, addend: 0x0, symName: __ZNSt3__142__uninitialized_allocator_move_if_noexceptB8ue170006INS_9allocatorI4CellEENS_16reverse_iteratorIPS2_EES6_S6_EET2_RT_T0_T1_S7_, symObjAddr: 0x21EE4, symBinAddr: 0x10002B008, symSize: 0x12C }
  - { offsetInCU: 0x399DC, offset: 0x50692, size: 0x8, addend: 0x0, symName: __ZNSt3__14swapB8ue170006IP4CellEENS_9enable_ifIXaasr21is_move_constructibleIT_EE5valuesr18is_move_assignableIS4_EE5valueEvE4typeERS4_S7_, symObjAddr: 0x2205C, symBinAddr: 0x10002B134, symSize: 0x3C }
  - { offsetInCU: 0x39A2D, offset: 0x506E3, size: 0x8, addend: 0x0, symName: __ZNSt3__122__make_exception_guardB8ue170006INS_29_AllocatorDestroyRangeReverseINS_9allocatorI4CellEENS_16reverse_iteratorIPS3_EEEEEENS_28__exception_guard_exceptionsIT_EESA_, symObjAddr: 0x221A8, symBinAddr: 0x10002B170, symSize: 0x4C }
  - { offsetInCU: 0x39A63, offset: 0x50719, size: 0x8, addend: 0x0, symName: __ZNSt3__112construct_atB8ue170006I4CellJS1_EPS1_EEPT_S4_DpOT0_, symObjAddr: 0x22400, symBinAddr: 0x10002B33C, symSize: 0x3C }
  - { offsetInCU: 0x39AD3, offset: 0x50789, size: 0x8, addend: 0x0, symName: __ZNSt3__119__allocator_destroyB8ue170006INS_9allocatorI4CellEENS_16reverse_iteratorINS4_IPS2_EEEES7_EEvRT_T0_T1_, symObjAddr: 0x226B0, symBinAddr: 0x10002B4E4, symSize: 0x70 }
  - { offsetInCU: 0x39B38, offset: 0x507EE, size: 0x8, addend: 0x0, symName: __ZNSt3__1neB8ue170006INS_16reverse_iteratorIP4CellEES4_EEbRKNS1_IT_EERKNS1_IT0_EE, symObjAddr: 0x2275C, symBinAddr: 0x10002B590, symSize: 0x60 }
  - { offsetInCU: 0x39B84, offset: 0x5083A, size: 0x8, addend: 0x0, symName: __ZNSt3__112__to_addressB8ue170006INS_16reverse_iteratorINS1_IP4CellEEEEvEEu7__decayIDTclsr19__to_address_helperIT_EE6__callclsr3stdE7declvalIRKS6_EEEEES8_, symObjAddr: 0x227E4, symBinAddr: 0x10002B5F0, symSize: 0x24 }
  - { offsetInCU: 0x39BE3, offset: 0x50899, size: 0x8, addend: 0x0, symName: __ZNSt3__14prevB8ue170006INS_16reverse_iteratorIP4CellEEEENS_9enable_ifIXsr29__has_input_iterator_categoryIT_EE5valueES6_E4typeES6_NS_15iterator_traitsIS6_E15difference_typeE, symObjAddr: 0x22928, symBinAddr: 0x10002B6EC, symSize: 0x4C }
  - { offsetInCU: 0x39C26, offset: 0x508DC, size: 0x8, addend: 0x0, symName: __ZNSt3__19__advanceB8ue170006INS_16reverse_iteratorIP4CellEEEEvRT_NS_15iterator_traitsIS5_E15difference_typeENS_26random_access_iterator_tagE, symObjAddr: 0x229AC, symBinAddr: 0x10002B770, symSize: 0x2C }
  - { offsetInCU: 0x39C94, offset: 0x5094A, size: 0x8, addend: 0x0, symName: __ZNSt3__112construct_atB8ue170006INS_6vectorI4CellNS_9allocatorIS2_EEEEJRKS5_EPS5_EEPT_SA_DpOT0_, symObjAddr: 0x22FC8, symBinAddr: 0x10002BB9C, symSize: 0x3C }
  - { offsetInCU: 0x39D04, offset: 0x509BA, size: 0x8, addend: 0x0, symName: __ZNSt3__142__uninitialized_allocator_move_if_noexceptB8ue170006INS_9allocatorINS_6vectorI4CellNS1_IS3_EEEEEENS_16reverse_iteratorIPS5_EES9_S9_EET2_RT_T0_T1_SA_, symObjAddr: 0x23804, symBinAddr: 0x10002C044, symSize: 0x12C }
  - { offsetInCU: 0x39DA4, offset: 0x50A5A, size: 0x8, addend: 0x0, symName: __ZNSt3__14swapB8ue170006IPNS_6vectorI4CellNS_9allocatorIS2_EEEEEENS_9enable_ifIXaasr21is_move_constructibleIT_EE5valuesr18is_move_assignableIS8_EE5valueEvE4typeERS8_SB_, symObjAddr: 0x2397C, symBinAddr: 0x10002C170, symSize: 0x3C }
  - { offsetInCU: 0x39DF5, offset: 0x50AAB, size: 0x8, addend: 0x0, symName: __ZNSt3__122__make_exception_guardB8ue170006INS_29_AllocatorDestroyRangeReverseINS_9allocatorINS_6vectorI4CellNS2_IS4_EEEEEENS_16reverse_iteratorIPS6_EEEEEENS_28__exception_guard_exceptionsIT_EESD_, symObjAddr: 0x23AC8, symBinAddr: 0x10002C1AC, symSize: 0x4C }
  - { offsetInCU: 0x39E2B, offset: 0x50AE1, size: 0x8, addend: 0x0, symName: __ZNSt3__112construct_atB8ue170006INS_6vectorI4CellNS_9allocatorIS2_EEEEJS5_EPS5_EEPT_S8_DpOT0_, symObjAddr: 0x23D20, symBinAddr: 0x10002C378, symSize: 0x3C }
  - { offsetInCU: 0x39E9B, offset: 0x50B51, size: 0x8, addend: 0x0, symName: __ZNSt3__119__allocator_destroyB8ue170006INS_9allocatorINS_6vectorI4CellNS1_IS3_EEEEEENS_16reverse_iteratorINS7_IPS5_EEEESA_EEvRT_T0_T1_, symObjAddr: 0x240F8, symBinAddr: 0x10002C5B0, symSize: 0x70 }
  - { offsetInCU: 0x39F00, offset: 0x50BB6, size: 0x8, addend: 0x0, symName: __ZNSt3__1neB8ue170006INS_16reverse_iteratorIPNS_6vectorI4CellNS_9allocatorIS3_EEEEEES8_EEbRKNS1_IT_EERKNS1_IT0_EE, symObjAddr: 0x241A4, symBinAddr: 0x10002C65C, symSize: 0x60 }
  - { offsetInCU: 0x39F4C, offset: 0x50C02, size: 0x8, addend: 0x0, symName: __ZNSt3__112__to_addressB8ue170006INS_16reverse_iteratorINS1_IPNS_6vectorI4CellNS_9allocatorIS3_EEEEEEEEvEEu7__decayIDTclsr19__to_address_helperIT_EE6__callclsr3stdE7declvalIRKSA_EEEEESC_, symObjAddr: 0x2422C, symBinAddr: 0x10002C6BC, symSize: 0x24 }
  - { offsetInCU: 0x39FAB, offset: 0x50C61, size: 0x8, addend: 0x0, symName: __ZNSt3__14prevB8ue170006INS_16reverse_iteratorIPNS_6vectorI4CellNS_9allocatorIS3_EEEEEEEENS_9enable_ifIXsr29__has_input_iterator_categoryIT_EE5valueESA_E4typeESA_NS_15iterator_traitsISA_E15difference_typeE, symObjAddr: 0x24370, symBinAddr: 0x10002C7B8, symSize: 0x4C }
  - { offsetInCU: 0x39FEE, offset: 0x50CA4, size: 0x8, addend: 0x0, symName: __ZNSt3__19__advanceB8ue170006INS_16reverse_iteratorIPNS_6vectorI4CellNS_9allocatorIS3_EEEEEEEEvRT_NS_15iterator_traitsIS9_E15difference_typeENS_26random_access_iterator_tagE, symObjAddr: 0x243F4, symBinAddr: 0x10002C83C, symSize: 0x2C }
  - { offsetInCU: 0x3A037, offset: 0x50CED, size: 0x8, addend: 0x0, symName: __ZNSt3__1eqB8ue170006IPNS_6vectorI4CellNS_9allocatorIS2_EEEEEEbRKNS_11__wrap_iterIT_EESB_, symObjAddr: 0x24AD8, symBinAddr: 0x10002CC78, symSize: 0x48 }
  - { offsetInCU: 0x3A07A, offset: 0x50D30, size: 0x8, addend: 0x0, symName: __ZNSt3__1eqB8ue170006IP4CellEEbRKNS_11__wrap_iterIT_EES7_, symObjAddr: 0x255DC, symBinAddr: 0x10002CD5C, symSize: 0x48 }
  - { offsetInCU: 0x3A0BD, offset: 0x50D73, size: 0x8, addend: 0x0, symName: __ZNSt3__110destroy_atB8ue170006I3MapLi0EEEvPT_, symObjAddr: 0x25974, symBinAddr: 0x10002CEE4, symSize: 0x24 }
  - { offsetInCU: 0x3A0F4, offset: 0x50DAA, size: 0x8, addend: 0x0, symName: __ZNSt3__112__destroy_atB8ue170006I3MapLi0EEEvPT_, symObjAddr: 0x25998, symBinAddr: 0x10002CF08, symSize: 0x24 }
  - { offsetInCU: 0x3A15E, offset: 0x50E14, size: 0x8, addend: 0x0, symName: __ZNSt3__115allocate_sharedB8ue170006I5RobotNS_9allocatorIS1_EEJRNS_10shared_ptrI3MapEEiEvEENS4_IT_EERKT0_DpOT1_, symObjAddr: 0x25BFC, symBinAddr: 0x10002D16C, symSize: 0xA0 }
  - { offsetInCU: 0x3A526, offset: 0x511DC, size: 0x8, addend: 0x0, symName: __ZNSt3__112construct_atB8ue170006I5RobotJRNS_10shared_ptrI3MapEEiEPS1_EEPT_S8_DpOT0_, symObjAddr: 0x262F0, symBinAddr: 0x10002D860, symSize: 0x48 }
  - { offsetInCU: 0x3A5A9, offset: 0x5125F, size: 0x8, addend: 0x0, symName: __ZNSt3__110destroy_atB8ue170006I5RobotLi0EEEvPT_, symObjAddr: 0x26510, symBinAddr: 0x10002DA80, symSize: 0x24 }
  - { offsetInCU: 0x3A5E0, offset: 0x51296, size: 0x8, addend: 0x0, symName: __ZNSt3__112__destroy_atB8ue170006I5RobotLi0EEEvPT_, symObjAddr: 0x26534, symBinAddr: 0x10002DAA4, symSize: 0x24 }
  - { offsetInCU: 0x3A64A, offset: 0x51300, size: 0x8, addend: 0x0, symName: __ZNSt3__115allocate_sharedB8ue170006I9StartNodeNS_9allocatorIS1_EEJRNS_10shared_ptrI17VariableContainerEEEvEENS4_IT_EERKT0_DpOT1_, symObjAddr: 0x267A8, symBinAddr: 0x10002DD18, symSize: 0x98 }
  - { offsetInCU: 0x3A9F4, offset: 0x516AA, size: 0x8, addend: 0x0, symName: __ZNSt3__112construct_atB8ue170006I9StartNodeJRNS_10shared_ptrI17VariableContainerEEEPS1_EEPT_S8_DpOT0_, symObjAddr: 0x26E7C, symBinAddr: 0x10002E3EC, symSize: 0x3C }
  - { offsetInCU: 0x3AA64, offset: 0x5171A, size: 0x8, addend: 0x0, symName: __ZNSt3__1neB8ue170006IPNS_10shared_ptrI7ASTNodeEEEEbRKNS_11__wrap_iterIT_EES9_, symObjAddr: 0x2769C, symBinAddr: 0x10002EC0C, symSize: 0x34 }
  - { offsetInCU: 0x3AAA7, offset: 0x5175D, size: 0x8, addend: 0x0, symName: __ZNSt3__1eqB8ue170006IPNS_10shared_ptrI7ASTNodeEEEEbRKNS_11__wrap_iterIT_EES9_, symObjAddr: 0x2778C, symBinAddr: 0x10002ECFC, symSize: 0x48 }
  - { offsetInCU: 0x3AAEA, offset: 0x517A0, size: 0x8, addend: 0x0, symName: __ZNSt3__110destroy_atB8ue170006I9StartNodeLi0EEEvPT_, symObjAddr: 0x278B4, symBinAddr: 0x10002EE24, symSize: 0x24 }
  - { offsetInCU: 0x3AB21, offset: 0x517D7, size: 0x8, addend: 0x0, symName: __ZNSt3__112__destroy_atB8ue170006I9StartNodeLi0EEEvPT_, symObjAddr: 0x278D8, symBinAddr: 0x10002EE48, symSize: 0x2C }
  - { offsetInCU: 0x3AB8B, offset: 0x51841, size: 0x8, addend: 0x0, symName: __ZNSt3__115allocate_sharedB8ue170006I13MoveRobotNodeNS_9allocatorIS1_EEJRNS_10shared_ptrI17VariableContainerEERNS4_I5RobotEERNS4_I3MapEE9directionEvEENS4_IT_EERKT0_DpOT1_, symObjAddr: 0x27BB8, symBinAddr: 0x10002F128, symSize: 0xB0 }
  - { offsetInCU: 0x3AF8F, offset: 0x51C45, size: 0x8, addend: 0x0, symName: __ZNSt3__112construct_atB8ue170006I13MoveRobotNodeJRNS_10shared_ptrI17VariableContainerEERNS2_I5RobotEERNS2_I3MapEE9directionEPS1_EEPT_SF_DpOT0_, symObjAddr: 0x282EC, symBinAddr: 0x10002F85C, symSize: 0xC0 }
  - { offsetInCU: 0x3B05D, offset: 0x51D13, size: 0x8, addend: 0x0, symName: __ZNSt3__112construct_atB8ue170006IbJbEPbEEPT_S3_DpOT0_, symObjAddr: 0x28A84, symBinAddr: 0x10002FFF4, symSize: 0x30 }
  - { offsetInCU: 0x3B0CD, offset: 0x51D83, size: 0x8, addend: 0x0, symName: __ZNSt3__110destroy_atB8ue170006IbLi0EEEvPT_, symObjAddr: 0x28BEC, symBinAddr: 0x10003015C, symSize: 0x24 }
  - { offsetInCU: 0x3B105, offset: 0x51DBB, size: 0x8, addend: 0x0, symName: __ZNSt3__112__destroy_atB8ue170006IbLi0EEEvPT_, symObjAddr: 0x28C10, symBinAddr: 0x100030180, symSize: 0x10 }
  - { offsetInCU: 0x3B13B, offset: 0x51DF1, size: 0x8, addend: 0x0, symName: __ZNSt3__112construct_atB8ue170006IbJRKbEPbEEPT_S5_DpOT0_, symObjAddr: 0x28CAC, symBinAddr: 0x10003021C, symSize: 0x30 }
  - { offsetInCU: 0x3B1AB, offset: 0x51E61, size: 0x8, addend: 0x0, symName: __ZNSt3__110destroy_atB8ue170006I13MoveRobotNodeLi0EEEvPT_, symObjAddr: 0x28E68, symBinAddr: 0x1000303D8, symSize: 0x24 }
  - { offsetInCU: 0x3B1E2, offset: 0x51E98, size: 0x8, addend: 0x0, symName: __ZNSt3__112__destroy_atB8ue170006I13MoveRobotNodeLi0EEEvPT_, symObjAddr: 0x28E8C, symBinAddr: 0x1000303FC, symSize: 0x2C }
  - { offsetInCU: 0x3B24C, offset: 0x51F02, size: 0x8, addend: 0x0, symName: __ZNSt3__115allocate_sharedB8ue170006I15RotateRobotNodeNS_9allocatorIS1_EEJRNS_10shared_ptrI17VariableContainerEERNS4_I5RobotEERNS4_I3MapEEbEvEENS4_IT_EERKT0_DpOT1_, symObjAddr: 0x2918C, symBinAddr: 0x1000306FC, symSize: 0xB0 }
  - { offsetInCU: 0x3B650, offset: 0x52306, size: 0x8, addend: 0x0, symName: __ZNSt3__112construct_atB8ue170006I15RotateRobotNodeJRNS_10shared_ptrI17VariableContainerEERNS2_I5RobotEERNS2_I3MapEEbEPS1_EEPT_SE_DpOT0_, symObjAddr: 0x298C0, symBinAddr: 0x100030E30, symSize: 0xC4 }
  - { offsetInCU: 0x3B6F9, offset: 0x523AF, size: 0x8, addend: 0x0, symName: __ZNSt3__110destroy_atB8ue170006I15RotateRobotNodeLi0EEEvPT_, symObjAddr: 0x29C4C, symBinAddr: 0x1000311BC, symSize: 0x24 }
  - { offsetInCU: 0x3B730, offset: 0x523E6, size: 0x8, addend: 0x0, symName: __ZNSt3__112__destroy_atB8ue170006I15RotateRobotNodeLi0EEEvPT_, symObjAddr: 0x29C70, symBinAddr: 0x1000311E0, symSize: 0x2C }
  - { offsetInCU: 0x3B79A, offset: 0x52450, size: 0x8, addend: 0x0, symName: __ZNSt3__115allocate_sharedB8ue170006I9ValueNodeNS_9allocatorIS1_EEJRNS_10shared_ptrI17VariableContainerEENS_3anyEEvEENS4_IT_EERKT0_DpOT1_, symObjAddr: 0x29F70, symBinAddr: 0x1000314E0, symSize: 0xA0 }
  - { offsetInCU: 0x3BB9E, offset: 0x52854, size: 0x8, addend: 0x0, symName: __ZNSt3__112construct_atB8ue170006I9ValueNodeJRNS_10shared_ptrI17VariableContainerEENS_3anyEEPS1_EEPT_S9_DpOT0_, symObjAddr: 0x2A664, symBinAddr: 0x100031BD4, symSize: 0xC0 }
  - { offsetInCU: 0x3BC21, offset: 0x528D7, size: 0x8, addend: 0x0, symName: __ZNSt3__110destroy_atB8ue170006I9ValueNodeLi0EEEvPT_, symObjAddr: 0x2AA50, symBinAddr: 0x100031FC0, symSize: 0x24 }
  - { offsetInCU: 0x3BC58, offset: 0x5290E, size: 0x8, addend: 0x0, symName: __ZNSt3__112__destroy_atB8ue170006I9ValueNodeLi0EEEvPT_, symObjAddr: 0x2AA74, symBinAddr: 0x100031FE4, symSize: 0x2C }
  - { offsetInCU: 0x3BCC2, offset: 0x52978, size: 0x8, addend: 0x0, symName: __ZNSt3__112construct_atB8ue170006IbJRbEPbEEPT_S4_DpOT0_, symObjAddr: 0x2ADF0, symBinAddr: 0x100032360, symSize: 0x30 }
  - { offsetInCU: 0x3BD32, offset: 0x529E8, size: 0x8, addend: 0x0, symName: __ZNSt3__115allocate_sharedB8ue170006I12VariableNodeNS_9allocatorIS1_EEJRNS_10shared_ptrI17VariableContainerEERNS_12basic_stringIcNS_11char_traitsIcEENS2_IcEEEEEvEENS4_IT_EERKT0_DpOT1_, symObjAddr: 0x2AE20, symBinAddr: 0x100032390, symSize: 0xA0 }
  - { offsetInCU: 0x3C0FA, offset: 0x52DB0, size: 0x8, addend: 0x0, symName: __ZNSt3__112construct_atB8ue170006I12VariableNodeJRNS_10shared_ptrI17VariableContainerEERNS_12basic_stringIcNS_11char_traitsIcEENS_9allocatorIcEEEEEPS1_EEPT_SF_DpOT0_, symObjAddr: 0x2B514, symBinAddr: 0x100032A84, symSize: 0x8C }
  - { offsetInCU: 0x3C1B0, offset: 0x52E66, size: 0x8, addend: 0x0, symName: __ZNSt3__110destroy_atB8ue170006I12VariableNodeLi0EEEvPT_, symObjAddr: 0x2BD1C, symBinAddr: 0x10003324C, symSize: 0x24 }
  - { offsetInCU: 0x3C1E7, offset: 0x52E9D, size: 0x8, addend: 0x0, symName: __ZNSt3__112__destroy_atB8ue170006I12VariableNodeLi0EEEvPT_, symObjAddr: 0x2BD40, symBinAddr: 0x100033270, symSize: 0x2C }
  - { offsetInCU: 0x3C251, offset: 0x52F07, size: 0x8, addend: 0x0, symName: __ZNSt3__115allocate_sharedB8ue170006I17VariableArrayNodeNS_9allocatorIS1_EEJRNS_10shared_ptrI17VariableContainerEERNS_12basic_stringIcNS_11char_traitsIcEENS2_IcEEEERiEvEENS4_IT_EERKT0_DpOT1_, symObjAddr: 0x2C040, symBinAddr: 0x100033570, symSize: 0xA8 }
  - { offsetInCU: 0x3C638, offset: 0x532EE, size: 0x8, addend: 0x0, symName: __ZNSt3__112construct_atB8ue170006I17VariableArrayNodeJRNS_10shared_ptrI17VariableContainerEERNS_12basic_stringIcNS_11char_traitsIcEENS_9allocatorIcEEEERiEPS1_EEPT_SG_DpOT0_, symObjAddr: 0x2C754, symBinAddr: 0x100033C84, symSize: 0x98 }
  - { offsetInCU: 0x3C6CE, offset: 0x53384, size: 0x8, addend: 0x0, symName: __ZNSt3__1plB8ue170006IcNS_11char_traitsIcEENS_9allocatorIcEEEENS_12basic_stringIT_T0_T1_EERKS9_PKS6_, symObjAddr: 0x2CE84, symBinAddr: 0x1000343B4, symSize: 0x11C }
  - { offsetInCU: 0x3C76F, offset: 0x53425, size: 0x8, addend: 0x0, symName: __ZNSt3__14copyB8ue170006IPKcPcEET0_T_S5_S4_, symObjAddr: 0x2D4FC, symBinAddr: 0x1000349D0, symSize: 0x40 }
  - { offsetInCU: 0x3C7C9, offset: 0x5347F, size: 0x8, addend: 0x0, symName: __ZNSt3__16__copyB8ue170006INS_17_ClassicAlgPolicyEPKcS3_PcEENS_4pairIT0_T2_EES6_T1_S7_, symObjAddr: 0x2D53C, symBinAddr: 0x100034A10, symSize: 0x44 }
  - { offsetInCU: 0x3C835, offset: 0x534EB, size: 0x8, addend: 0x0, symName: __ZNSt3__123__dispatch_copy_or_moveB8ue170006INS_17_ClassicAlgPolicyENS_11__copy_loopIS1_EENS_14__copy_trivialEPKcS6_PcEENS_4pairIT2_T4_EES9_T3_SA_, symObjAddr: 0x2D580, symBinAddr: 0x100034A54, symSize: 0x44 }
  - { offsetInCU: 0x3C8B3, offset: 0x53569, size: 0x8, addend: 0x0, symName: __ZNSt3__121__unwrap_and_dispatchB8ue170006INS_10__overloadINS_11__copy_loopINS_17_ClassicAlgPolicyEEENS_14__copy_trivialEEEPKcS8_PcLi0EEENS_4pairIT0_T2_EESB_T1_SC_, symObjAddr: 0x2D5C4, symBinAddr: 0x100034A98, symSize: 0xB4 }
  - { offsetInCU: 0x3C941, offset: 0x535F7, size: 0x8, addend: 0x0, symName: __ZNSt3__114__unwrap_rangeB8ue170006IPKcS2_EEDaT_T0_, symObjAddr: 0x2D678, symBinAddr: 0x100034B4C, symSize: 0x3C }
  - { offsetInCU: 0x3CA90, offset: 0x53746, size: 0x8, addend: 0x0, symName: __ZNSt3__113__unwrap_iterB8ue170006IPcNS_18__unwrap_iter_implIS1_Lb1EEELi0EEEDTclsrT0_8__unwrapclsr3stdE7declvalIT_EEEES5_, symObjAddr: 0x2D6FC, symBinAddr: 0x100034BD0, symSize: 0x24 }
  - { offsetInCU: 0x3CAD4, offset: 0x5378A, size: 0x8, addend: 0x0, symName: __ZNSt3__19make_pairB8ue170006IPKcPcEENS_4pairINS_18__unwrap_ref_decayIT_E4typeENS5_IT0_E4typeEEEOS6_OS9_, symObjAddr: 0x2D720, symBinAddr: 0x100034BF4, symSize: 0x38 }
  - { offsetInCU: 0x3CB23, offset: 0x537D9, size: 0x8, addend: 0x0, symName: __ZNSt3__114__rewrap_rangeB8ue170006IPKcS2_S2_EET0_S3_T1_, symObjAddr: 0x2D758, symBinAddr: 0x100034C2C, symSize: 0x2C }
  - { offsetInCU: 0x3CB78, offset: 0x5382E, size: 0x8, addend: 0x0, symName: __ZNSt3__113__rewrap_iterB8ue170006IPcS1_NS_18__unwrap_iter_implIS1_Lb1EEEEET_S4_T0_, symObjAddr: 0x2D784, symBinAddr: 0x100034C58, symSize: 0x3C }
  - { offsetInCU: 0x3CCE9, offset: 0x5399F, size: 0x8, addend: 0x0, symName: __ZNSt3__113__unwrap_iterB8ue170006IPKcNS_18__unwrap_iter_implIS2_Lb1EEELi0EEEDTclsrT0_8__unwrapclsr3stdE7declvalIT_EEEES6_, symObjAddr: 0x2D818, symBinAddr: 0x100034CEC, symSize: 0x24 }
  - { offsetInCU: 0x3CD80, offset: 0x53A36, size: 0x8, addend: 0x0, symName: __ZNSt3__119__copy_trivial_implB8ue170006IKccEENS_4pairIPT_PT0_EES4_S4_S6_, symObjAddr: 0x2D8D0, symBinAddr: 0x100034DA4, symSize: 0x78 }
  - { offsetInCU: 0x3CDE8, offset: 0x53A9E, size: 0x8, addend: 0x0, symName: __ZNSt3__119__constexpr_memmoveB8ue170006IcKcLi0EEEPT_S3_PT0_NS_15__element_countE, symObjAddr: 0x2D948, symBinAddr: 0x100034E1C, symSize: 0x64 }
  - { offsetInCU: 0x3CE56, offset: 0x53B0C, size: 0x8, addend: 0x0, symName: __ZNSt3__19make_pairB8ue170006IRPKcPcEENS_4pairINS_18__unwrap_ref_decayIT_E4typeENS6_IT0_E4typeEEEOS7_OSA_, symObjAddr: 0x2D9AC, symBinAddr: 0x100034E80, symSize: 0x38 }
  - { offsetInCU: 0x3CEF8, offset: 0x53BAE, size: 0x8, addend: 0x0, symName: __ZNSt3__113__rewrap_iterB8ue170006IPKcS2_NS_18__unwrap_iter_implIS2_Lb1EEEEET_S5_T0_, symObjAddr: 0x2DB14, symBinAddr: 0x100034FE8, symSize: 0x3C }
  - { offsetInCU: 0x3CF4D, offset: 0x53C03, size: 0x8, addend: 0x0, symName: __ZNSt3__16fill_nB8ue170006IPcmcEET_S2_T0_RKT1_, symObjAddr: 0x2DBE0, symBinAddr: 0x1000350B4, symSize: 0x44 }
  - { offsetInCU: 0x3CFB0, offset: 0x53C66, size: 0x8, addend: 0x0, symName: __ZNSt3__18__fill_nB8ue170006IPcmcEET_S2_T0_RKT1_, symObjAddr: 0x2DC24, symBinAddr: 0x1000350F8, symSize: 0x64 }
  - { offsetInCU: 0x3D013, offset: 0x53CC9, size: 0x8, addend: 0x0, symName: __ZNSt3__121__convert_to_integralB8ue170006Em, symObjAddr: 0x2DC88, symBinAddr: 0x10003515C, symSize: 0x14 }
  - { offsetInCU: 0x3D1E9, offset: 0x53E9F, size: 0x8, addend: 0x0, symName: __ZNSt3__112construct_atB8ue170006INS_15__bit_referenceINS_6vectorIbNS_9allocatorIbEEEELb1EEEJS6_EPS6_EEPT_S9_DpOT0_, symObjAddr: 0x2DF10, symBinAddr: 0x1000353E4, symSize: 0x2C }
  - { offsetInCU: 0x3D259, offset: 0x53F0F, size: 0x8, addend: 0x0, symName: __ZNSt3__110destroy_atB8ue170006INS_15__bit_referenceINS_6vectorIbNS_9allocatorIbEEEELb1EEELi0EEEvPT_, symObjAddr: 0x2E074, symBinAddr: 0x100035548, symSize: 0x24 }
  - { offsetInCU: 0x3D291, offset: 0x53F47, size: 0x8, addend: 0x0, symName: __ZNSt3__112__destroy_atB8ue170006INS_15__bit_referenceINS_6vectorIbNS_9allocatorIbEEEELb1EEELi0EEEvPT_, symObjAddr: 0x2E098, symBinAddr: 0x10003556C, symSize: 0x10 }
  - { offsetInCU: 0x3D2C7, offset: 0x53F7D, size: 0x8, addend: 0x0, symName: __ZNSt3__112construct_atB8ue170006INS_15__bit_referenceINS_6vectorIbNS_9allocatorIbEEEELb1EEEJRKS6_EPS6_EEPT_SB_DpOT0_, symObjAddr: 0x2E134, symBinAddr: 0x100035608, symSize: 0x2C }
  - { offsetInCU: 0x3D337, offset: 0x53FED, size: 0x8, addend: 0x0, symName: __ZNSt3__110destroy_atB8ue170006I17VariableArrayNodeLi0EEEvPT_, symObjAddr: 0x2E314, symBinAddr: 0x1000357E8, symSize: 0x24 }
  - { offsetInCU: 0x3D36E, offset: 0x54024, size: 0x8, addend: 0x0, symName: __ZNSt3__112__destroy_atB8ue170006I17VariableArrayNodeLi0EEEvPT_, symObjAddr: 0x2E338, symBinAddr: 0x10003580C, symSize: 0x2C }
  - { offsetInCU: 0x3D3D8, offset: 0x5408E, size: 0x8, addend: 0x0, symName: __ZNSt3__115allocate_sharedB8ue170006I18TypeConversionNodeNS_9allocatorIS1_EEJRNS_10shared_ptrI17VariableContainerEERNS_12basic_stringIcNS_11char_traitsIcEENS2_IcEEEE4TypeEvEENS4_IT_EERKT0_DpOT1_, symObjAddr: 0x2E638, symBinAddr: 0x100035B0C, symSize: 0xA8 }
  - { offsetInCU: 0x3D7BF, offset: 0x54475, size: 0x8, addend: 0x0, symName: __ZNSt3__112construct_atB8ue170006I18TypeConversionNodeJRNS_10shared_ptrI17VariableContainerEERNS_12basic_stringIcNS_11char_traitsIcEENS_9allocatorIcEEEE4TypeEPS1_EEPT_SG_DpOT0_, symObjAddr: 0x2ED4C, symBinAddr: 0x100036220, symSize: 0x98 }
  - { offsetInCU: 0x3D855, offset: 0x5450B, size: 0x8, addend: 0x0, symName: __ZNSt3__112construct_atB8ue170006IiJEPiEEPT_S3_DpOT0_, symObjAddr: 0x305A8, symBinAddr: 0x100037A7C, symSize: 0x20 }
  - { offsetInCU: 0x3D8B1, offset: 0x54567, size: 0x8, addend: 0x0, symName: __ZNSt3__142__uninitialized_allocator_move_if_noexceptB8ue170006INS_9allocatorIiEENS_16reverse_iteratorIPiEES5_ivEET1_RT_T0_S9_S6_, symObjAddr: 0x308C0, symBinAddr: 0x100037D94, symSize: 0x78 }
  - { offsetInCU: 0x3D92F, offset: 0x545E5, size: 0x8, addend: 0x0, symName: __ZNSt3__14swapB8ue170006IPiEENS_9enable_ifIXaasr21is_move_constructibleIT_EE5valuesr18is_move_assignableIS3_EE5valueEvE4typeERS3_S6_, symObjAddr: 0x30984, symBinAddr: 0x100037E58, symSize: 0x3C }
  - { offsetInCU: 0x3D980, offset: 0x54636, size: 0x8, addend: 0x0, symName: __ZNSt3__14moveB8ue170006INS_16reverse_iteratorIPiEES3_EET0_T_S5_S4_, symObjAddr: 0x309C0, symBinAddr: 0x100037E94, symSize: 0x78 }
  - { offsetInCU: 0x3D9DA, offset: 0x54690, size: 0x8, addend: 0x0, symName: __ZNSt3__16__moveB8ue170006INS_17_ClassicAlgPolicyENS_16reverse_iteratorIPiEES4_S4_EENS_4pairIT0_T2_EES6_T1_S7_, symObjAddr: 0x30A38, symBinAddr: 0x100037F0C, symSize: 0x64 }
  - { offsetInCU: 0x3DA46, offset: 0x546FC, size: 0x8, addend: 0x0, symName: __ZNSt3__123__dispatch_copy_or_moveB8ue170006INS_17_ClassicAlgPolicyENS_11__move_loopIS1_EENS_14__move_trivialENS_16reverse_iteratorIPiEES7_S7_EENS_4pairIT2_T4_EES9_T3_SA_, symObjAddr: 0x30A9C, symBinAddr: 0x100037F70, symSize: 0x64 }
  - { offsetInCU: 0x3DAC4, offset: 0x5477A, size: 0x8, addend: 0x0, symName: __ZNSt3__121__unwrap_and_dispatchB8ue170006INS_10__overloadINS_11__move_loopINS_17_ClassicAlgPolicyEEENS_14__move_trivialEEENS_16reverse_iteratorIPiEES9_S9_Li0EEENS_4pairIT0_T2_EESB_T1_SC_, symObjAddr: 0x30B00, symBinAddr: 0x100037FD4, symSize: 0x12C }
  - { offsetInCU: 0x3DB54, offset: 0x5480A, size: 0x8, addend: 0x0, symName: __ZNSt3__114__unwrap_rangeB8ue170006INS_16reverse_iteratorIPiEES3_EEDaT_T0_, symObjAddr: 0x30C2C, symBinAddr: 0x100038100, symSize: 0x4C }
  - { offsetInCU: 0x3DCC6, offset: 0x5497C, size: 0x8, addend: 0x0, symName: __ZNSt3__113__unwrap_iterB8ue170006INS_16reverse_iteratorIPiEENS_18__unwrap_iter_implIS3_Lb0EEELi0EEEDTclsrT0_8__unwrapclsr3stdE7declvalIT_EEEES7_, symObjAddr: 0x30D18, symBinAddr: 0x1000381EC, symSize: 0x44 }
  - { offsetInCU: 0x3DD0A, offset: 0x549C0, size: 0x8, addend: 0x0, symName: __ZNSt3__19make_pairB8ue170006INS_16reverse_iteratorIPiEES3_EENS_4pairINS_18__unwrap_ref_decayIT_E4typeENS5_IT0_E4typeEEEOS6_OS9_, symObjAddr: 0x30D5C, symBinAddr: 0x100038230, symSize: 0x38 }
  - { offsetInCU: 0x3DD59, offset: 0x54A0F, size: 0x8, addend: 0x0, symName: __ZNSt3__114__rewrap_rangeB8ue170006INS_16reverse_iteratorIPiEES3_S3_EET0_S4_T1_, symObjAddr: 0x30D94, symBinAddr: 0x100038268, symSize: 0x5C }
  - { offsetInCU: 0x3DDAE, offset: 0x54A64, size: 0x8, addend: 0x0, symName: __ZNSt3__113__rewrap_iterB8ue170006INS_16reverse_iteratorIPiEES3_NS_18__unwrap_iter_implIS3_Lb0EEEEET_S6_T0_, symObjAddr: 0x30DF0, symBinAddr: 0x1000382C4, symSize: 0x74 }
  - { offsetInCU: 0x3DE53, offset: 0x54B09, size: 0x8, addend: 0x0, symName: __ZNSt3__1neB8ue170006IPiS1_EEbRKNS_16reverse_iteratorIT_EERKNS2_IT0_EE, symObjAddr: 0x30F58, symBinAddr: 0x10003842C, symSize: 0x48 }
  - { offsetInCU: 0x3E12D, offset: 0x54DE3, size: 0x8, addend: 0x0, symName: __ZNSt3__112construct_atB8ue170006INS_6vectorIiNS_9allocatorIiEEEEJRS4_EPS4_EEPT_S8_DpOT0_, symObjAddr: 0x31704, symBinAddr: 0x100038BD8, symSize: 0x3C }
  - { offsetInCU: 0x3E19D, offset: 0x54E53, size: 0x8, addend: 0x0, symName: __ZNSt3__110destroy_atB8ue170006INS_6vectorIiNS_9allocatorIiEEEELi0EEEvPT_, symObjAddr: 0x31878, symBinAddr: 0x100038D4C, symSize: 0x24 }
  - { offsetInCU: 0x3E1D4, offset: 0x54E8A, size: 0x8, addend: 0x0, symName: __ZNSt3__112__destroy_atB8ue170006INS_6vectorIiNS_9allocatorIiEEEELi0EEEvPT_, symObjAddr: 0x3189C, symBinAddr: 0x100038D70, symSize: 0x24 }
  - { offsetInCU: 0x3E20B, offset: 0x54EC1, size: 0x8, addend: 0x0, symName: __ZNSt3__112construct_atB8ue170006INS_6vectorIiNS_9allocatorIiEEEEJRKS4_EPS4_EEPT_S9_DpOT0_, symObjAddr: 0x3194C, symBinAddr: 0x100038E20, symSize: 0x3C }
  - { offsetInCU: 0x3E27B, offset: 0x54F31, size: 0x8, addend: 0x0, symName: __ZNSt3__112construct_atB8ue170006INS_6vectorIiNS_9allocatorIiEEEEJS4_EPS4_EEPT_S7_DpOT0_, symObjAddr: 0x31A14, symBinAddr: 0x100038EE8, symSize: 0x3C }
  - { offsetInCU: 0x3E2EB, offset: 0x54FA1, size: 0x8, addend: 0x0, symName: __ZNSt3__14copyB8ue170006INS_6vectorIbNS_9allocatorIbEEEELb1EEENS_14__bit_iteratorIT_Lb0EXLi0EEEENS5_IS6_XT0_EXLi0EEEES8_S7_, symObjAddr: 0x32054, symBinAddr: 0x100039528, symSize: 0xD4 }
  - { offsetInCU: 0x3E34B, offset: 0x55001, size: 0x8, addend: 0x0, symName: __ZNSt3__16fill_nB8ue170006INS_6vectorIbNS_9allocatorIbEEEEEEvNS_14__bit_iteratorIT_Lb0EXLi0EEEENS6_9size_typeEb, symObjAddr: 0x3221C, symBinAddr: 0x1000396F0, symSize: 0x94 }
  - { offsetInCU: 0x3E39D, offset: 0x55053, size: 0x8, addend: 0x0, symName: __ZNSt3__16__copyB8ue170006INS_17_ClassicAlgPolicyENS_14__bit_iteratorINS_6vectorIbNS_9allocatorIbEEEELb0ELm0EEES7_S7_EENS_4pairIT0_T2_EES9_T1_SA_, symObjAddr: 0x32578, symBinAddr: 0x100039A4C, symSize: 0x88 }
  - { offsetInCU: 0x3E40C, offset: 0x550C2, size: 0x8, addend: 0x0, symName: __ZNSt3__123__dispatch_copy_or_moveB8ue170006INS_17_ClassicAlgPolicyENS_11__copy_loopIS1_EENS_14__copy_trivialENS_14__bit_iteratorINS_6vectorIbNS_9allocatorIbEEEELb0ELm0EEESA_SA_EENS_4pairIT2_T4_EESC_T3_SD_, symObjAddr: 0x32600, symBinAddr: 0x100039AD4, symSize: 0x88 }
  - { offsetInCU: 0x3E48D, offset: 0x55143, size: 0x8, addend: 0x0, symName: __ZNSt3__121__unwrap_and_dispatchB8ue170006INS_10__overloadINS_11__copy_loopINS_17_ClassicAlgPolicyEEENS_14__copy_trivialEEENS_14__bit_iteratorINS_6vectorIbNS_9allocatorIbEEEELb0ELm0EEESC_SC_Li0EEENS_4pairIT0_T2_EESE_T1_SF_, symObjAddr: 0x32688, symBinAddr: 0x100039B5C, symSize: 0x15C }
  - { offsetInCU: 0x3E520, offset: 0x551D6, size: 0x8, addend: 0x0, symName: __ZNSt3__114__unwrap_rangeB8ue170006INS_14__bit_iteratorINS_6vectorIbNS_9allocatorIbEEEELb0ELm0EEES6_EEDaT_T0_, symObjAddr: 0x327E4, symBinAddr: 0x100039CB8, symSize: 0x6C }
  - { offsetInCU: 0x3E642, offset: 0x552F8, size: 0x8, addend: 0x0, symName: __ZNSt3__19make_pairB8ue170006INS_14__bit_iteratorINS_6vectorIbNS_9allocatorIbEEEELb0ELm0EEES6_EENS_4pairINS_18__unwrap_ref_decayIT_E4typeENS8_IT0_E4typeEEEOS9_OSC_, symObjAddr: 0x32908, symBinAddr: 0x100039DDC, symSize: 0x40 }
  - { offsetInCU: 0x3E691, offset: 0x55347, size: 0x8, addend: 0x0, symName: __ZNSt3__114__rewrap_rangeB8ue170006INS_14__bit_iteratorINS_6vectorIbNS_9allocatorIbEEEELb0ELm0EEES6_S6_EET0_S7_T1_, symObjAddr: 0x32948, symBinAddr: 0x100039E1C, symSize: 0x6C }
  - { offsetInCU: 0x3E739, offset: 0x553EF, size: 0x8, addend: 0x0, symName: __ZNSt3__1miB8ue170006ERKNS_14__bit_iteratorINS_6vectorIbNS_9allocatorIbEEEELb1ELm0EEES7_, symObjAddr: 0x33314, symBinAddr: 0x10003A7E8, symSize: 0x48 }
  - { offsetInCU: 0x3E775, offset: 0x5542B, size: 0x8, addend: 0x0, symName: __ZNSt3__13minB8ue170006IlEERKT_S3_S3_, symObjAddr: 0x3335C, symBinAddr: 0x10003A830, symSize: 0x2C }
  - { offsetInCU: 0x3E7B8, offset: 0x5546E, size: 0x8, addend: 0x0, symName: __ZNSt3__112__to_addressB8ue170006IKmEEPT_S3_, symObjAddr: 0x333CC, symBinAddr: 0x10003A8A0, symSize: 0x14 }
  - { offsetInCU: 0x3E7ED, offset: 0x554A3, size: 0x8, addend: 0x0, symName: __ZNSt3__112__to_addressB8ue170006ImEEPT_S2_, symObjAddr: 0x333E0, symBinAddr: 0x10003A8B4, symSize: 0x14 }
  - { offsetInCU: 0x3E822, offset: 0x554D8, size: 0x8, addend: 0x0, symName: __ZNSt3__13minB8ue170006IlNS_6__lessIvvEEEERKT_S5_S5_T0_, symObjAddr: 0x333F4, symBinAddr: 0x10003A8C8, symSize: 0x54 }
  - { offsetInCU: 0x3E87C, offset: 0x55532, size: 0x8, addend: 0x0, symName: __ZNSt3__14copyB8ue170006IPKmPmEET0_T_S5_S4_, symObjAddr: 0x3347C, symBinAddr: 0x10003A950, symSize: 0x40 }
  - { offsetInCU: 0x3E8D6, offset: 0x5558C, size: 0x8, addend: 0x0, symName: __ZNSt3__16__copyB8ue170006INS_17_ClassicAlgPolicyEPKmS3_PmEENS_4pairIT0_T2_EES6_T1_S7_, symObjAddr: 0x334BC, symBinAddr: 0x10003A990, symSize: 0x44 }
  - { offsetInCU: 0x3E942, offset: 0x555F8, size: 0x8, addend: 0x0, symName: __ZNSt3__123__dispatch_copy_or_moveB8ue170006INS_17_ClassicAlgPolicyENS_11__copy_loopIS1_EENS_14__copy_trivialEPKmS6_PmEENS_4pairIT2_T4_EES9_T3_SA_, symObjAddr: 0x33500, symBinAddr: 0x10003A9D4, symSize: 0x44 }
  - { offsetInCU: 0x3E9C0, offset: 0x55676, size: 0x8, addend: 0x0, symName: __ZNSt3__121__unwrap_and_dispatchB8ue170006INS_10__overloadINS_11__copy_loopINS_17_ClassicAlgPolicyEEENS_14__copy_trivialEEEPKmS8_PmLi0EEENS_4pairIT0_T2_EESB_T1_SC_, symObjAddr: 0x33544, symBinAddr: 0x10003AA18, symSize: 0xB4 }
  - { offsetInCU: 0x3EA4E, offset: 0x55704, size: 0x8, addend: 0x0, symName: __ZNSt3__114__unwrap_rangeB8ue170006IPKmS2_EEDaT_T0_, symObjAddr: 0x335F8, symBinAddr: 0x10003AACC, symSize: 0x3C }
  - { offsetInCU: 0x3EB9D, offset: 0x55853, size: 0x8, addend: 0x0, symName: __ZNSt3__113__unwrap_iterB8ue170006IPmNS_18__unwrap_iter_implIS1_Lb1EEELi0EEEDTclsrT0_8__unwrapclsr3stdE7declvalIT_EEEES5_, symObjAddr: 0x3367C, symBinAddr: 0x10003AB50, symSize: 0x24 }
  - { offsetInCU: 0x3EBE1, offset: 0x55897, size: 0x8, addend: 0x0, symName: __ZNSt3__19make_pairB8ue170006IPKmPmEENS_4pairINS_18__unwrap_ref_decayIT_E4typeENS5_IT0_E4typeEEEOS6_OS9_, symObjAddr: 0x336A0, symBinAddr: 0x10003AB74, symSize: 0x38 }
  - { offsetInCU: 0x3EC30, offset: 0x558E6, size: 0x8, addend: 0x0, symName: __ZNSt3__114__rewrap_rangeB8ue170006IPKmS2_S2_EET0_S3_T1_, symObjAddr: 0x336D8, symBinAddr: 0x10003ABAC, symSize: 0x2C }
  - { offsetInCU: 0x3EC85, offset: 0x5593B, size: 0x8, addend: 0x0, symName: __ZNSt3__113__rewrap_iterB8ue170006IPmS1_NS_18__unwrap_iter_implIS1_Lb1EEEEET_S4_T0_, symObjAddr: 0x33704, symBinAddr: 0x10003ABD8, symSize: 0x3C }
  - { offsetInCU: 0x3EDF6, offset: 0x55AAC, size: 0x8, addend: 0x0, symName: __ZNSt3__113__unwrap_iterB8ue170006IPKmNS_18__unwrap_iter_implIS2_Lb1EEELi0EEEDTclsrT0_8__unwrapclsr3stdE7declvalIT_EEEES6_, symObjAddr: 0x33798, symBinAddr: 0x10003AC6C, symSize: 0x24 }
  - { offsetInCU: 0x3EE8D, offset: 0x55B43, size: 0x8, addend: 0x0, symName: __ZNSt3__119__copy_trivial_implB8ue170006IKmmEENS_4pairIPT_PT0_EES4_S4_S6_, symObjAddr: 0x33850, symBinAddr: 0x10003AD24, symSize: 0x80 }
  - { offsetInCU: 0x3EEF5, offset: 0x55BAB, size: 0x8, addend: 0x0, symName: __ZNSt3__119__constexpr_memmoveB8ue170006ImKmLi0EEEPT_S3_PT0_NS_15__element_countE, symObjAddr: 0x338D0, symBinAddr: 0x10003ADA4, symSize: 0x64 }
  - { offsetInCU: 0x3EF63, offset: 0x55C19, size: 0x8, addend: 0x0, symName: __ZNSt3__19make_pairB8ue170006IRPKmPmEENS_4pairINS_18__unwrap_ref_decayIT_E4typeENS6_IT0_E4typeEEEOS7_OSA_, symObjAddr: 0x33934, symBinAddr: 0x10003AE08, symSize: 0x38 }
  - { offsetInCU: 0x3F005, offset: 0x55CBB, size: 0x8, addend: 0x0, symName: __ZNSt3__113__rewrap_iterB8ue170006IPKmS2_NS_18__unwrap_iter_implIS2_Lb1EEEEET_S5_T0_, symObjAddr: 0x33A9C, symBinAddr: 0x10003AF70, symSize: 0x3C }
  - { offsetInCU: 0x3F05A, offset: 0x55D10, size: 0x8, addend: 0x0, symName: __ZNSt3__14swapB8ue170006IPmEENS_9enable_ifIXaasr21is_move_constructibleIT_EE5valuesr18is_move_assignableIS3_EE5valueEvE4typeERS3_S6_, symObjAddr: 0x33B78, symBinAddr: 0x10003B04C, symSize: 0x3C }
  - { offsetInCU: 0x3F0AC, offset: 0x55D62, size: 0x8, addend: 0x0, symName: __ZNSt3__116__swap_allocatorB8ue170006INS_9allocatorImEEEEvRT_S4_NS_17integral_constantIbLb0EEE, symObjAddr: 0x33BB4, symBinAddr: 0x10003B088, symSize: 0x14 }
  - { offsetInCU: 0x3F0EC, offset: 0x55DA2, size: 0x8, addend: 0x0, symName: __ZNSt3__16fill_nB8ue170006IPmmmEET_S2_T0_RKT1_, symObjAddr: 0x33E84, symBinAddr: 0x10003B358, symSize: 0x44 }
  - { offsetInCU: 0x3F14F, offset: 0x55E05, size: 0x8, addend: 0x0, symName: __ZNSt3__18__fill_nB8ue170006IPmmmEET_S2_T0_RKT1_, symObjAddr: 0x33EC8, symBinAddr: 0x10003B39C, symSize: 0x64 }
  - { offsetInCU: 0x3F1B2, offset: 0x55E68, size: 0x8, addend: 0x0, symName: __ZNSt3__16fill_nB8ue170006IPmmiEET_S2_T0_RKT1_, symObjAddr: 0x33F2C, symBinAddr: 0x10003B400, symSize: 0x44 }
  - { offsetInCU: 0x3F215, offset: 0x55ECB, size: 0x8, addend: 0x0, symName: __ZNSt3__18__fill_nB8ue170006IPmmiEET_S2_T0_RKT1_, symObjAddr: 0x33F70, symBinAddr: 0x10003B444, symSize: 0x64 }
  - { offsetInCU: 0x3F454, offset: 0x5610A, size: 0x8, addend: 0x0, symName: __ZNSt3__112construct_atB8ue170006INS_6vectorIbNS_9allocatorIbEEEEJRS4_EPS4_EEPT_S8_DpOT0_, symObjAddr: 0x34224, symBinAddr: 0x10003B6F8, symSize: 0x3C }
  - { offsetInCU: 0x3F4C4, offset: 0x5617A, size: 0x8, addend: 0x0, symName: __ZNSt3__110destroy_atB8ue170006INS_6vectorIbNS_9allocatorIbEEEELi0EEEvPT_, symObjAddr: 0x34398, symBinAddr: 0x10003B86C, symSize: 0x24 }
  - { offsetInCU: 0x3F4FB, offset: 0x561B1, size: 0x8, addend: 0x0, symName: __ZNSt3__112__destroy_atB8ue170006INS_6vectorIbNS_9allocatorIbEEEELi0EEEvPT_, symObjAddr: 0x343BC, symBinAddr: 0x10003B890, symSize: 0x24 }
  - { offsetInCU: 0x3F532, offset: 0x561E8, size: 0x8, addend: 0x0, symName: __ZNSt3__112construct_atB8ue170006INS_6vectorIbNS_9allocatorIbEEEEJRKS4_EPS4_EEPT_S9_DpOT0_, symObjAddr: 0x3446C, symBinAddr: 0x10003B940, symSize: 0x3C }
  - { offsetInCU: 0x3F5A2, offset: 0x56258, size: 0x8, addend: 0x0, symName: __ZNSt3__112construct_atB8ue170006INS_6vectorIbNS_9allocatorIbEEEEJS4_EPS4_EEPT_S7_DpOT0_, symObjAddr: 0x34534, symBinAddr: 0x10003BA08, symSize: 0x3C }
  - { offsetInCU: 0x3F612, offset: 0x562C8, size: 0x8, addend: 0x0, symName: __ZNSt3__110destroy_atB8ue170006I18TypeConversionNodeLi0EEEvPT_, symObjAddr: 0x3484C, symBinAddr: 0x10003BD20, symSize: 0x24 }
  - { offsetInCU: 0x3F649, offset: 0x562FF, size: 0x8, addend: 0x0, symName: __ZNSt3__112__destroy_atB8ue170006I18TypeConversionNodeLi0EEEvPT_, symObjAddr: 0x34870, symBinAddr: 0x10003BD44, symSize: 0x2C }
  - { offsetInCU: 0x3F6B3, offset: 0x56369, size: 0x8, addend: 0x0, symName: __ZNSt3__115allocate_sharedB8ue170006I30FunctionVariableDefinitionNodeNS_9allocatorIS1_EEJRNS_10shared_ptrI17VariableContainerEERNS_12basic_stringIcNS_11char_traitsIcEENS2_IcEEEEEvEENS4_IT_EERKT0_DpOT1_, symObjAddr: 0x34B70, symBinAddr: 0x10003C044, symSize: 0xA0 }
  - { offsetInCU: 0x3FA7B, offset: 0x56731, size: 0x8, addend: 0x0, symName: __ZNSt3__112construct_atB8ue170006I30FunctionVariableDefinitionNodeJRNS_10shared_ptrI17VariableContainerEERNS_12basic_stringIcNS_11char_traitsIcEENS_9allocatorIcEEEEEPS1_EEPT_SF_DpOT0_, symObjAddr: 0x35264, symBinAddr: 0x10003C738, symSize: 0x44 }
  - { offsetInCU: 0x3FAFE, offset: 0x567B4, size: 0x8, addend: 0x0, symName: __ZNSt3__111make_sharedB8ue170006I8VariableJRNS_3anyERbEvEENS_10shared_ptrIT_EEDpOT0_, symObjAddr: 0x35988, symBinAddr: 0x10003CE5C, symSize: 0x48 }
  - { offsetInCU: 0x3FB55, offset: 0x5680B, size: 0x8, addend: 0x0, symName: __ZNSt3__115allocate_sharedB8ue170006I8VariableNS_9allocatorIS1_EEJRNS_3anyERbEvEENS_10shared_ptrIT_EERKT0_DpOT1_, symObjAddr: 0x359D0, symBinAddr: 0x10003CEA4, symSize: 0xA0 }
  - { offsetInCU: 0x3FBE2, offset: 0x56898, size: 0x8, addend: 0x0, symName: __ZNSt3__112construct_atB8ue170006I8VariableJRNS_3anyERbEPS1_EEPT_S7_DpOT0_, symObjAddr: 0x35BB4, symBinAddr: 0x10003D088, symSize: 0x4C }
  - { offsetInCU: 0x3FC8A, offset: 0x56940, size: 0x8, addend: 0x0, symName: __ZNSt3__112construct_atB8ue170006ImJmEPmEEPT_S3_DpOT0_, symObjAddr: 0x35F1C, symBinAddr: 0x10003D3F0, symSize: 0x2C }
  - { offsetInCU: 0x3FCFA, offset: 0x569B0, size: 0x8, addend: 0x0, symName: __ZNSt3__110destroy_atB8ue170006ImLi0EEEvPT_, symObjAddr: 0x36080, symBinAddr: 0x10003D554, symSize: 0x24 }
  - { offsetInCU: 0x3FD32, offset: 0x569E8, size: 0x8, addend: 0x0, symName: __ZNSt3__112__destroy_atB8ue170006ImLi0EEEvPT_, symObjAddr: 0x360A4, symBinAddr: 0x10003D578, symSize: 0x10 }
  - { offsetInCU: 0x3FD68, offset: 0x56A1E, size: 0x8, addend: 0x0, symName: __ZNSt3__112construct_atB8ue170006ImJRKmEPmEEPT_S5_DpOT0_, symObjAddr: 0x36140, symBinAddr: 0x10003D614, symSize: 0x2C }
  - { offsetInCU: 0x3FDD8, offset: 0x56A8E, size: 0x8, addend: 0x0, symName: __ZNSt3__110destroy_atB8ue170006I30FunctionVariableDefinitionNodeLi0EEEvPT_, symObjAddr: 0x3632C, symBinAddr: 0x10003D800, symSize: 0x24 }
  - { offsetInCU: 0x3FE0F, offset: 0x56AC5, size: 0x8, addend: 0x0, symName: __ZNSt3__112__destroy_atB8ue170006I30FunctionVariableDefinitionNodeLi0EEEvPT_, symObjAddr: 0x36350, symBinAddr: 0x10003D824, symSize: 0x2C }
  - { offsetInCU: 0x3FE79, offset: 0x56B2F, size: 0x8, addend: 0x0, symName: __ZNSt3__115allocate_sharedB8ue170006I17FunctionStartNodeNS_9allocatorIS1_EEJRNS_10shared_ptrI17VariableContainerEERNS_12basic_stringIcNS_11char_traitsIcEENS2_IcEEEE4TypeEvEENS4_IT_EERKT0_DpOT1_, symObjAddr: 0x365B4, symBinAddr: 0x10003DA88, symSize: 0xA8 }
  - { offsetInCU: 0x40260, offset: 0x56F16, size: 0x8, addend: 0x0, symName: __ZNSt3__112construct_atB8ue170006I17FunctionStartNodeJRNS_10shared_ptrI17VariableContainerEERNS_12basic_stringIcNS_11char_traitsIcEENS_9allocatorIcEEEE4TypeEPS1_EEPT_SG_DpOT0_, symObjAddr: 0x36CC8, symBinAddr: 0x10003E19C, symSize: 0x50 }
  - { offsetInCU: 0x402F6, offset: 0x56FAC, size: 0x8, addend: 0x0, symName: __ZNSt3__110destroy_atB8ue170006I17FunctionStartNodeLi0EEEvPT_, symObjAddr: 0x373B0, symBinAddr: 0x10003E884, symSize: 0x24 }
  - { offsetInCU: 0x4032D, offset: 0x56FE3, size: 0x8, addend: 0x0, symName: __ZNSt3__112__destroy_atB8ue170006I17FunctionStartNodeLi0EEEvPT_, symObjAddr: 0x373D4, symBinAddr: 0x10003E8A8, symSize: 0x2C }
  - { offsetInCU: 0x40397, offset: 0x5704D, size: 0x8, addend: 0x0, symName: __ZNSt3__115allocate_sharedB8ue170006I22FunctionDefinitionNodeNS_9allocatorIS1_EEJRNS_10shared_ptrI17VariableContainerEERNS_12basic_stringIcNS_11char_traitsIcEENS2_IcEEEERNS4_I7ASTNodeEEEvEENS4_IT_EERKT0_DpOT1_, symObjAddr: 0x37780, symBinAddr: 0x10003EC54, symSize: 0xA8 }
  - { offsetInCU: 0x4077E, offset: 0x57434, size: 0x8, addend: 0x0, symName: __ZNSt3__112construct_atB8ue170006I22FunctionDefinitionNodeJRNS_10shared_ptrI17VariableContainerEERNS_12basic_stringIcNS_11char_traitsIcEENS_9allocatorIcEEEERNS2_I7ASTNodeEEEPS1_EEPT_SI_DpOT0_, symObjAddr: 0x37E94, symBinAddr: 0x10003F368, symSize: 0x4C }
  - { offsetInCU: 0x40838, offset: 0x574EE, size: 0x8, addend: 0x0, symName: __ZNSt3__17launderB8ue170006IKNS_4pairIKNS_12basic_stringIcNS_11char_traitsIcEENS_9allocatorIcEEEENS_10shared_ptrI7ASTNodeEEEEEEPT_SF_, symObjAddr: 0x38AF0, symBinAddr: 0x10003FFC4, symSize: 0x24 }
  - { offsetInCU: 0x40870, offset: 0x57526, size: 0x8, addend: 0x0, symName: __ZNSt3__19__launderB8ue170006IKNS_4pairIKNS_12basic_stringIcNS_11char_traitsIcEENS_9allocatorIcEEEENS_10shared_ptrI7ASTNodeEEEEEEPT_SF_, symObjAddr: 0x38B14, symBinAddr: 0x10003FFE8, symSize: 0x14 }
  - { offsetInCU: 0x408E9, offset: 0x5759F, size: 0x8, addend: 0x0, symName: __ZNSt3__112construct_atB8ue170006INS_4pairIKNS_12basic_stringIcNS_11char_traitsIcEENS_9allocatorIcEEEENS_10shared_ptrI7ASTNodeEEEEJRS8_RSB_EPSC_EEPT_SH_DpOT0_, symObjAddr: 0x38E04, symBinAddr: 0x1000402D8, symSize: 0x44 }
  - { offsetInCU: 0x4096C, offset: 0x57622, size: 0x8, addend: 0x0, symName: __ZNSt3__110destroy_atB8ue170006I22FunctionDefinitionNodeLi0EEEvPT_, symObjAddr: 0x397A0, symBinAddr: 0x100040C74, symSize: 0x24 }
  - { offsetInCU: 0x409A3, offset: 0x57659, size: 0x8, addend: 0x0, symName: __ZNSt3__112__destroy_atB8ue170006I22FunctionDefinitionNodeLi0EEEvPT_, symObjAddr: 0x397C4, symBinAddr: 0x100040C98, symSize: 0x2C }
  - { offsetInCU: 0x40A0D, offset: 0x576C3, size: 0x8, addend: 0x0, symName: __ZNSt3__115allocate_sharedB8ue170006I16FunctionCallNodeNS_9allocatorIS1_EEJRNS_10shared_ptrI17VariableContainerEERNS_12basic_stringIcNS_11char_traitsIcEENS2_IcEEEEEvEENS4_IT_EERKT0_DpOT1_, symObjAddr: 0x39AC4, symBinAddr: 0x100040F98, symSize: 0xA0 }
  - { offsetInCU: 0x40DD5, offset: 0x57A8B, size: 0x8, addend: 0x0, symName: __ZNSt3__112construct_atB8ue170006I16FunctionCallNodeJRNS_10shared_ptrI17VariableContainerEERNS_12basic_stringIcNS_11char_traitsIcEENS_9allocatorIcEEEEEPS1_EEPT_SF_DpOT0_, symObjAddr: 0x3A1B8, symBinAddr: 0x10004168C, symSize: 0x44 }
  - { offsetInCU: 0x40E8B, offset: 0x57B41, size: 0x8, addend: 0x0, symName: __ZNSt3__18distanceB8ue170006IPNS_10shared_ptrI7ASTNodeEEEENS_15iterator_traitsIT_E15difference_typeES6_S6_, symObjAddr: 0x3AAB8, symBinAddr: 0x100041F8C, symSize: 0x2C }
  - { offsetInCU: 0x40ECE, offset: 0x57B84, size: 0x8, addend: 0x0, symName: __ZNSt3__14nextB8ue170006IPNS_10shared_ptrI7ASTNodeEEEENS_9enable_ifIXsr29__has_input_iterator_categoryIT_EE5valueES6_E4typeES6_NS_15iterator_traitsIS6_E15difference_typeE, symObjAddr: 0x3AAE4, symBinAddr: 0x100041FB8, symSize: 0x34 }
  - { offsetInCU: 0x40F11, offset: 0x57BC7, size: 0x8, addend: 0x0, symName: __ZNSt3__14copyB8ue170006IPNS_10shared_ptrI7ASTNodeEES4_EET0_T_S6_S5_, symObjAddr: 0x3AB18, symBinAddr: 0x100041FEC, symSize: 0x40 }
  - { offsetInCU: 0x40F6B, offset: 0x57C21, size: 0x8, addend: 0x0, symName: __ZNSt3__16__copyB8ue170006INS_17_ClassicAlgPolicyEPNS_10shared_ptrI7ASTNodeEES5_S5_EENS_4pairIT0_T2_EES7_T1_S8_, symObjAddr: 0x3ABE4, symBinAddr: 0x1000420B8, symSize: 0x44 }
  - { offsetInCU: 0x40FD7, offset: 0x57C8D, size: 0x8, addend: 0x0, symName: __ZNSt3__130__uninitialized_allocator_copyB8ue170006INS_9allocatorINS_10shared_ptrI7ASTNodeEEEEPS4_S6_S6_EET2_RT_T0_T1_S7_, symObjAddr: 0x3ADB4, symBinAddr: 0x100042288, symSize: 0x80 }
  - { offsetInCU: 0x41074, offset: 0x57D2A, size: 0x8, addend: 0x0, symName: __ZNSt3__114__unwrap_rangeB8ue170006IPNS_10shared_ptrI7ASTNodeEES4_EEDaT_T0_, symObjAddr: 0x3AE34, symBinAddr: 0x100042308, symSize: 0x3C }
  - { offsetInCU: 0x410C0, offset: 0x57D76, size: 0x8, addend: 0x0, symName: __ZNSt3__135__uninitialized_allocator_copy_implB8ue170006INS_9allocatorINS_10shared_ptrI7ASTNodeEEEEPS4_S6_S6_EET2_RT_T0_T1_S7_, symObjAddr: 0x3AE70, symBinAddr: 0x100042344, symSize: 0xF4 }
  - { offsetInCU: 0x4115E, offset: 0x57E14, size: 0x8, addend: 0x0, symName: __ZNSt3__113__unwrap_iterB8ue170006IPNS_10shared_ptrI7ASTNodeEENS_18__unwrap_iter_implIS4_Lb1EEELi0EEEDTclsrT0_8__unwrapclsr3stdE7declvalIT_EEEES8_, symObjAddr: 0x3AF64, symBinAddr: 0x100042438, symSize: 0x24 }
  - { offsetInCU: 0x411A2, offset: 0x57E58, size: 0x8, addend: 0x0, symName: __ZNSt3__113__rewrap_iterB8ue170006IPNS_10shared_ptrI7ASTNodeEES4_NS_18__unwrap_iter_implIS4_Lb1EEEEET_S7_T0_, symObjAddr: 0x3AF88, symBinAddr: 0x10004245C, symSize: 0x3C }
  - { offsetInCU: 0x4131B, offset: 0x57FD1, size: 0x8, addend: 0x0, symName: __ZNSt3__122__make_exception_guardB8ue170006INS_29_AllocatorDestroyRangeReverseINS_9allocatorINS_10shared_ptrI7ASTNodeEEEEPS5_EEEENS_28__exception_guard_exceptionsIT_EESA_, symObjAddr: 0x3B08C, symBinAddr: 0x100042560, symSize: 0x4C }
  - { offsetInCU: 0x41351, offset: 0x58007, size: 0x8, addend: 0x0, symName: __ZNSt3__112construct_atB8ue170006INS_10shared_ptrI7ASTNodeEEJRS3_EPS3_EEPT_S7_DpOT0_, symObjAddr: 0x3B230, symBinAddr: 0x100042704, symSize: 0x3C }
  - { offsetInCU: 0x413C1, offset: 0x58077, size: 0x8, addend: 0x0, symName: __ZNSt3__119__allocator_destroyB8ue170006INS_9allocatorINS_10shared_ptrI7ASTNodeEEEENS_16reverse_iteratorIPS4_EES8_EEvRT_T0_T1_, symObjAddr: 0x3B324, symBinAddr: 0x1000427F8, symSize: 0x70 }
  - { offsetInCU: 0x41477, offset: 0x5812D, size: 0x8, addend: 0x0, symName: __ZNSt3__123__dispatch_copy_or_moveB8ue170006INS_17_ClassicAlgPolicyENS_11__copy_loopIS1_EENS_14__copy_trivialEPNS_10shared_ptrI7ASTNodeEES8_S8_EENS_4pairIT2_T4_EESA_T3_SB_, symObjAddr: 0x3B408, symBinAddr: 0x1000428DC, symSize: 0x44 }
  - { offsetInCU: 0x414F5, offset: 0x581AB, size: 0x8, addend: 0x0, symName: __ZNSt3__121__unwrap_and_dispatchB8ue170006INS_10__overloadINS_11__copy_loopINS_17_ClassicAlgPolicyEEENS_14__copy_trivialEEEPNS_10shared_ptrI7ASTNodeEESA_SA_Li0EEENS_4pairIT0_T2_EESC_T1_SD_, symObjAddr: 0x3B44C, symBinAddr: 0x100042920, symSize: 0xB4 }
  - { offsetInCU: 0x41583, offset: 0x58239, size: 0x8, addend: 0x0, symName: __ZNSt3__19make_pairB8ue170006IPNS_10shared_ptrI7ASTNodeEES4_EENS_4pairINS_18__unwrap_ref_decayIT_E4typeENS6_IT0_E4typeEEEOS7_OSA_, symObjAddr: 0x3B588, symBinAddr: 0x100042A5C, symSize: 0x38 }
  - { offsetInCU: 0x415D2, offset: 0x58288, size: 0x8, addend: 0x0, symName: __ZNSt3__114__rewrap_rangeB8ue170006IPNS_10shared_ptrI7ASTNodeEES4_S4_EET0_S5_T1_, symObjAddr: 0x3B5C0, symBinAddr: 0x100042A94, symSize: 0x2C }
  - { offsetInCU: 0x41627, offset: 0x582DD, size: 0x8, addend: 0x0, symName: __ZNSt3__110__distanceB8ue170006IPNS_10shared_ptrI7ASTNodeEEEENS_15iterator_traitsIT_E15difference_typeES6_S6_NS_26random_access_iterator_tagE, symObjAddr: 0x3B618, symBinAddr: 0x100042AEC, symSize: 0x28 }
  - { offsetInCU: 0x41674, offset: 0x5832A, size: 0x8, addend: 0x0, symName: __ZNSt3__110destroy_atB8ue170006I16FunctionCallNodeLi0EEEvPT_, symObjAddr: 0x3B724, symBinAddr: 0x100042BF8, symSize: 0x24 }
  - { offsetInCU: 0x416AB, offset: 0x58361, size: 0x8, addend: 0x0, symName: __ZNSt3__112__destroy_atB8ue170006I16FunctionCallNodeLi0EEEvPT_, symObjAddr: 0x3B748, symBinAddr: 0x100042C1C, symSize: 0x2C }
  - { offsetInCU: 0x41715, offset: 0x583CB, size: 0x8, addend: 0x0, symName: __ZNSt3__115allocate_sharedB8ue170006I9CycleNodeNS_9allocatorIS1_EEJRNS_10shared_ptrI7ASTNodeEES7_S7_EvEENS4_IT_EERKT0_DpOT1_, symObjAddr: 0x3BA48, symBinAddr: 0x100042F1C, symSize: 0xA8 }
  - { offsetInCU: 0x41AFC, offset: 0x587B2, size: 0x8, addend: 0x0, symName: __ZNSt3__112construct_atB8ue170006I9CycleNodeJRNS_10shared_ptrI7ASTNodeEES5_S5_EPS1_EEPT_S8_DpOT0_, symObjAddr: 0x3C15C, symBinAddr: 0x100043630, symSize: 0x4C }
  - { offsetInCU: 0x41B92, offset: 0x58848, size: 0x8, addend: 0x0, symName: __ZNSt3__18any_castB8ue170006IbEET_ONS_3anyE, symObjAddr: 0x3C508, symBinAddr: 0x1000439DC, symSize: 0x4C }
  - { offsetInCU: 0x41BD8, offset: 0x5888E, size: 0x8, addend: 0x0, symName: __ZNSt3__110destroy_atB8ue170006I9CycleNodeLi0EEEvPT_, symObjAddr: 0x3C61C, symBinAddr: 0x100043AF0, symSize: 0x24 }
  - { offsetInCU: 0x41C0F, offset: 0x588C5, size: 0x8, addend: 0x0, symName: __ZNSt3__112__destroy_atB8ue170006I9CycleNodeLi0EEEvPT_, symObjAddr: 0x3C640, symBinAddr: 0x100043B14, symSize: 0x2C }
  - { offsetInCU: 0x41C79, offset: 0x5892F, size: 0x8, addend: 0x0, symName: __ZNSt3__115allocate_sharedB8ue170006I18FunctionReturnNodeNS_9allocatorIS1_EEJEvEENS_10shared_ptrIT_EERKT0_DpOT1_, symObjAddr: 0x3C940, symBinAddr: 0x100043E14, symSize: 0x90 }
  - { offsetInCU: 0x42003, offset: 0x58CB9, size: 0x8, addend: 0x0, symName: __ZNSt3__112construct_atB8ue170006I18FunctionReturnNodeJEPS1_EEPT_S4_DpOT0_, symObjAddr: 0x3CFF4, symBinAddr: 0x1000444C8, symSize: 0x44 }
  - { offsetInCU: 0x4205F, offset: 0x58D15, size: 0x8, addend: 0x0, symName: __ZNSt3__110destroy_atB8ue170006I18FunctionReturnNodeLi0EEEvPT_, symObjAddr: 0x3D340, symBinAddr: 0x100044814, symSize: 0x24 }
  - { offsetInCU: 0x42096, offset: 0x58D4C, size: 0x8, addend: 0x0, symName: __ZNSt3__112__destroy_atB8ue170006I18FunctionReturnNodeLi0EEEvPT_, symObjAddr: 0x3D364, symBinAddr: 0x100044838, symSize: 0x2C }
  - { offsetInCU: 0x42100, offset: 0x58DB6, size: 0x8, addend: 0x0, symName: __ZNSt3__115allocate_sharedB8ue170006I22VariableDefinitionNodeNS_9allocatorIS1_EEJRNS_10shared_ptrI17VariableContainerEENS_12basic_stringIcNS_11char_traitsIcEENS2_IcEEEE4TypeEvEENS4_IT_EERKT0_DpOT1_, symObjAddr: 0x3D664, symBinAddr: 0x100044B38, symSize: 0xA8 }
  - { offsetInCU: 0x424E7, offset: 0x5919D, size: 0x8, addend: 0x0, symName: __ZNSt3__112construct_atB8ue170006I22VariableDefinitionNodeJRNS_10shared_ptrI17VariableContainerEENS_12basic_stringIcNS_11char_traitsIcEENS_9allocatorIcEEEE4TypeEPS1_EEPT_SF_DpOT0_, symObjAddr: 0x3DD78, symBinAddr: 0x10004524C, symSize: 0x98 }
  - { offsetInCU: 0x4257D, offset: 0x59233, size: 0x8, addend: 0x0, symName: __ZNSt3__110destroy_atB8ue170006I22VariableDefinitionNodeLi0EEEvPT_, symObjAddr: 0x3E584, symBinAddr: 0x100045A58, symSize: 0x24 }
  - { offsetInCU: 0x425B4, offset: 0x5926A, size: 0x8, addend: 0x0, symName: __ZNSt3__112__destroy_atB8ue170006I22VariableDefinitionNodeLi0EEEvPT_, symObjAddr: 0x3E5A8, symBinAddr: 0x100045A7C, symSize: 0x2C }
  - { offsetInCU: 0x4261E, offset: 0x592D4, size: 0x8, addend: 0x0, symName: __ZNSt3__115allocate_sharedB8ue170006I16DefaultValueNodeNS_9allocatorIS1_EEJ4TypeEvEENS_10shared_ptrIT_EERKT0_DpOT1_, symObjAddr: 0x3E8A8, symBinAddr: 0x100045D7C, symSize: 0x98 }
  - { offsetInCU: 0x429FA, offset: 0x596B0, size: 0x8, addend: 0x0, symName: __ZNSt3__112construct_atB8ue170006I16DefaultValueNodeJ4TypeEPS1_EEPT_S5_DpOT0_, symObjAddr: 0x3EF7C, symBinAddr: 0x100046450, symSize: 0x40 }
  - { offsetInCU: 0x42A6A, offset: 0x59720, size: 0x8, addend: 0x0, symName: __ZNSt3__110destroy_atB8ue170006I16DefaultValueNodeLi0EEEvPT_, symObjAddr: 0x3F250, symBinAddr: 0x100046724, symSize: 0x24 }
  - { offsetInCU: 0x42AA1, offset: 0x59757, size: 0x8, addend: 0x0, symName: __ZNSt3__112__destroy_atB8ue170006I16DefaultValueNodeLi0EEEvPT_, symObjAddr: 0x3F274, symBinAddr: 0x100046748, symSize: 0x2C }
  - { offsetInCU: 0x42B0B, offset: 0x597C1, size: 0x8, addend: 0x0, symName: __ZNSt3__115allocate_sharedB8ue170006I16DefaultValueNodeNS_9allocatorIS1_EEJR4TypeEvEENS_10shared_ptrIT_EERKT0_DpOT1_, symObjAddr: 0x3F620, symBinAddr: 0x100046AF4, symSize: 0x98 }
  - { offsetInCU: 0x42B84, offset: 0x5983A, size: 0x8, addend: 0x0, symName: __ZNSt3__112construct_atB8ue170006I16DefaultValueNodeJR4TypeEPS1_EEPT_S6_DpOT0_, symObjAddr: 0x3F7E4, symBinAddr: 0x100046CB8, symSize: 0x40 }
  - { offsetInCU: 0x42BF4, offset: 0x598AA, size: 0x8, addend: 0x0, symName: __ZNSt3__115allocate_sharedB8ue170006I9EqualNodeNS_9allocatorIS1_EEJRNS_10shared_ptrI17VariableContainerEERNS_12basic_stringIcNS_11char_traitsIcEENS2_IcEEEEEvEENS4_IT_EERKT0_DpOT1_, symObjAddr: 0x3F824, symBinAddr: 0x100046CF8, symSize: 0xA0 }
  - { offsetInCU: 0x42FBC, offset: 0x59C72, size: 0x8, addend: 0x0, symName: __ZNSt3__112construct_atB8ue170006I9EqualNodeJRNS_10shared_ptrI17VariableContainerEERNS_12basic_stringIcNS_11char_traitsIcEENS_9allocatorIcEEEEEPS1_EEPT_SF_DpOT0_, symObjAddr: 0x3FF18, symBinAddr: 0x1000473EC, symSize: 0x44 }
  - { offsetInCU: 0x4303F, offset: 0x59CF5, size: 0x8, addend: 0x0, symName: __ZNSt3__110destroy_atB8ue170006I9EqualNodeLi0EEEvPT_, symObjAddr: 0x40814, symBinAddr: 0x100047CE8, symSize: 0x24 }
  - { offsetInCU: 0x43076, offset: 0x59D2C, size: 0x8, addend: 0x0, symName: __ZNSt3__112__destroy_atB8ue170006I9EqualNodeLi0EEEvPT_, symObjAddr: 0x40838, symBinAddr: 0x100047D0C, symSize: 0x2C }
  - { offsetInCU: 0x430E0, offset: 0x59D96, size: 0x8, addend: 0x0, symName: __ZNSt3__115allocate_sharedB8ue170006I14EqualArrayNodeNS_9allocatorIS1_EEJRNS_10shared_ptrI17VariableContainerEERNS_12basic_stringIcNS_11char_traitsIcEENS2_IcEEEEiEvEENS4_IT_EERKT0_DpOT1_, symObjAddr: 0x40B38, symBinAddr: 0x10004800C, symSize: 0xA8 }
  - { offsetInCU: 0x434C7, offset: 0x5A17D, size: 0x8, addend: 0x0, symName: __ZNSt3__112construct_atB8ue170006I14EqualArrayNodeJRNS_10shared_ptrI17VariableContainerEERNS_12basic_stringIcNS_11char_traitsIcEENS_9allocatorIcEEEEiEPS1_EEPT_SF_DpOT0_, symObjAddr: 0x4124C, symBinAddr: 0x100048720, symSize: 0x50 }
  - { offsetInCU: 0x4355D, offset: 0x5A213, size: 0x8, addend: 0x0, symName: __ZNSt3__112construct_atB8ue170006INS_12basic_stringIcNS_11char_traitsIcEENS_9allocatorIcEEEEJEPS6_EEPT_S9_DpOT0_, symObjAddr: 0x4253C, symBinAddr: 0x1000499DC, symSize: 0x34 }
  - { offsetInCU: 0x43795, offset: 0x5A44B, size: 0x8, addend: 0x0, symName: __ZNSt3__112construct_atB8ue170006INS_6vectorINS_12basic_stringIcNS_11char_traitsIcEENS_9allocatorIcEEEENS5_IS7_EEEEJRS9_EPS9_EEPT_SD_DpOT0_, symObjAddr: 0x42AF8, symBinAddr: 0x100049DC8, symSize: 0x3C }
  - { offsetInCU: 0x43805, offset: 0x5A4BB, size: 0x8, addend: 0x0, symName: __ZNSt3__110destroy_atB8ue170006INS_6vectorINS_12basic_stringIcNS_11char_traitsIcEENS_9allocatorIcEEEENS5_IS7_EEEELi0EEEvPT_, symObjAddr: 0x42C6C, symBinAddr: 0x100049F3C, symSize: 0x24 }
  - { offsetInCU: 0x4383C, offset: 0x5A4F2, size: 0x8, addend: 0x0, symName: __ZNSt3__112__destroy_atB8ue170006INS_6vectorINS_12basic_stringIcNS_11char_traitsIcEENS_9allocatorIcEEEENS5_IS7_EEEELi0EEEvPT_, symObjAddr: 0x42C90, symBinAddr: 0x100049F60, symSize: 0x24 }
  - { offsetInCU: 0x43873, offset: 0x5A529, size: 0x8, addend: 0x0, symName: __ZNSt3__112construct_atB8ue170006INS_6vectorINS_12basic_stringIcNS_11char_traitsIcEENS_9allocatorIcEEEENS5_IS7_EEEEJRKS9_EPS9_EEPT_SE_DpOT0_, symObjAddr: 0x42D40, symBinAddr: 0x10004A010, symSize: 0x3C }
  - { offsetInCU: 0x438E3, offset: 0x5A599, size: 0x8, addend: 0x0, symName: __ZNSt3__112construct_atB8ue170006INS_6vectorINS_12basic_stringIcNS_11char_traitsIcEENS_9allocatorIcEEEENS5_IS7_EEEEJS9_EPS9_EEPT_SC_DpOT0_, symObjAddr: 0x42E08, symBinAddr: 0x10004A0D8, symSize: 0x3C }
  - { offsetInCU: 0x43953, offset: 0x5A609, size: 0x8, addend: 0x0, symName: __ZNSt3__110destroy_atB8ue170006I14EqualArrayNodeLi0EEEvPT_, symObjAddr: 0x430E4, symBinAddr: 0x10004A3B4, symSize: 0x24 }
  - { offsetInCU: 0x4398A, offset: 0x5A640, size: 0x8, addend: 0x0, symName: __ZNSt3__112__destroy_atB8ue170006I14EqualArrayNodeLi0EEEvPT_, symObjAddr: 0x43108, symBinAddr: 0x10004A3D8, symSize: 0x2C }
  - { offsetInCU: 0x439F4, offset: 0x5A6AA, size: 0x8, addend: 0x0, symName: __ZNSt3__115allocate_sharedB8ue170006I24FunctionCallOperatorNodeNS_9allocatorIS1_EEJRNS_10shared_ptrI17VariableContainerEERNS_12basic_stringIcNS_11char_traitsIcEENS2_IcEEEESD_EvEENS4_IT_EERKT0_DpOT1_, symObjAddr: 0x43408, symBinAddr: 0x10004A6D8, symSize: 0xA8 }
  - { offsetInCU: 0x43DDB, offset: 0x5AA91, size: 0x8, addend: 0x0, symName: __ZNSt3__112construct_atB8ue170006I24FunctionCallOperatorNodeJRNS_10shared_ptrI17VariableContainerEERNS_12basic_stringIcNS_11char_traitsIcEENS_9allocatorIcEEEESC_EPS1_EEPT_SF_DpOT0_, symObjAddr: 0x43B1C, symBinAddr: 0x10004ADEC, symSize: 0x4C }
  - { offsetInCU: 0x43E71, offset: 0x5AB27, size: 0x8, addend: 0x0, symName: __ZNSt3__111make_sharedB8ue170006I9ValueNodeJRNS_10shared_ptrI17VariableContainerEERNS_3anyEEvEENS2_IT_EEDpOT0_, symObjAddr: 0x440D0, symBinAddr: 0x10004B3A0, symSize: 0x48 }
  - { offsetInCU: 0x43EC8, offset: 0x5AB7E, size: 0x8, addend: 0x0, symName: __ZNSt3__115allocate_sharedB8ue170006I9ValueNodeNS_9allocatorIS1_EEJRNS_10shared_ptrI17VariableContainerEERNS_3anyEEvEENS4_IT_EERKT0_DpOT1_, symObjAddr: 0x441B8, symBinAddr: 0x10004B488, symSize: 0xA0 }
  - { offsetInCU: 0x43F55, offset: 0x5AC0B, size: 0x8, addend: 0x0, symName: __ZNSt3__112construct_atB8ue170006I9ValueNodeJRNS_10shared_ptrI17VariableContainerEERNS_3anyEEPS1_EEPT_SA_DpOT0_, symObjAddr: 0x4439C, symBinAddr: 0x10004B66C, symSize: 0xC0 }
  - { offsetInCU: 0x43FD8, offset: 0x5AC8E, size: 0x8, addend: 0x0, symName: __ZNSt3__110destroy_atB8ue170006I24FunctionCallOperatorNodeLi0EEEvPT_, symObjAddr: 0x44724, symBinAddr: 0x10004B9F4, symSize: 0x24 }
  - { offsetInCU: 0x4400F, offset: 0x5ACC5, size: 0x8, addend: 0x0, symName: __ZNSt3__112__destroy_atB8ue170006I24FunctionCallOperatorNodeLi0EEEvPT_, symObjAddr: 0x44748, symBinAddr: 0x10004BA18, symSize: 0x2C }
  - { offsetInCU: 0x44079, offset: 0x5AD2F, size: 0x8, addend: 0x0, symName: __ZNSt3__115allocate_sharedB8ue170006I14ArithmeticNodeNS_9allocatorIS1_EEJRNS_10shared_ptrI17VariableContainerEE9OperationEvEENS4_IT_EERKT0_DpOT1_, symObjAddr: 0x44A48, symBinAddr: 0x10004BD18, symSize: 0xA0 }
  - { offsetInCU: 0x44441, offset: 0x5B0F7, size: 0x8, addend: 0x0, symName: __ZNSt3__112construct_atB8ue170006I14ArithmeticNodeJRNS_10shared_ptrI17VariableContainerEE9OperationEPS1_EEPT_S9_DpOT0_, symObjAddr: 0x4513C, symBinAddr: 0x10004C40C, symSize: 0x48 }
  - { offsetInCU: 0x444C4, offset: 0x5B17A, size: 0x8, addend: 0x0, symName: __ZNSt3__1plB8ue170006IcNS_11char_traitsIcEENS_9allocatorIcEEEENS_12basic_stringIT_T0_T1_EERKS9_SB_, symObjAddr: 0x45834, symBinAddr: 0x10004CB04, symSize: 0x134 }
  - { offsetInCU: 0x44565, offset: 0x5B21B, size: 0x8, addend: 0x0, symName: __ZNSt3__110destroy_atB8ue170006I14ArithmeticNodeLi0EEEvPT_, symObjAddr: 0x45AC4, symBinAddr: 0x10004CD00, symSize: 0x24 }
  - { offsetInCU: 0x4459C, offset: 0x5B252, size: 0x8, addend: 0x0, symName: __ZNSt3__112__destroy_atB8ue170006I14ArithmeticNodeLi0EEEvPT_, symObjAddr: 0x45AE8, symBinAddr: 0x10004CD24, symSize: 0x2C }
  - { offsetInCU: 0x44606, offset: 0x5B2BC, size: 0x8, addend: 0x0, symName: __ZNSt3__115allocate_sharedB8ue170006I21LogicalArithmeticNodeNS_9allocatorIS1_EEJRNS_10shared_ptrI17VariableContainerEE16LogicalOperatorsEvEENS4_IT_EERKT0_DpOT1_, symObjAddr: 0x45DE8, symBinAddr: 0x10004D024, symSize: 0xA0 }
  - { offsetInCU: 0x44A0A, offset: 0x5B6C0, size: 0x8, addend: 0x0, symName: __ZNSt3__112construct_atB8ue170006I21LogicalArithmeticNodeJRNS_10shared_ptrI17VariableContainerEE16LogicalOperatorsEPS1_EEPT_S9_DpOT0_, symObjAddr: 0x464DC, symBinAddr: 0x10004D718, symSize: 0x48 }
  - { offsetInCU: 0x44A8E, offset: 0x5B744, size: 0x8, addend: 0x0, symName: __ZNSt3__1gtB8ue170006ENS_15strong_orderingENS_20_CmpUnspecifiedParamE, symObjAddr: 0x46C24, symBinAddr: 0x10004DE60, symSize: 0x24 }
  - { offsetInCU: 0x44AC7, offset: 0x5B77D, size: 0x8, addend: 0x0, symName: __ZNSt3__110destroy_atB8ue170006I21LogicalArithmeticNodeLi0EEEvPT_, symObjAddr: 0x46D10, symBinAddr: 0x10004DF4C, symSize: 0x24 }
  - { offsetInCU: 0x44AFE, offset: 0x5B7B4, size: 0x8, addend: 0x0, symName: __ZNSt3__112__destroy_atB8ue170006I21LogicalArithmeticNodeLi0EEEvPT_, symObjAddr: 0x46D34, symBinAddr: 0x10004DF70, symSize: 0x2C }
  - { offsetInCU: 0x44B68, offset: 0x5B81E, size: 0x8, addend: 0x0, symName: __ZNSt3__115allocate_sharedB8ue170006I21LogicalArithmeticNodeNS_9allocatorIS1_EEJRNS_10shared_ptrI17VariableContainerEERNS_12basic_stringIcNS_11char_traitsIcEENS2_IcEEEEEvEENS4_IT_EERKT0_DpOT1_, symObjAddr: 0x47034, symBinAddr: 0x10004E270, symSize: 0xA0 }
  - { offsetInCU: 0x44BF5, offset: 0x5B8AB, size: 0x8, addend: 0x0, symName: __ZNSt3__112construct_atB8ue170006I21LogicalArithmeticNodeJRNS_10shared_ptrI17VariableContainerEERNS_12basic_stringIcNS_11char_traitsIcEENS_9allocatorIcEEEEEPS1_EEPT_SF_DpOT0_, symObjAddr: 0x47218, symBinAddr: 0x10004E454, symSize: 0x44 }
  - { offsetInCU: 0x44C78, offset: 0x5B92E, size: 0x8, addend: 0x0, symName: __ZNSt3__115allocate_sharedB8ue170006I27VariableArrayDefinitionNodeNS_9allocatorIS1_EEJRNS_10shared_ptrI17VariableContainerEERNS_12basic_stringIcNS_11char_traitsIcEENS2_IcEEEE4TypeEvEENS4_IT_EERKT0_DpOT1_, symObjAddr: 0x47564, symBinAddr: 0x10004E5F8, symSize: 0xA8 }
  - { offsetInCU: 0x4505F, offset: 0x5BD15, size: 0x8, addend: 0x0, symName: __ZNSt3__112construct_atB8ue170006I27VariableArrayDefinitionNodeJRNS_10shared_ptrI17VariableContainerEERNS_12basic_stringIcNS_11char_traitsIcEENS_9allocatorIcEEEE4TypeEPS1_EEPT_SG_DpOT0_, symObjAddr: 0x47C78, symBinAddr: 0x10004ED0C, symSize: 0x98 }
  - { offsetInCU: 0x450F5, offset: 0x5BDAB, size: 0x8, addend: 0x0, symName: __ZNSt3__110destroy_atB8ue170006I27VariableArrayDefinitionNodeLi0EEEvPT_, symObjAddr: 0x4841C, symBinAddr: 0x10004F4B0, symSize: 0x24 }
  - { offsetInCU: 0x4512C, offset: 0x5BDE2, size: 0x8, addend: 0x0, symName: __ZNSt3__112__destroy_atB8ue170006I27VariableArrayDefinitionNodeLi0EEEvPT_, symObjAddr: 0x48440, symBinAddr: 0x10004F4D4, symSize: 0x2C }
  - { offsetInCU: 0x45F0E, offset: 0x5CBC4, size: 0x8, addend: 0x0, symName: _container, symObjAddr: 0x26DF48, symBinAddr: 0x10005C048, symSize: 0x0 }
  - { offsetInCU: 0x47112, offset: 0x5DDC8, size: 0x8, addend: 0x0, symName: _container_, symObjAddr: 0x26DF58, symBinAddr: 0x10005C058, symSize: 0x0 }
  - { offsetInCU: 0x476CB, offset: 0x5E381, size: 0x8, addend: 0x0, symName: _l, symObjAddr: 0x26DF68, symBinAddr: 0x10005C068, symSize: 0x0 }
  - { offsetInCU: 0x476E1, offset: 0x5E397, size: 0x8, addend: 0x0, symName: _tree, symObjAddr: 0x26DF70, symBinAddr: 0x10005C070, symSize: 0x0 }
  - { offsetInCU: 0x476FC, offset: 0x5E3B2, size: 0x8, addend: 0x0, symName: _map, symObjAddr: 0x26DF78, symBinAddr: 0x10005C078, symSize: 0x0 }
  - { offsetInCU: 0x47A8A, offset: 0x5E740, size: 0x8, addend: 0x0, symName: _robot, symObjAddr: 0x26DF88, symBinAddr: 0x10005C088, symSize: 0x0 }
  - { offsetInCU: 0x47BED, offset: 0x5E8A3, size: 0x8, addend: 0x0, symName: _yychar, symObjAddr: 0x26DF98, symBinAddr: 0x10005C098, symSize: 0x0 }
  - { offsetInCU: 0x47C04, offset: 0x5E8BA, size: 0x8, addend: 0x0, symName: _yylval, symObjAddr: 0x26DFA0, symBinAddr: 0x10005C0A0, symSize: 0x0 }
  - { offsetInCU: 0x47CB1, offset: 0x5E967, size: 0x8, addend: 0x0, symName: _yynerrs, symObjAddr: 0x26DFD8, symBinAddr: 0x10005C0D8, symSize: 0x0 }
  - { offsetInCU: 0x47CC8, offset: 0x5E97E, size: 0x8, addend: 0x0, symName: __ZL6yypact, symObjAddr: 0x4B25C, symBinAddr: 0x100054140, symSize: 0x0 }
  - { offsetInCU: 0x47D06, offset: 0x5E9BC, size: 0x8, addend: 0x0, symName: __ZL11yytranslate, symObjAddr: 0x4B398, symBinAddr: 0x10005427C, symSize: 0x0 }
  - { offsetInCU: 0x47D3F, offset: 0x5E9F5, size: 0x8, addend: 0x0, symName: __ZL7yycheck, symObjAddr: 0x4B4B4, symBinAddr: 0x100054398, symSize: 0x0 }
  - { offsetInCU: 0x47D66, offset: 0x5EA1C, size: 0x8, addend: 0x0, symName: __ZL7yytable, symObjAddr: 0x4B640, symBinAddr: 0x100054524, symSize: 0x0 }
  - { offsetInCU: 0x47D81, offset: 0x5EA37, size: 0x8, addend: 0x0, symName: __ZL8yydefact, symObjAddr: 0x4B7CC, symBinAddr: 0x1000546B0, symSize: 0x0 }
  - { offsetInCU: 0x47DA8, offset: 0x5EA5E, size: 0x8, addend: 0x0, symName: __ZL4yyr2, symObjAddr: 0x4B86A, symBinAddr: 0x10005474E, symSize: 0x0 }
  - { offsetInCU: 0x47DC8, offset: 0x5EA7E, size: 0x8, addend: 0x0, symName: __ZNSt3__19__any_imp17__unique_typeinfoIiE4__idE, symObjAddr: 0x4BAE0, symBinAddr: 0x1000549C4, symSize: 0x0 }
  - { offsetInCU: 0x47DE1, offset: 0x5EA97, size: 0x8, addend: 0x0, symName: __ZNSt3__19__any_imp17__unique_typeinfoIbE4__idE, symObjAddr: 0x4BAE4, symBinAddr: 0x1000549C8, symSize: 0x0 }
  - { offsetInCU: 0x47DF5, offset: 0x5EAAB, size: 0x8, addend: 0x0, symName: __ZNSt3__19__any_imp17__unique_typeinfoINS_12basic_stringIcNS_11char_traitsIcEENS_9allocatorIcEEEEE4__idE, symObjAddr: 0x4BAE8, symBinAddr: 0x1000549CC, symSize: 0x0 }
  - { offsetInCU: 0x47E09, offset: 0x5EABF, size: 0x8, addend: 0x0, symName: __ZNSt3__19__any_imp17__unique_typeinfoINS_6vectorIiNS_9allocatorIiEEEEE4__idE, symObjAddr: 0x4BAEC, symBinAddr: 0x1000549D0, symSize: 0x0 }
  - { offsetInCU: 0x47F9E, offset: 0x5EC54, size: 0x8, addend: 0x0, symName: __ZNSt3__19__any_imp17__unique_typeinfoINS_6vectorIbNS_9allocatorIbEEEEE4__idE, symObjAddr: 0x4BAF0, symBinAddr: 0x1000549D4, symSize: 0x0 }
  - { offsetInCU: 0x48104, offset: 0x5EDBA, size: 0x8, addend: 0x0, symName: __ZNSt3__19__any_imp17__unique_typeinfoINS_6vectorINS_12basic_stringIcNS_11char_traitsIcEENS_9allocatorIcEEEENS6_IS8_EEEEE4__idE, symObjAddr: 0x4BAF4, symBinAddr: 0x1000549D8, symSize: 0x0 }
  - { offsetInCU: 0x4827D, offset: 0x5EF33, size: 0x8, addend: 0x0, symName: __ZL4yyr1, symObjAddr: 0x4B8C1, symBinAddr: 0x1000547A5, symSize: 0x0 }
  - { offsetInCU: 0x48298, offset: 0x5EF4E, size: 0x8, addend: 0x0, symName: __ZL7yypgoto, symObjAddr: 0x4B918, symBinAddr: 0x1000547FC, symSize: 0x0 }
  - { offsetInCU: 0x482BF, offset: 0x5EF75, size: 0x8, addend: 0x0, symName: __ZL9yydefgoto, symObjAddr: 0x4B94A, symBinAddr: 0x10005482E, symSize: 0x0 }
  - { offsetInCU: 0x482FD, offset: 0x5EFB3, size: 0x8, addend: 0x0, symName: __ZL6yystos, symObjAddr: 0x4B963, symBinAddr: 0x100054847, symSize: 0x0 }
  - { offsetInCU: 0x48311, offset: 0x5EFC7, size: 0x8, addend: 0x0, symName: __ZNSt3__19__any_imp17__unique_typeinfoINS_15__bit_referenceINS_6vectorIbNS_9allocatorIbEEEELb1EEEE4__idE, symObjAddr: 0x4BED8, symBinAddr: 0x100054DBC, symSize: 0x0 }
  - { offsetInCU: 0x48325, offset: 0x5EFDB, size: 0x8, addend: 0x0, symName: __ZNSt3__19__any_imp17__unique_typeinfoImE4__idE, symObjAddr: 0x4BF90, symBinAddr: 0x100054E74, symSize: 0x0 }
  - { offsetInCU: 0x4899F, offset: 0x5F655, size: 0x8, addend: 0x0, symName: __ZNSt3__16vectorINS_10shared_ptrI7ASTNodeEENS_9allocatorIS3_EEE26__swap_out_circular_bufferERNS_14__split_bufferIS3_RS5_EE, symObjAddr: 0x65C8, symBinAddr: 0x100010FD4, symSize: 0x110 }
  - { offsetInCU: 0x48B9E, offset: 0x5F854, size: 0x8, addend: 0x0, symName: __ZNSt3__16vectorINS_12basic_stringIcNS_11char_traitsIcEENS_9allocatorIcEEEENS4_IS6_EEE26__swap_out_circular_bufferERNS_14__split_bufferIS6_RS7_EE, symObjAddr: 0x101C4, symBinAddr: 0x100019A08, symSize: 0x110 }
  - { offsetInCU: 0x48D8F, offset: 0x5FA45, size: 0x8, addend: 0x0, symName: __ZNSt3__16vectorINS_13unordered_mapINS_12basic_stringIcNS_11char_traitsIcEENS_9allocatorIcEEEENS_10shared_ptrI8VariableEENS_4hashIS7_EENS_8equal_toIS7_EENS5_INS_4pairIKS7_SA_EEEEEENS5_ISJ_EEE26__swap_out_circular_bufferERNS_14__split_bufferISJ_RSK_EE, symObjAddr: 0x130DC, symBinAddr: 0x10001C8A4, symSize: 0x110 }
  - { offsetInCU: 0x48E22, offset: 0x5FAD8, size: 0x8, addend: 0x0, symName: __ZNSt3__16vectorINS_13unordered_mapINS_12basic_stringIcNS_11char_traitsIcEENS_9allocatorIcEEEENS_10shared_ptrI7ASTNodeEENS_4hashIS7_EENS_8equal_toIS7_EENS5_INS_4pairIKS7_SA_EEEEEENS5_ISJ_EEE26__swap_out_circular_bufferERNS_14__split_bufferISJ_RSK_EE, symObjAddr: 0x16028, symBinAddr: 0x10001F7F0, symSize: 0x110 }
  - { offsetInCU: 0x48FD9, offset: 0x5FC8F, size: 0x8, addend: 0x0, symName: __ZNSt3__16vectorINS_3setINS_12basic_stringIcNS_11char_traitsIcEENS_9allocatorIcEEEENS_4lessIS7_EENS5_IS7_EEEENS5_ISB_EEE26__swap_out_circular_bufferERNS_14__split_bufferISB_RSC_EE, symObjAddr: 0x1D0C8, symBinAddr: 0x100026890, symSize: 0x110 }
  - { offsetInCU: 0x490F8, offset: 0x5FDAE, size: 0x8, addend: 0x0, symName: __ZNSt3__16vectorI4CellNS_9allocatorIS1_EEE26__swap_out_circular_bufferERNS_14__split_bufferIS1_RS3_EE, symObjAddr: 0x2185C, symBinAddr: 0x10002AC94, symSize: 0x110 }
  - { offsetInCU: 0x4918B, offset: 0x5FE41, size: 0x8, addend: 0x0, symName: __ZNSt3__16vectorINS0_I4CellNS_9allocatorIS1_EEEENS2_IS4_EEE26__swap_out_circular_bufferERNS_14__split_bufferIS4_RS5_EE, symObjAddr: 0x2317C, symBinAddr: 0x10002BCD0, symSize: 0x110 }
  - { offsetInCU: 0x49A9B, offset: 0x60751, size: 0x8, addend: 0x0, symName: __ZNSt3__16vectorIiNS_9allocatorIiEEE26__swap_out_circular_bufferERNS_14__split_bufferIiRS2_EE, symObjAddr: 0x30444, symBinAddr: 0x100037918, symSize: 0x110 }
  - { offsetInCU: 0x4C8ED, offset: 0x635A3, size: 0x8, addend: 0x0, symName: __ZNSt3__110shared_ptrI17VariableContainerED1B8ue170006Ev, symObjAddr: 0x6C, symBinAddr: 0x10000AD70, symSize: 0x2C }
  - { offsetInCU: 0x4C917, offset: 0x635CD, size: 0x8, addend: 0x0, symName: __ZNSt3__110shared_ptrI22ParseVariableContainerED1B8ue170006Ev, symObjAddr: 0xD0, symBinAddr: 0x10000ADD4, symSize: 0x2C }
  - { offsetInCU: 0x4C941, offset: 0x635F7, size: 0x8, addend: 0x0, symName: __ZNSt3__110shared_ptrI3MapED1B8ue170006Ev, symObjAddr: 0x13C, symBinAddr: 0x10000AE40, symSize: 0x2C }
  - { offsetInCU: 0x4C96B, offset: 0x63621, size: 0x8, addend: 0x0, symName: __ZNSt3__110shared_ptrI5RobotED1B8ue170006Ev, symObjAddr: 0x1B0, symBinAddr: 0x10000AEB4, symSize: 0x2C }
  - { offsetInCU: 0x4C99A, offset: 0x63650, size: 0x8, addend: 0x0, symName: __ZN3valC1Ev, symObjAddr: 0x1DC, symBinAddr: 0x10000AEE0, symSize: 0x2C }
  - { offsetInCU: 0x4C9C6, offset: 0x6367C, size: 0x8, addend: 0x0, symName: __ZN3valD1Ev, symObjAddr: 0x208, symBinAddr: 0x10000AF0C, symSize: 0x2C }
  - { offsetInCU: 0x4C9F1, offset: 0x636A7, size: 0x8, addend: 0x0, symName: __Z7yyparsev, symObjAddr: 0x234, symBinAddr: 0x10000AF38, symSize: 0x34F4 }
  - { offsetInCU: 0x4D02A, offset: 0x63CE0, size: 0x8, addend: 0x0, symName: __ZN3valaSERKS_, symObjAddr: 0x387C, symBinAddr: 0x10000E580, symSize: 0x70 }
  - { offsetInCU: 0x4D05B, offset: 0x63D11, size: 0x8, addend: 0x0, symName: __ZNKSt3__110shared_ptrI7ASTNodeEptB8ue170006Ev, symObjAddr: 0x39B8, symBinAddr: 0x10000E5F0, symSize: 0x18 }
  - { offsetInCU: 0x4D081, offset: 0x63D37, size: 0x8, addend: 0x0, symName: __ZN7ASTNode11addChildrenERNSt3__110shared_ptrIS_EE, symObjAddr: 0x39D0, symBinAddr: 0x10000E608, symSize: 0x30 }
  - { offsetInCU: 0x4D0B5, offset: 0x63D6B, size: 0x8, addend: 0x0, symName: __ZNKSt3__110shared_ptrI22ParseVariableContainerEptB8ue170006Ev, symObjAddr: 0x3A00, symBinAddr: 0x10000E638, symSize: 0x18 }
  - { offsetInCU: 0x4D0DB, offset: 0x63D91, size: 0x8, addend: 0x0, symName: __ZN22ParseVariableContainer5printEv, symObjAddr: 0x3A18, symBinAddr: 0x10000E650, symSize: 0x104 }
  - { offsetInCU: 0x4D1A3, offset: 0x63E59, size: 0x8, addend: 0x0, symName: __ZNSt3__13anyD1B8ue170006Ev, symObjAddr: 0x3B1C, symBinAddr: 0x10000E754, symSize: 0x2C }
  - { offsetInCU: 0x4D1CD, offset: 0x63E83, size: 0x8, addend: 0x0, symName: __ZNKSt3__110shared_ptrI17VariableContainerEptB8ue170006Ev, symObjAddr: 0x3B48, symBinAddr: 0x10000E780, symSize: 0x18 }
  - { offsetInCU: 0x4D1F3, offset: 0x63EA9, size: 0x8, addend: 0x0, symName: __ZN17VariableContainer5printEv, symObjAddr: 0x3B60, symBinAddr: 0x10000E798, symSize: 0x63C }
  - { offsetInCU: 0x4D431, offset: 0x640E7, size: 0x8, addend: 0x0, symName: __ZNSt3__110shared_ptrI7ASTNodeEaSB8ue170006I9StartNodevEERS2_ONS0_IT_EE, symObjAddr: 0x41DC, symBinAddr: 0x10000EE14, symSize: 0x50 }
  - { offsetInCU: 0x4D470, offset: 0x64126, size: 0x8, addend: 0x0, symName: __ZNSt3__110shared_ptrI9StartNodeED1B8ue170006Ev, symObjAddr: 0x422C, symBinAddr: 0x10000EE64, symSize: 0x2C }
  - { offsetInCU: 0x4D4BD, offset: 0x64173, size: 0x8, addend: 0x0, symName: __ZNSt3__110shared_ptrI13MoveRobotNodeED1B8ue170006Ev, symObjAddr: 0x4314, symBinAddr: 0x10000EF4C, symSize: 0x2C }
  - { offsetInCU: 0x4D4E7, offset: 0x6419D, size: 0x8, addend: 0x0, symName: __ZNSt3__110shared_ptrI7ASTNodeEaSB8ue170006ERKS2_, symObjAddr: 0x4340, symBinAddr: 0x10000EF78, symSize: 0x50 }
  - { offsetInCU: 0x4D51C, offset: 0x641D2, size: 0x8, addend: 0x0, symName: __ZNSt3__110shared_ptrI7ASTNodeED1B8ue170006Ev, symObjAddr: 0x4390, symBinAddr: 0x10000EFC8, symSize: 0x2C }
  - { offsetInCU: 0x4D569, offset: 0x6421F, size: 0x8, addend: 0x0, symName: __ZNSt3__110shared_ptrI15RotateRobotNodeED1B8ue170006Ev, symObjAddr: 0x4478, symBinAddr: 0x10000F0B0, symSize: 0x2C }
  - { offsetInCU: 0x4D593, offset: 0x64249, size: 0x8, addend: 0x0, symName: __ZNSt3__13anyC1B8ue170006IRiivEEOT_, symObjAddr: 0x4550, symBinAddr: 0x10000F188, symSize: 0x34 }
  - { offsetInCU: 0x4D602, offset: 0x642B8, size: 0x8, addend: 0x0, symName: __ZNSt3__110shared_ptrI9ValueNodeED1B8ue170006Ev, symObjAddr: 0x4584, symBinAddr: 0x10000F1BC, symSize: 0x2C }
  - { offsetInCU: 0x4D62C, offset: 0x642E2, size: 0x8, addend: 0x0, symName: __ZNSt3__13anyC1B8ue170006IRNS_12basic_stringIcNS_11char_traitsIcEENS_9allocatorIcEEEES7_vEEOT_, symObjAddr: 0x45B0, symBinAddr: 0x10000F1E8, symSize: 0x34 }
  - { offsetInCU: 0x4D67D, offset: 0x64333, size: 0x8, addend: 0x0, symName: __ZNSt3__13anyC1B8ue170006IRbbvEEOT_, symObjAddr: 0x45E4, symBinAddr: 0x10000F21C, symSize: 0x34 }
  - { offsetInCU: 0x4D6EC, offset: 0x643A2, size: 0x8, addend: 0x0, symName: __ZNSt3__110shared_ptrI12VariableNodeED1B8ue170006Ev, symObjAddr: 0x46C4, symBinAddr: 0x10000F2FC, symSize: 0x2C }
  - { offsetInCU: 0x4D716, offset: 0x643CC, size: 0x8, addend: 0x0, symName: __ZN22ParseVariableContainer4findERNSt3__112basic_stringIcNS0_11char_traitsIcEENS0_9allocatorIcEEEE, symObjAddr: 0x46F0, symBinAddr: 0x10000F328, symSize: 0x13C }
  - { offsetInCU: 0x4D7A5, offset: 0x6445B, size: 0x8, addend: 0x0, symName: __ZNSt3__110shared_ptrI17VariableArrayNodeED1B8ue170006Ev, symObjAddr: 0x48E0, symBinAddr: 0x10000F518, symSize: 0x2C }
  - { offsetInCU: 0x4D7F2, offset: 0x644A8, size: 0x8, addend: 0x0, symName: __ZNSt3__110shared_ptrI18TypeConversionNodeED1B8ue170006Ev, symObjAddr: 0x49C0, symBinAddr: 0x10000F5F8, symSize: 0x2C }
  - { offsetInCU: 0x4D81C, offset: 0x644D2, size: 0x8, addend: 0x0, symName: __ZN22ParseVariableContainer4pushERKNSt3__112basic_stringIcNS0_11char_traitsIcEENS0_9allocatorIcEEEE, symObjAddr: 0x49EC, symBinAddr: 0x10000F624, symSize: 0xB8 }
  - { offsetInCU: 0x4D850, offset: 0x64506, size: 0x8, addend: 0x0, symName: __ZNSt3__110shared_ptrI30FunctionVariableDefinitionNodeED1B8ue170006Ev, symObjAddr: 0x4B50, symBinAddr: 0x10000F788, symSize: 0x2C }
  - { offsetInCU: 0x4D87A, offset: 0x64530, size: 0x8, addend: 0x0, symName: __ZNKSt3__110shared_ptrI30FunctionVariableDefinitionNodeEptB8ue170006Ev, symObjAddr: 0x4C28, symBinAddr: 0x10000F860, symSize: 0x18 }
  - { offsetInCU: 0x4D8A0, offset: 0x64556, size: 0x8, addend: 0x0, symName: __ZN30FunctionVariableDefinitionNode7addNameERNSt3__112basic_stringIcNS0_11char_traitsIcEENS0_9allocatorIcEEEE, symObjAddr: 0x4C40, symBinAddr: 0x10000F878, symSize: 0x30 }
  - { offsetInCU: 0x4D8D5, offset: 0x6458B, size: 0x8, addend: 0x0, symName: __ZNSt3__110shared_ptrI17FunctionStartNodeED1B8ue170006Ev, symObjAddr: 0x4D24, symBinAddr: 0x10000F95C, symSize: 0x2C }
  - { offsetInCU: 0x4D8FF, offset: 0x645B5, size: 0x8, addend: 0x0, symName: __ZNKSt3__110shared_ptrI17FunctionStartNodeEptB8ue170006Ev, symObjAddr: 0x4EB0, symBinAddr: 0x10000FAE8, symSize: 0x18 }
  - { offsetInCU: 0x4D925, offset: 0x645DB, size: 0x8, addend: 0x0, symName: __ZN17FunctionStartNode7getNameEv, symObjAddr: 0x4EC8, symBinAddr: 0x10000FB00, symSize: 0x18 }
  - { offsetInCU: 0x4D96E, offset: 0x64624, size: 0x8, addend: 0x0, symName: __ZNSt3__110shared_ptrI22FunctionDefinitionNodeED1B8ue170006Ev, symObjAddr: 0x4EE0, symBinAddr: 0x10000FB18, symSize: 0x2C }
  - { offsetInCU: 0x4D9BB, offset: 0x64671, size: 0x8, addend: 0x0, symName: __ZNSt3__110shared_ptrI16FunctionCallNodeED1B8ue170006Ev, symObjAddr: 0x4FB8, symBinAddr: 0x10000FBF0, symSize: 0x2C }
  - { offsetInCU: 0x4DA08, offset: 0x646BE, size: 0x8, addend: 0x0, symName: __ZNSt3__110shared_ptrI9CycleNodeED1B8ue170006Ev, symObjAddr: 0x5098, symBinAddr: 0x10000FCD0, symSize: 0x2C }
  - { offsetInCU: 0x4DA55, offset: 0x6470B, size: 0x8, addend: 0x0, symName: __ZNSt3__110shared_ptrI18FunctionReturnNodeED1B8ue170006Ev, symObjAddr: 0x5160, symBinAddr: 0x10000FD98, symSize: 0x2C }
  - { offsetInCU: 0x4DA7F, offset: 0x64735, size: 0x8, addend: 0x0, symName: __ZNSt3__110shared_ptrI22VariableDefinitionNodeED1B8ue170006Ev, symObjAddr: 0x5240, symBinAddr: 0x10000FE78, symSize: 0x2C }
  - { offsetInCU: 0x4DACC, offset: 0x64782, size: 0x8, addend: 0x0, symName: __ZNSt3__110shared_ptrI16DefaultValueNodeED1B8ue170006Ev, symObjAddr: 0x5310, symBinAddr: 0x10000FF48, symSize: 0x2C }
  - { offsetInCU: 0x4DAF6, offset: 0x647AC, size: 0x8, addend: 0x0, symName: __ZNKSt3__110shared_ptrI22VariableDefinitionNodeEptB8ue170006Ev, symObjAddr: 0x53E8, symBinAddr: 0x100010020, symSize: 0x18 }
  - { offsetInCU: 0x4DB1C, offset: 0x647D2, size: 0x8, addend: 0x0, symName: __ZN22VariableDefinitionNode15addVariableNameERNSt3__112basic_stringIcNS0_11char_traitsIcEENS0_9allocatorIcEEEE, symObjAddr: 0x5400, symBinAddr: 0x100010038, symSize: 0x30 }
  - { offsetInCU: 0x4DB74, offset: 0x6482A, size: 0x8, addend: 0x0, symName: __ZNSt3__110shared_ptrI9EqualNodeED1B8ue170006Ev, symObjAddr: 0x551C, symBinAddr: 0x100010154, symSize: 0x2C }
  - { offsetInCU: 0x4DBC1, offset: 0x64877, size: 0x8, addend: 0x0, symName: __ZNSt3__110shared_ptrI14EqualArrayNodeED1B8ue170006Ev, symObjAddr: 0x55FC, symBinAddr: 0x100010234, symSize: 0x2C }
  - { offsetInCU: 0x4DC0E, offset: 0x648C4, size: 0x8, addend: 0x0, symName: __ZNSt3__110shared_ptrI24FunctionCallOperatorNodeED1B8ue170006Ev, symObjAddr: 0x56DC, symBinAddr: 0x100010314, symSize: 0x2C }
  - { offsetInCU: 0x4DC5B, offset: 0x64911, size: 0x8, addend: 0x0, symName: __ZNSt3__110shared_ptrI14ArithmeticNodeED1B8ue170006Ev, symObjAddr: 0x57B4, symBinAddr: 0x1000103EC, symSize: 0x2C }
  - { offsetInCU: 0x4DCA8, offset: 0x6495E, size: 0x8, addend: 0x0, symName: __ZNSt3__110shared_ptrI21LogicalArithmeticNodeED1B8ue170006Ev, symObjAddr: 0x588C, symBinAddr: 0x1000104C4, symSize: 0x2C }
  - { offsetInCU: 0x4DCD2, offset: 0x64988, size: 0x8, addend: 0x0, symName: __ZNSt3__110shared_ptrI7ASTNodeEaSB8ue170006I27VariableArrayDefinitionNodevEERS2_RKNS0_IT_EE, symObjAddr: 0x5950, symBinAddr: 0x100010588, symSize: 0x50 }
  - { offsetInCU: 0x4DD11, offset: 0x649C7, size: 0x8, addend: 0x0, symName: __ZNSt3__110shared_ptrI27VariableArrayDefinitionNodeED1B8ue170006Ev, symObjAddr: 0x59A0, symBinAddr: 0x1000105D8, symSize: 0x2C }
  - { offsetInCU: 0x4DD3B, offset: 0x649F1, size: 0x8, addend: 0x0, symName: __ZNKSt3__110shared_ptrI27VariableArrayDefinitionNodeEptB8ue170006Ev, symObjAddr: 0x5A78, symBinAddr: 0x1000106B0, symSize: 0x18 }
  - { offsetInCU: 0x4DD61, offset: 0x64A17, size: 0x8, addend: 0x0, symName: __ZN27VariableArrayDefinitionNode15addVariableNameERNSt3__112basic_stringIcNS0_11char_traitsIcEENS0_9allocatorIcEEEE, symObjAddr: 0x5A90, symBinAddr: 0x1000106C8, symSize: 0x30 }
  - { offsetInCU: 0x4DD96, offset: 0x64A4C, size: 0x8, addend: 0x0, symName: __ZL10yydestructPKciP3val, symObjAddr: 0x5AC0, symBinAddr: 0x1000106F8, symSize: 0x40 }
  - { offsetInCU: 0x4DDDF, offset: 0x64A95, size: 0x8, addend: 0x0, symName: _main, symObjAddr: 0x5B00, symBinAddr: 0x100010738, symSize: 0x148 }
  - { offsetInCU: 0x4DE0F, offset: 0x64AC5, size: 0x8, addend: 0x0, symName: __ZN3valC2Ev, symObjAddr: 0x5DFC, symBinAddr: 0x100010880, symSize: 0x3C }
  - { offsetInCU: 0x4DE3B, offset: 0x64AF1, size: 0x8, addend: 0x0, symName: __ZNSt3__112basic_stringIcNS_11char_traitsIcEENS_9allocatorIcEEEC1B8ue170006Ev, symObjAddr: 0x5E38, symBinAddr: 0x1000108BC, symSize: 0x2C }
  - { offsetInCU: 0x4DE65, offset: 0x64B1B, size: 0x8, addend: 0x0, symName: __ZNSt3__110shared_ptrI7ASTNodeEC1B8ue170006Ev, symObjAddr: 0x5E64, symBinAddr: 0x1000108E8, symSize: 0x2C }
  - { offsetInCU: 0x4DE8F, offset: 0x64B45, size: 0x8, addend: 0x0, symName: __ZNSt3__112basic_stringIcNS_11char_traitsIcEENS_9allocatorIcEEEC2B8ue170006Ev, symObjAddr: 0x5E90, symBinAddr: 0x100010914, symSize: 0x48 }
  - { offsetInCU: 0x4DEB9, offset: 0x64B6F, size: 0x8, addend: 0x0, symName: __ZNSt3__110shared_ptrI7ASTNodeEC2B8ue170006Ev, symObjAddr: 0x5F50, symBinAddr: 0x10001095C, symSize: 0x1C }
  - { offsetInCU: 0x4DEE3, offset: 0x64B99, size: 0x8, addend: 0x0, symName: __ZN3valD2Ev, symObjAddr: 0x5F6C, symBinAddr: 0x100010978, symSize: 0x3C }
  - { offsetInCU: 0x4DF0F, offset: 0x64BC5, size: 0x8, addend: 0x0, symName: __ZNSt3__16vectorINS_10shared_ptrI7ASTNodeEENS_9allocatorIS3_EEE9push_backB8ue170006ERKS3_, symObjAddr: 0x5FA8, symBinAddr: 0x1000109B4, symSize: 0x6C }
  - { offsetInCU: 0x4DF46, offset: 0x64BFC, size: 0x8, addend: 0x0, symName: __ZNSt3__16vectorINS_10shared_ptrI7ASTNodeEENS_9allocatorIS3_EEE9__end_capB8ue170006Ev, symObjAddr: 0x6014, symBinAddr: 0x100010A20, symSize: 0x28 }
  - { offsetInCU: 0x4DF6C, offset: 0x64C22, size: 0x8, addend: 0x0, symName: __ZNSt3__16vectorINS_10shared_ptrI7ASTNodeEENS_9allocatorIS3_EEE22__construct_one_at_endB8ue170006IJRKS3_EEEvDpOT_, symObjAddr: 0x603C, symBinAddr: 0x100010A48, symSize: 0x90 }
  - { offsetInCU: 0x4DFBB, offset: 0x64C71, size: 0x8, addend: 0x0, symName: __ZNSt3__16vectorINS_10shared_ptrI7ASTNodeEENS_9allocatorIS3_EEE21__push_back_slow_pathIRKS3_EEvOT_, symObjAddr: 0x60CC, symBinAddr: 0x100010AD8, symSize: 0xD8 }
  - { offsetInCU: 0x4E019, offset: 0x64CCF, size: 0x8, addend: 0x0, symName: __ZNSt3__117__compressed_pairIPNS_10shared_ptrI7ASTNodeEENS_9allocatorIS3_EEE5firstB8ue170006Ev, symObjAddr: 0x61A4, symBinAddr: 0x100010BB0, symSize: 0x24 }
  - { offsetInCU: 0x4E03F, offset: 0x64CF5, size: 0x8, addend: 0x0, symName: __ZNSt3__122__compressed_pair_elemIPNS_10shared_ptrI7ASTNodeEELi0ELb0EE5__getB8ue170006Ev, symObjAddr: 0x61C8, symBinAddr: 0x100010BD4, symSize: 0x14 }
  - { offsetInCU: 0x4E07E, offset: 0x64D34, size: 0x8, addend: 0x0, symName: __ZNSt3__16vectorINS_10shared_ptrI7ASTNodeEENS_9allocatorIS3_EEE21_ConstructTransactionC1B8ue170006ERS6_m, symObjAddr: 0x61DC, symBinAddr: 0x100010BE8, symSize: 0x3C }
  - { offsetInCU: 0x4E0C6, offset: 0x64D7C, size: 0x8, addend: 0x0, symName: __ZNSt3__116allocator_traitsINS_9allocatorINS_10shared_ptrI7ASTNodeEEEEE9constructB8ue170006IS4_JRKS4_EvvEEvRS5_PT_DpOT0_, symObjAddr: 0x6218, symBinAddr: 0x100010C24, symSize: 0x30 }
  - { offsetInCU: 0x4E11B, offset: 0x64DD1, size: 0x8, addend: 0x0, symName: __ZNSt3__16vectorINS_10shared_ptrI7ASTNodeEENS_9allocatorIS3_EEE7__allocB8ue170006Ev, symObjAddr: 0x6248, symBinAddr: 0x100010C54, symSize: 0x28 }
  - { offsetInCU: 0x4E141, offset: 0x64DF7, size: 0x8, addend: 0x0, symName: __ZNSt3__16vectorINS_10shared_ptrI7ASTNodeEENS_9allocatorIS3_EEE21_ConstructTransactionD1B8ue170006Ev, symObjAddr: 0x6284, symBinAddr: 0x100010C90, symSize: 0x2C }
  - { offsetInCU: 0x4E16B, offset: 0x64E21, size: 0x8, addend: 0x0, symName: __ZNSt3__16vectorINS_10shared_ptrI7ASTNodeEENS_9allocatorIS3_EEE21_ConstructTransactionC2B8ue170006ERS6_m, symObjAddr: 0x62B0, symBinAddr: 0x100010CBC, symSize: 0x44 }
  - { offsetInCU: 0x4E1B3, offset: 0x64E69, size: 0x8, addend: 0x0, symName: __ZNSt3__110shared_ptrI7ASTNodeEC1B8ue170006ERKS2_, symObjAddr: 0x6330, symBinAddr: 0x100010D3C, symSize: 0x34 }
  - { offsetInCU: 0x4E1EC, offset: 0x64EA2, size: 0x8, addend: 0x0, symName: __ZNSt3__110shared_ptrI7ASTNodeEC2B8ue170006ERKS2_, symObjAddr: 0x6364, symBinAddr: 0x100010D70, symSize: 0x70 }
  - { offsetInCU: 0x4E225, offset: 0x64EDB, size: 0x8, addend: 0x0, symName: __ZNSt3__119__shared_weak_count12__add_sharedB8ue170006Ev, symObjAddr: 0x63D4, symBinAddr: 0x100010DE0, symSize: 0x24 }
  - { offsetInCU: 0x4E24B, offset: 0x64F01, size: 0x8, addend: 0x0, symName: __ZNSt3__114__shared_count12__add_sharedB8ue170006Ev, symObjAddr: 0x63F8, symBinAddr: 0x100010E04, symSize: 0x28 }
  - { offsetInCU: 0x4E271, offset: 0x64F27, size: 0x8, addend: 0x0, symName: __ZNSt3__117__compressed_pairIPNS_10shared_ptrI7ASTNodeEENS_9allocatorIS3_EEE6secondB8ue170006Ev, symObjAddr: 0x6450, symBinAddr: 0x100010E5C, symSize: 0x24 }
  - { offsetInCU: 0x4E297, offset: 0x64F4D, size: 0x8, addend: 0x0, symName: __ZNSt3__122__compressed_pair_elemINS_9allocatorINS_10shared_ptrI7ASTNodeEEEELi1ELb1EE5__getB8ue170006Ev, symObjAddr: 0x6474, symBinAddr: 0x100010E80, symSize: 0x14 }
  - { offsetInCU: 0x4E2BD, offset: 0x64F73, size: 0x8, addend: 0x0, symName: __ZNSt3__16vectorINS_10shared_ptrI7ASTNodeEENS_9allocatorIS3_EEE21_ConstructTransactionD2B8ue170006Ev, symObjAddr: 0x6488, symBinAddr: 0x100010E94, symSize: 0x20 }
  - { offsetInCU: 0x4E2E7, offset: 0x64F9D, size: 0x8, addend: 0x0, symName: __ZNKSt3__16vectorINS_10shared_ptrI7ASTNodeEENS_9allocatorIS3_EEE11__recommendB8ue170006Em, symObjAddr: 0x64A8, symBinAddr: 0x100010EB4, symSize: 0xB4 }
  - { offsetInCU: 0x4E33C, offset: 0x64FF2, size: 0x8, addend: 0x0, symName: __ZNKSt3__16vectorINS_10shared_ptrI7ASTNodeEENS_9allocatorIS3_EEE4sizeB8ue170006Ev, symObjAddr: 0x655C, symBinAddr: 0x100010F68, symSize: 0x28 }
  - { offsetInCU: 0x4E362, offset: 0x65018, size: 0x8, addend: 0x0, symName: __ZNSt3__114__split_bufferINS_10shared_ptrI7ASTNodeEERNS_9allocatorIS3_EEEC1EmmS6_, symObjAddr: 0x6584, symBinAddr: 0x100010F90, symSize: 0x44 }
  - { offsetInCU: 0x4E3B8, offset: 0x6506E, size: 0x8, addend: 0x0, symName: __ZNSt3__114__split_bufferINS_10shared_ptrI7ASTNodeEERNS_9allocatorIS3_EEED1Ev, symObjAddr: 0x66D8, symBinAddr: 0x1000110E4, symSize: 0x2C }
  - { offsetInCU: 0x4E3E4, offset: 0x6509A, size: 0x8, addend: 0x0, symName: __ZNKSt3__16vectorINS_10shared_ptrI7ASTNodeEENS_9allocatorIS3_EEE8max_sizeEv, symObjAddr: 0x6704, symBinAddr: 0x100011110, symSize: 0x60 }
  - { offsetInCU: 0x4E40C, offset: 0x650C2, size: 0x8, addend: 0x0, symName: __ZNKSt3__16vectorINS_10shared_ptrI7ASTNodeEENS_9allocatorIS3_EEE20__throw_length_errorB8ue170006Ev, symObjAddr: 0x6764, symBinAddr: 0x100011170, symSize: 0x1C }
  - { offsetInCU: 0x4E432, offset: 0x650E8, size: 0x8, addend: 0x0, symName: __ZNKSt3__16vectorINS_10shared_ptrI7ASTNodeEENS_9allocatorIS3_EEE8capacityB8ue170006Ev, symObjAddr: 0x6780, symBinAddr: 0x10001118C, symSize: 0x40 }
  - { offsetInCU: 0x4E462, offset: 0x65118, size: 0x8, addend: 0x0, symName: __ZNSt3__116allocator_traitsINS_9allocatorINS_10shared_ptrI7ASTNodeEEEEE8max_sizeB8ue170006IS5_vvEEmRKS5_, symObjAddr: 0x6818, symBinAddr: 0x1000111F8, symSize: 0x28 }
  - { offsetInCU: 0x4E48E, offset: 0x65144, size: 0x8, addend: 0x0, symName: __ZNKSt3__16vectorINS_10shared_ptrI7ASTNodeEENS_9allocatorIS3_EEE7__allocB8ue170006Ev, symObjAddr: 0x6840, symBinAddr: 0x100011220, symSize: 0x28 }
  - { offsetInCU: 0x4E4BE, offset: 0x65174, size: 0x8, addend: 0x0, symName: __ZNKSt3__117__compressed_pairIPNS_10shared_ptrI7ASTNodeEENS_9allocatorIS3_EEE6secondB8ue170006Ev, symObjAddr: 0x6920, symBinAddr: 0x100011248, symSize: 0x24 }
  - { offsetInCU: 0x4E4E4, offset: 0x6519A, size: 0x8, addend: 0x0, symName: __ZNKSt3__122__compressed_pair_elemINS_9allocatorINS_10shared_ptrI7ASTNodeEEEELi1ELb1EE5__getB8ue170006Ev, symObjAddr: 0x6944, symBinAddr: 0x10001126C, symSize: 0x14 }
  - { offsetInCU: 0x4E50A, offset: 0x651C0, size: 0x8, addend: 0x0, symName: __ZNKSt3__16vectorINS_10shared_ptrI7ASTNodeEENS_9allocatorIS3_EEE9__end_capB8ue170006Ev, symObjAddr: 0x6A44, symBinAddr: 0x100011280, symSize: 0x28 }
  - { offsetInCU: 0x4E530, offset: 0x651E6, size: 0x8, addend: 0x0, symName: __ZNKSt3__117__compressed_pairIPNS_10shared_ptrI7ASTNodeEENS_9allocatorIS3_EEE5firstB8ue170006Ev, symObjAddr: 0x6A6C, symBinAddr: 0x1000112A8, symSize: 0x24 }
  - { offsetInCU: 0x4E556, offset: 0x6520C, size: 0x8, addend: 0x0, symName: __ZNKSt3__122__compressed_pair_elemIPNS_10shared_ptrI7ASTNodeEELi0ELb0EE5__getB8ue170006Ev, symObjAddr: 0x6A90, symBinAddr: 0x1000112CC, symSize: 0x14 }
  - { offsetInCU: 0x4E57C, offset: 0x65232, size: 0x8, addend: 0x0, symName: __ZNSt3__114__split_bufferINS_10shared_ptrI7ASTNodeEERNS_9allocatorIS3_EEEC2EmmS6_, symObjAddr: 0x6AF8, symBinAddr: 0x100011334, symSize: 0xD4 }
  - { offsetInCU: 0x4E5F4, offset: 0x652AA, size: 0x8, addend: 0x0, symName: __ZNSt3__117__compressed_pairIPNS_10shared_ptrI7ASTNodeEERNS_9allocatorIS3_EEEC1B8ue170006IDnS7_EEOT_OT0_, symObjAddr: 0x6BCC, symBinAddr: 0x100011408, symSize: 0x3C }
  - { offsetInCU: 0x4E64C, offset: 0x65302, size: 0x8, addend: 0x0, symName: __ZNSt3__114__split_bufferINS_10shared_ptrI7ASTNodeEERNS_9allocatorIS3_EEE7__allocB8ue170006Ev, symObjAddr: 0x6C48, symBinAddr: 0x100011484, symSize: 0x28 }
  - { offsetInCU: 0x4E672, offset: 0x65328, size: 0x8, addend: 0x0, symName: __ZNSt3__114__split_bufferINS_10shared_ptrI7ASTNodeEERNS_9allocatorIS3_EEE9__end_capB8ue170006Ev, symObjAddr: 0x6C70, symBinAddr: 0x1000114AC, symSize: 0x28 }
  - { offsetInCU: 0x4E698, offset: 0x6534E, size: 0x8, addend: 0x0, symName: __ZNSt3__117__compressed_pairIPNS_10shared_ptrI7ASTNodeEERNS_9allocatorIS3_EEEC2B8ue170006IDnS7_EEOT_OT0_, symObjAddr: 0x6C98, symBinAddr: 0x1000114D4, symSize: 0x48 }
  - { offsetInCU: 0x4E6F0, offset: 0x653A6, size: 0x8, addend: 0x0, symName: __ZNSt3__122__compressed_pair_elemIPNS_10shared_ptrI7ASTNodeEELi0ELb0EEC2B8ue170006IDnvEEOT_, symObjAddr: 0x6CE0, symBinAddr: 0x10001151C, symSize: 0x1C }
  - { offsetInCU: 0x4E732, offset: 0x653E8, size: 0x8, addend: 0x0, symName: __ZNSt3__122__compressed_pair_elemIRNS_9allocatorINS_10shared_ptrI7ASTNodeEEEELi1ELb0EEC2B8ue170006IS6_vEEOT_, symObjAddr: 0x6CFC, symBinAddr: 0x100011538, symSize: 0x20 }
  - { offsetInCU: 0x4E774, offset: 0x6542A, size: 0x8, addend: 0x0, symName: __ZNSt3__19allocatorINS_10shared_ptrI7ASTNodeEEE8allocateB8ue170006Em, symObjAddr: 0x6D1C, symBinAddr: 0x100011558, symSize: 0x58 }
  - { offsetInCU: 0x4E7A8, offset: 0x6545E, size: 0x8, addend: 0x0, symName: __ZNSt3__117__compressed_pairIPNS_10shared_ptrI7ASTNodeEERNS_9allocatorIS3_EEE6secondB8ue170006Ev, symObjAddr: 0x6E78, symBinAddr: 0x1000115B0, symSize: 0x28 }
  - { offsetInCU: 0x4E7CE, offset: 0x65484, size: 0x8, addend: 0x0, symName: __ZNSt3__122__compressed_pair_elemIRNS_9allocatorINS_10shared_ptrI7ASTNodeEEEELi1ELb0EE5__getB8ue170006Ev, symObjAddr: 0x6EA0, symBinAddr: 0x1000115D8, symSize: 0x18 }
  - { offsetInCU: 0x4E7F4, offset: 0x654AA, size: 0x8, addend: 0x0, symName: __ZNSt3__117__compressed_pairIPNS_10shared_ptrI7ASTNodeEERNS_9allocatorIS3_EEE5firstB8ue170006Ev, symObjAddr: 0x6EB8, symBinAddr: 0x1000115F0, symSize: 0x24 }
  - { offsetInCU: 0x4E81A, offset: 0x654D0, size: 0x8, addend: 0x0, symName: __ZNKSt3__16vectorINS_10shared_ptrI7ASTNodeEENS_9allocatorIS3_EEE17__annotate_deleteB8ue170006Ev, symObjAddr: 0x6EDC, symBinAddr: 0x100011614, symSize: 0xB8 }
  - { offsetInCU: 0x4E840, offset: 0x654F6, size: 0x8, addend: 0x0, symName: __ZNSt3__116reverse_iteratorIPNS_10shared_ptrI7ASTNodeEEEC1B8ue170006ES4_, symObjAddr: 0x70C0, symBinAddr: 0x1000117F8, symSize: 0x34 }
  - { offsetInCU: 0x4E878, offset: 0x6552E, size: 0x8, addend: 0x0, symName: __ZNKSt3__116reverse_iteratorIPNS_10shared_ptrI7ASTNodeEEE4baseB8ue170006Ev, symObjAddr: 0x70F4, symBinAddr: 0x10001182C, symSize: 0x18 }
  - { offsetInCU: 0x4E89E, offset: 0x65554, size: 0x8, addend: 0x0, symName: __ZNKSt3__16vectorINS_10shared_ptrI7ASTNodeEENS_9allocatorIS3_EEE14__annotate_newB8ue170006Em, symObjAddr: 0x7148, symBinAddr: 0x100011880, symSize: 0xAC }
  - { offsetInCU: 0x4E8D3, offset: 0x65589, size: 0x8, addend: 0x0, symName: __ZNKSt3__16vectorINS_10shared_ptrI7ASTNodeEENS_9allocatorIS3_EEE31__annotate_contiguous_containerB8ue170006EPKvS8_S8_S8_, symObjAddr: 0x71F4, symBinAddr: 0x10001192C, symSize: 0x20 }
  - { offsetInCU: 0x4E929, offset: 0x655DF, size: 0x8, addend: 0x0, symName: __ZNKSt3__16vectorINS_10shared_ptrI7ASTNodeEENS_9allocatorIS3_EEE4dataB8ue170006Ev, symObjAddr: 0x7214, symBinAddr: 0x10001194C, symSize: 0x28 }
  - { offsetInCU: 0x4E94F, offset: 0x65605, size: 0x8, addend: 0x0, symName: __ZNSt3__129_AllocatorDestroyRangeReverseINS_9allocatorINS_10shared_ptrI7ASTNodeEEEENS_16reverse_iteratorIPS4_EEEC1B8ue170006ERS5_RS8_SB_, symObjAddr: 0x7288, symBinAddr: 0x1000119C0, symSize: 0x44 }
  - { offsetInCU: 0x4E9A6, offset: 0x6565C, size: 0x8, addend: 0x0, symName: __ZNSt3__116allocator_traitsINS_9allocatorINS_10shared_ptrI7ASTNodeEEEEE9constructB8ue170006IS4_JS4_EvvEEvRS5_PT_DpOT0_, symObjAddr: 0x7314, symBinAddr: 0x100011A4C, symSize: 0x30 }
  - { offsetInCU: 0x4E9FB, offset: 0x656B1, size: 0x8, addend: 0x0, symName: __ZNKSt3__116reverse_iteratorIPNS_10shared_ptrI7ASTNodeEEEdeB8ue170006Ev, symObjAddr: 0x7368, symBinAddr: 0x100011AA0, symSize: 0x28 }
  - { offsetInCU: 0x4EA2F, offset: 0x656E5, size: 0x8, addend: 0x0, symName: __ZNSt3__116reverse_iteratorIPNS_10shared_ptrI7ASTNodeEEEppB8ue170006Ev, symObjAddr: 0x7390, symBinAddr: 0x100011AC8, symSize: 0x20 }
  - { offsetInCU: 0x4EA55, offset: 0x6570B, size: 0x8, addend: 0x0, symName: __ZNSt3__128__exception_guard_exceptionsINS_29_AllocatorDestroyRangeReverseINS_9allocatorINS_10shared_ptrI7ASTNodeEEEENS_16reverse_iteratorIPS5_EEEEE10__completeB8ue170006Ev, symObjAddr: 0x73B0, symBinAddr: 0x100011AE8, symSize: 0x1C }
  - { offsetInCU: 0x4EA7B, offset: 0x65731, size: 0x8, addend: 0x0, symName: __ZNSt3__128__exception_guard_exceptionsINS_29_AllocatorDestroyRangeReverseINS_9allocatorINS_10shared_ptrI7ASTNodeEEEENS_16reverse_iteratorIPS5_EEEEED1B8ue170006Ev, symObjAddr: 0x73CC, symBinAddr: 0x100011B04, symSize: 0x2C }
  - { offsetInCU: 0x4EAA5, offset: 0x6575B, size: 0x8, addend: 0x0, symName: __ZNSt3__128__exception_guard_exceptionsINS_29_AllocatorDestroyRangeReverseINS_9allocatorINS_10shared_ptrI7ASTNodeEEEENS_16reverse_iteratorIPS5_EEEEEC1B8ue170006ESA_, symObjAddr: 0x73F8, symBinAddr: 0x100011B30, symSize: 0x34 }
  - { offsetInCU: 0x4EADE, offset: 0x65794, size: 0x8, addend: 0x0, symName: __ZNSt3__128__exception_guard_exceptionsINS_29_AllocatorDestroyRangeReverseINS_9allocatorINS_10shared_ptrI7ASTNodeEEEENS_16reverse_iteratorIPS5_EEEEEC2B8ue170006ESA_, symObjAddr: 0x742C, symBinAddr: 0x100011B64, symSize: 0x30 }
  - { offsetInCU: 0x4EB17, offset: 0x657CD, size: 0x8, addend: 0x0, symName: __ZNSt3__129_AllocatorDestroyRangeReverseINS_9allocatorINS_10shared_ptrI7ASTNodeEEEENS_16reverse_iteratorIPS4_EEEC2B8ue170006ERS5_RS8_SB_, symObjAddr: 0x745C, symBinAddr: 0x100011B94, symSize: 0x38 }
  - { offsetInCU: 0x4EB6E, offset: 0x65824, size: 0x8, addend: 0x0, symName: __ZNSt3__110shared_ptrI7ASTNodeEC1B8ue170006EOS2_, symObjAddr: 0x74D0, symBinAddr: 0x100011C08, symSize: 0x34 }
  - { offsetInCU: 0x4EBA7, offset: 0x6585D, size: 0x8, addend: 0x0, symName: __ZNSt3__110shared_ptrI7ASTNodeEC2B8ue170006EOS2_, symObjAddr: 0x7504, symBinAddr: 0x100011C3C, symSize: 0x40 }
  - { offsetInCU: 0x4EBE5, offset: 0x6589B, size: 0x8, addend: 0x0, symName: __ZNSt3__119__to_address_helperINS_16reverse_iteratorIPNS_10shared_ptrI7ASTNodeEEEEvE6__callB8ue170006ERKS6_, symObjAddr: 0x7544, symBinAddr: 0x100011C7C, symSize: 0x38 }
  - { offsetInCU: 0x4EC08, offset: 0x658BE, size: 0x8, addend: 0x0, symName: __ZNKSt3__116reverse_iteratorIPNS_10shared_ptrI7ASTNodeEEEptB8ue170006Ev, symObjAddr: 0x757C, symBinAddr: 0x100011CB4, symSize: 0x2C }
  - { offsetInCU: 0x4EC2E, offset: 0x658E4, size: 0x8, addend: 0x0, symName: __ZNSt3__128__exception_guard_exceptionsINS_29_AllocatorDestroyRangeReverseINS_9allocatorINS_10shared_ptrI7ASTNodeEEEENS_16reverse_iteratorIPS5_EEEEED2B8ue170006Ev, symObjAddr: 0x7658, symBinAddr: 0x100011D7C, symSize: 0x50 }
  - { offsetInCU: 0x4EC58, offset: 0x6590E, size: 0x8, addend: 0x0, symName: __ZNKSt3__129_AllocatorDestroyRangeReverseINS_9allocatorINS_10shared_ptrI7ASTNodeEEEENS_16reverse_iteratorIPS4_EEEclB8ue170006Ev, symObjAddr: 0x76A8, symBinAddr: 0x100011DCC, symSize: 0xB4 }
  - { offsetInCU: 0x4EC7F, offset: 0x65935, size: 0x8, addend: 0x0, symName: __ZNSt3__116reverse_iteratorINS0_IPNS_10shared_ptrI7ASTNodeEEEEEC1B8ue170006ES5_, symObjAddr: 0x77CC, symBinAddr: 0x100011EF0, symSize: 0x3C }
  - { offsetInCU: 0x4ECB7, offset: 0x6596D, size: 0x8, addend: 0x0, symName: __ZNSt3__116allocator_traitsINS_9allocatorINS_10shared_ptrI7ASTNodeEEEEE7destroyB8ue170006IS4_vvEEvRS5_PT_, symObjAddr: 0x7868, symBinAddr: 0x100011F8C, symSize: 0x28 }
  - { offsetInCU: 0x4ECF2, offset: 0x659A8, size: 0x8, addend: 0x0, symName: __ZNSt3__116reverse_iteratorINS0_IPNS_10shared_ptrI7ASTNodeEEEEEppB8ue170006Ev, symObjAddr: 0x78B4, symBinAddr: 0x100011FD8, symSize: 0x30 }
  - { offsetInCU: 0x4ED18, offset: 0x659CE, size: 0x8, addend: 0x0, symName: __ZNKSt3__116reverse_iteratorINS0_IPNS_10shared_ptrI7ASTNodeEEEEE4baseB8ue170006Ev, symObjAddr: 0x78E4, symBinAddr: 0x100012008, symSize: 0x24 }
  - { offsetInCU: 0x4ED43, offset: 0x659F9, size: 0x8, addend: 0x0, symName: __ZNSt3__119__to_address_helperINS_16reverse_iteratorINS1_IPNS_10shared_ptrI7ASTNodeEEEEEEvE6__callB8ue170006ERKS7_, symObjAddr: 0x7950, symBinAddr: 0x100012074, symSize: 0x38 }
  - { offsetInCU: 0x4ED66, offset: 0x65A1C, size: 0x8, addend: 0x0, symName: __ZNKSt3__116reverse_iteratorINS0_IPNS_10shared_ptrI7ASTNodeEEEEEptB8ue170006Ev, symObjAddr: 0x7988, symBinAddr: 0x1000120AC, symSize: 0x4C }
  - { offsetInCU: 0x4ED8C, offset: 0x65A42, size: 0x8, addend: 0x0, symName: __ZNSt3__116reverse_iteratorIPNS_10shared_ptrI7ASTNodeEEEpLB8ue170006El, symObjAddr: 0x7A84, symBinAddr: 0x1000121A8, symSize: 0x30 }
  - { offsetInCU: 0x4EDC0, offset: 0x65A76, size: 0x8, addend: 0x0, symName: __ZNSt3__116reverse_iteratorIPNS_10shared_ptrI7ASTNodeEEEmmB8ue170006Ev, symObjAddr: 0x7AB4, symBinAddr: 0x1000121D8, symSize: 0x20 }
  - { offsetInCU: 0x4EDE6, offset: 0x65A9C, size: 0x8, addend: 0x0, symName: __ZNSt3__116reverse_iteratorINS0_IPNS_10shared_ptrI7ASTNodeEEEEEC2B8ue170006ES5_, symObjAddr: 0x7AD4, symBinAddr: 0x1000121F8, symSize: 0x2C }
  - { offsetInCU: 0x4EE1E, offset: 0x65AD4, size: 0x8, addend: 0x0, symName: __ZNSt3__116reverse_iteratorIPNS_10shared_ptrI7ASTNodeEEEC2B8ue170006ES4_, symObjAddr: 0x7B00, symBinAddr: 0x100012224, symSize: 0x28 }
  - { offsetInCU: 0x4EE56, offset: 0x65B0C, size: 0x8, addend: 0x0, symName: __ZNSt3__114__split_bufferINS_10shared_ptrI7ASTNodeEERNS_9allocatorIS3_EEED2Ev, symObjAddr: 0x7B28, symBinAddr: 0x10001224C, symSize: 0x8C }
  - { offsetInCU: 0x4EE82, offset: 0x65B38, size: 0x8, addend: 0x0, symName: __ZNSt3__114__split_bufferINS_10shared_ptrI7ASTNodeEERNS_9allocatorIS3_EEE5clearB8ue170006Ev, symObjAddr: 0x7BB4, symBinAddr: 0x1000122D8, symSize: 0x28 }
  - { offsetInCU: 0x4EEA8, offset: 0x65B5E, size: 0x8, addend: 0x0, symName: __ZNSt3__116allocator_traitsINS_9allocatorINS_10shared_ptrI7ASTNodeEEEEE10deallocateB8ue170006ERS5_PS4_m, symObjAddr: 0x7BDC, symBinAddr: 0x100012300, symSize: 0x34 }
  - { offsetInCU: 0x4EEEA, offset: 0x65BA0, size: 0x8, addend: 0x0, symName: __ZNKSt3__114__split_bufferINS_10shared_ptrI7ASTNodeEERNS_9allocatorIS3_EEE8capacityB8ue170006Ev, symObjAddr: 0x7C10, symBinAddr: 0x100012334, symSize: 0x40 }
  - { offsetInCU: 0x4EF10, offset: 0x65BC6, size: 0x8, addend: 0x0, symName: __ZNSt3__114__split_bufferINS_10shared_ptrI7ASTNodeEERNS_9allocatorIS3_EEE17__destruct_at_endB8ue170006EPS3_, symObjAddr: 0x7C50, symBinAddr: 0x100012374, symSize: 0x2C }
  - { offsetInCU: 0x4EF44, offset: 0x65BFA, size: 0x8, addend: 0x0, symName: __ZNSt3__114__split_bufferINS_10shared_ptrI7ASTNodeEERNS_9allocatorIS3_EEE17__destruct_at_endB8ue170006EPS3_NS_17integral_constantIbLb0EEE, symObjAddr: 0x7C7C, symBinAddr: 0x1000123A0, symSize: 0x80 }
  - { offsetInCU: 0x4EF84, offset: 0x65C3A, size: 0x8, addend: 0x0, symName: __ZNSt3__19allocatorINS_10shared_ptrI7ASTNodeEEE10deallocateB8ue170006EPS3_m, symObjAddr: 0x7CFC, symBinAddr: 0x100012420, symSize: 0x40 }
  - { offsetInCU: 0x4EFC6, offset: 0x65C7C, size: 0x8, addend: 0x0, symName: __ZNKSt3__114__split_bufferINS_10shared_ptrI7ASTNodeEERNS_9allocatorIS3_EEE9__end_capB8ue170006Ev, symObjAddr: 0x7E44, symBinAddr: 0x100012460, symSize: 0x28 }
  - { offsetInCU: 0x4EFEC, offset: 0x65CA2, size: 0x8, addend: 0x0, symName: __ZNKSt3__117__compressed_pairIPNS_10shared_ptrI7ASTNodeEERNS_9allocatorIS3_EEE5firstB8ue170006Ev, symObjAddr: 0x7E6C, symBinAddr: 0x100012488, symSize: 0x24 }
  - { offsetInCU: 0x4F012, offset: 0x65CC8, size: 0x8, addend: 0x0, symName: __ZNSt3__16vectorINS_3setINS_12basic_stringIcNS_11char_traitsIcEENS_9allocatorIcEEEENS_4lessIS7_EENS5_IS7_EEEENS5_ISB_EEE5beginB8ue170006Ev, symObjAddr: 0x7E90, symBinAddr: 0x1000124AC, symSize: 0x30 }
  - { offsetInCU: 0x4F03A, offset: 0x65CF0, size: 0x8, addend: 0x0, symName: __ZNSt3__16vectorINS_3setINS_12basic_stringIcNS_11char_traitsIcEENS_9allocatorIcEEEENS_4lessIS7_EENS5_IS7_EEEENS5_ISB_EEE3endB8ue170006Ev, symObjAddr: 0x7EC0, symBinAddr: 0x1000124DC, symSize: 0x30 }
  - { offsetInCU: 0x4F062, offset: 0x65D18, size: 0x8, addend: 0x0, symName: __ZNKSt3__111__wrap_iterIPNS_3setINS_12basic_stringIcNS_11char_traitsIcEENS_9allocatorIcEEEENS_4lessIS7_EENS5_IS7_EEEEEdeB8ue170006Ev, symObjAddr: 0x7F24, symBinAddr: 0x100012540, symSize: 0x18 }
  - { offsetInCU: 0x4F088, offset: 0x65D3E, size: 0x8, addend: 0x0, symName: __ZNSt3__13setINS_12basic_stringIcNS_11char_traitsIcEENS_9allocatorIcEEEENS_4lessIS6_EENS4_IS6_EEE5beginB8ue170006Ev, symObjAddr: 0x7F3C, symBinAddr: 0x100012558, symSize: 0x38 }
  - { offsetInCU: 0x4F0AE, offset: 0x65D64, size: 0x8, addend: 0x0, symName: __ZNSt3__13setINS_12basic_stringIcNS_11char_traitsIcEENS_9allocatorIcEEEENS_4lessIS6_EENS4_IS6_EEE3endB8ue170006Ev, symObjAddr: 0x7F74, symBinAddr: 0x100012590, symSize: 0x38 }
  - { offsetInCU: 0x4F0D4, offset: 0x65D8A, size: 0x8, addend: 0x0, symName: __ZNKSt3__121__tree_const_iteratorINS_12basic_stringIcNS_11char_traitsIcEENS_9allocatorIcEEEEPNS_11__tree_nodeIS6_PvEElEdeB8ue170006Ev, symObjAddr: 0x7FE0, symBinAddr: 0x1000125FC, symSize: 0x28 }
  - { offsetInCU: 0x4F0FA, offset: 0x65DB0, size: 0x8, addend: 0x0, symName: __ZNSt3__121__tree_const_iteratorINS_12basic_stringIcNS_11char_traitsIcEENS_9allocatorIcEEEEPNS_11__tree_nodeIS6_PvEElEppB8ue170006Ev, symObjAddr: 0x8054, symBinAddr: 0x100012624, symSize: 0x38 }
  - { offsetInCU: 0x4F120, offset: 0x65DD6, size: 0x8, addend: 0x0, symName: __ZNSt3__111__wrap_iterIPNS_3setINS_12basic_stringIcNS_11char_traitsIcEENS_9allocatorIcEEEENS_4lessIS7_EENS5_IS7_EEEEEppB8ue170006Ev, symObjAddr: 0x808C, symBinAddr: 0x10001265C, symSize: 0x20 }
  - { offsetInCU: 0x4F146, offset: 0x65DFC, size: 0x8, addend: 0x0, symName: __ZNSt3__16vectorINS_3setINS_12basic_stringIcNS_11char_traitsIcEENS_9allocatorIcEEEENS_4lessIS7_EENS5_IS7_EEEENS5_ISB_EEE11__make_iterB8ue170006EPSB_, symObjAddr: 0x80AC, symBinAddr: 0x10001267C, symSize: 0x30 }
  - { offsetInCU: 0x4F17B, offset: 0x65E31, size: 0x8, addend: 0x0, symName: __ZNSt3__111__wrap_iterIPNS_3setINS_12basic_stringIcNS_11char_traitsIcEENS_9allocatorIcEEEENS_4lessIS7_EENS5_IS7_EEEEEC1B8ue170006ESC_, symObjAddr: 0x80DC, symBinAddr: 0x1000126AC, symSize: 0x34 }
  - { offsetInCU: 0x4F1B3, offset: 0x65E69, size: 0x8, addend: 0x0, symName: __ZNSt3__111__wrap_iterIPNS_3setINS_12basic_stringIcNS_11char_traitsIcEENS_9allocatorIcEEEENS_4lessIS7_EENS5_IS7_EEEEEC2B8ue170006ESC_, symObjAddr: 0x8110, symBinAddr: 0x1000126E0, symSize: 0x20 }
  - { offsetInCU: 0x4F1EB, offset: 0x65EA1, size: 0x8, addend: 0x0, symName: __ZNKSt3__111__wrap_iterIPNS_3setINS_12basic_stringIcNS_11char_traitsIcEENS_9allocatorIcEEEENS_4lessIS7_EENS5_IS7_EEEEE4baseB8ue170006Ev, symObjAddr: 0x8178, symBinAddr: 0x100012748, symSize: 0x18 }
  - { offsetInCU: 0x4F211, offset: 0x65EC7, size: 0x8, addend: 0x0, symName: __ZNSt3__16__treeINS_12basic_stringIcNS_11char_traitsIcEENS_9allocatorIcEEEENS_4lessIS6_EENS4_IS6_EEE5beginB8ue170006Ev, symObjAddr: 0x8190, symBinAddr: 0x100012760, symSize: 0x34 }
  - { offsetInCU: 0x4F237, offset: 0x65EED, size: 0x8, addend: 0x0, symName: __ZNSt3__121__tree_const_iteratorINS_12basic_stringIcNS_11char_traitsIcEENS_9allocatorIcEEEEPNS_11__tree_nodeIS6_PvEElEC1B8ue170006ENS_15__tree_iteratorIS6_SA_lEE, symObjAddr: 0x81C4, symBinAddr: 0x100012794, symSize: 0x34 }
  - { offsetInCU: 0x4F270, offset: 0x65F26, size: 0x8, addend: 0x0, symName: __ZNSt3__16__treeINS_12basic_stringIcNS_11char_traitsIcEENS_9allocatorIcEEEENS_4lessIS6_EENS4_IS6_EEE12__begin_nodeB8ue170006Ev, symObjAddr: 0x81F8, symBinAddr: 0x1000127C8, symSize: 0x14 }
  - { offsetInCU: 0x4F296, offset: 0x65F4C, size: 0x8, addend: 0x0, symName: __ZNSt3__115__tree_iteratorINS_12basic_stringIcNS_11char_traitsIcEENS_9allocatorIcEEEEPNS_11__tree_nodeIS6_PvEElEC1B8ue170006EPNS_15__tree_end_nodeIPNS_16__tree_node_baseIS8_EEEE, symObjAddr: 0x820C, symBinAddr: 0x1000127DC, symSize: 0x34 }
  - { offsetInCU: 0x4F2CF, offset: 0x65F85, size: 0x8, addend: 0x0, symName: __ZNSt3__115__tree_iteratorINS_12basic_stringIcNS_11char_traitsIcEENS_9allocatorIcEEEEPNS_11__tree_nodeIS6_PvEElEC2B8ue170006EPNS_15__tree_end_nodeIPNS_16__tree_node_baseIS8_EEEE, symObjAddr: 0x8240, symBinAddr: 0x100012810, symSize: 0x20 }
  - { offsetInCU: 0x4F308, offset: 0x65FBE, size: 0x8, addend: 0x0, symName: __ZNSt3__121__tree_const_iteratorINS_12basic_stringIcNS_11char_traitsIcEENS_9allocatorIcEEEEPNS_11__tree_nodeIS6_PvEElEC2B8ue170006ENS_15__tree_iteratorIS6_SA_lEE, symObjAddr: 0x8260, symBinAddr: 0x100012830, symSize: 0x20 }
  - { offsetInCU: 0x4F341, offset: 0x65FF7, size: 0x8, addend: 0x0, symName: __ZNSt3__16__treeINS_12basic_stringIcNS_11char_traitsIcEENS_9allocatorIcEEEENS_4lessIS6_EENS4_IS6_EEE3endB8ue170006Ev, symObjAddr: 0x8280, symBinAddr: 0x100012850, symSize: 0x34 }
  - { offsetInCU: 0x4F367, offset: 0x6601D, size: 0x8, addend: 0x0, symName: __ZNSt3__16__treeINS_12basic_stringIcNS_11char_traitsIcEENS_9allocatorIcEEEENS_4lessIS6_EENS4_IS6_EEE10__end_nodeB8ue170006Ev, symObjAddr: 0x82B4, symBinAddr: 0x100012884, symSize: 0x2C }
  - { offsetInCU: 0x4F38D, offset: 0x66043, size: 0x8, addend: 0x0, symName: __ZNSt3__114pointer_traitsIPNS_15__tree_end_nodeIPNS_16__tree_node_baseIPvEEEEE10pointer_toB8ue170006ERS6_, symObjAddr: 0x82E0, symBinAddr: 0x1000128B0, symSize: 0x14 }
  - { offsetInCU: 0x4F3B0, offset: 0x66066, size: 0x8, addend: 0x0, symName: __ZNSt3__117__compressed_pairINS_15__tree_end_nodeIPNS_16__tree_node_baseIPvEEEENS_9allocatorINS_11__tree_nodeINS_12basic_stringIcNS_11char_traitsIcEENS7_IcEEEES3_EEEEE5firstB8ue170006Ev, symObjAddr: 0x82F4, symBinAddr: 0x1000128C4, symSize: 0x24 }
  - { offsetInCU: 0x4F3D6, offset: 0x6608C, size: 0x8, addend: 0x0, symName: __ZNSt3__122__compressed_pair_elemINS_15__tree_end_nodeIPNS_16__tree_node_baseIPvEEEELi0ELb0EE5__getB8ue170006Ev, symObjAddr: 0x8318, symBinAddr: 0x1000128E8, symSize: 0x14 }
  - { offsetInCU: 0x4F3FC, offset: 0x660B2, size: 0x8, addend: 0x0, symName: __ZNKSt3__121__tree_const_iteratorINS_12basic_stringIcNS_11char_traitsIcEENS_9allocatorIcEEEEPNS_11__tree_nodeIS6_PvEElE8__get_npB8ue170006Ev, symObjAddr: 0x835C, symBinAddr: 0x10001292C, symSize: 0x18 }
  - { offsetInCU: 0x4F440, offset: 0x660F6, size: 0x8, addend: 0x0, symName: __ZNKSt3__116__tree_node_baseIPvE15__parent_unsafeB8ue170006Ev, symObjAddr: 0x8FA4, symBinAddr: 0x100012A40, symSize: 0x18 }
  - { offsetInCU: 0x4F466, offset: 0x6611C, size: 0x8, addend: 0x0, symName: __ZNSt3__13anyD2B8ue170006Ev, symObjAddr: 0x8FBC, symBinAddr: 0x100012A58, symSize: 0x2C }
  - { offsetInCU: 0x4F490, offset: 0x66146, size: 0x8, addend: 0x0, symName: __ZNSt3__13any5resetB8ue170006Ev, symObjAddr: 0x8FE8, symBinAddr: 0x100012A84, symSize: 0x5C }
  - { offsetInCU: 0x4F4B6, offset: 0x6616C, size: 0x8, addend: 0x0, symName: __ZNSt3__13any6__callB8ue170006ENS_9__any_imp7_ActionEPS0_PKSt9type_infoPKv, symObjAddr: 0x9044, symBinAddr: 0x100012AE0, symSize: 0x48 }
  - { offsetInCU: 0x4F518, offset: 0x661CE, size: 0x8, addend: 0x0, symName: __ZNKSt3__16vectorINS_13unordered_mapINS_12basic_stringIcNS_11char_traitsIcEENS_9allocatorIcEEEENS_10shared_ptrI8VariableEENS_4hashIS7_EENS_8equal_toIS7_EENS5_INS_4pairIKS7_SA_EEEEEENS5_ISJ_EEE4sizeB8ue170006Ev, symObjAddr: 0x908C, symBinAddr: 0x100012B28, symSize: 0x28 }
  - { offsetInCU: 0x4F53E, offset: 0x661F4, size: 0x8, addend: 0x0, symName: __ZNSt3__16vectorINS_13unordered_mapINS_12basic_stringIcNS_11char_traitsIcEENS_9allocatorIcEEEENS_10shared_ptrI8VariableEENS_4hashIS7_EENS_8equal_toIS7_EENS5_INS_4pairIKS7_SA_EEEEEENS5_ISJ_EEEixB8ue170006Em, symObjAddr: 0x90B4, symBinAddr: 0x100012B50, symSize: 0x2C }
  - { offsetInCU: 0x4F575, offset: 0x6622B, size: 0x8, addend: 0x0, symName: __ZNSt3__113unordered_mapINS_12basic_stringIcNS_11char_traitsIcEENS_9allocatorIcEEEENS_10shared_ptrI8VariableEENS_4hashIS6_EENS_8equal_toIS6_EENS4_INS_4pairIKS6_S9_EEEEE5beginB8ue170006Ev, symObjAddr: 0x90E0, symBinAddr: 0x100012B7C, symSize: 0x38 }
  - { offsetInCU: 0x4F59B, offset: 0x66251, size: 0x8, addend: 0x0, symName: __ZNSt3__113unordered_mapINS_12basic_stringIcNS_11char_traitsIcEENS_9allocatorIcEEEENS_10shared_ptrI8VariableEENS_4hashIS6_EENS_8equal_toIS6_EENS4_INS_4pairIKS6_S9_EEEEE3endB8ue170006Ev, symObjAddr: 0x9118, symBinAddr: 0x100012BB4, symSize: 0x38 }
  - { offsetInCU: 0x4F5C1, offset: 0x66277, size: 0x8, addend: 0x0, symName: __ZNKSt3__119__hash_map_iteratorINS_15__hash_iteratorIPNS_11__hash_nodeINS_17__hash_value_typeINS_12basic_stringIcNS_11char_traitsIcEENS_9allocatorIcEEEENS_10shared_ptrI8VariableEEEEPvEEEEEdeB8ue170006Ev, symObjAddr: 0x9180, symBinAddr: 0x100012C1C, symSize: 0x28 }
  - { offsetInCU: 0x4F5E7, offset: 0x6629D, size: 0x8, addend: 0x0, symName: __ZNKSt3__110shared_ptrI8VariableEptB8ue170006Ev, symObjAddr: 0x91A8, symBinAddr: 0x100012C44, symSize: 0x18 }
  - { offsetInCU: 0x4F60D, offset: 0x662C3, size: 0x8, addend: 0x0, symName: __ZNKSt3__13any4typeB8ue170006Ev, symObjAddr: 0x91C0, symBinAddr: 0x100012C5C, symSize: 0x7C }
  - { offsetInCU: 0x4F668, offset: 0x6631E, size: 0x8, addend: 0x0, symName: __ZNKSt9type_infoeqB8ue170006ERKS_, symObjAddr: 0x923C, symBinAddr: 0x100012CD8, symSize: 0xDC }
  - { offsetInCU: 0x4F702, offset: 0x663B8, size: 0x8, addend: 0x0, symName: __ZNSt3__16vectorIiNS_9allocatorIiEEE5beginB8ue170006Ev, symObjAddr: 0x9454, symBinAddr: 0x100012EF0, symSize: 0x30 }
  - { offsetInCU: 0x4F72A, offset: 0x663E0, size: 0x8, addend: 0x0, symName: __ZNSt3__16vectorIiNS_9allocatorIiEEE3endB8ue170006Ev, symObjAddr: 0x9484, symBinAddr: 0x100012F20, symSize: 0x30 }
  - { offsetInCU: 0x4F752, offset: 0x66408, size: 0x8, addend: 0x0, symName: __ZNKSt3__111__wrap_iterIPiEdeB8ue170006Ev, symObjAddr: 0x94E8, symBinAddr: 0x100012F84, symSize: 0x18 }
  - { offsetInCU: 0x4F778, offset: 0x6642E, size: 0x8, addend: 0x0, symName: __ZNSt3__111__wrap_iterIPiEppB8ue170006Ev, symObjAddr: 0x9500, symBinAddr: 0x100012F9C, symSize: 0x20 }
  - { offsetInCU: 0x4F79E, offset: 0x66454, size: 0x8, addend: 0x0, symName: __ZNSt3__16vectorIiNS_9allocatorIiEEED1B8ue170006Ev, symObjAddr: 0x9520, symBinAddr: 0x100012FBC, symSize: 0x2C }
  - { offsetInCU: 0x4F7C8, offset: 0x6647E, size: 0x8, addend: 0x0, symName: __ZNSt3__16vectorIbNS_9allocatorIbEEE5beginB8ue170006Ev, symObjAddr: 0x95A0, symBinAddr: 0x10001303C, symSize: 0x30 }
  - { offsetInCU: 0x4F7EE, offset: 0x664A4, size: 0x8, addend: 0x0, symName: __ZNSt3__16vectorIbNS_9allocatorIbEEE3endB8ue170006Ev, symObjAddr: 0x95D0, symBinAddr: 0x10001306C, symSize: 0x30 }
  - { offsetInCU: 0x4F814, offset: 0x664CA, size: 0x8, addend: 0x0, symName: __ZNKSt3__114__bit_iteratorINS_6vectorIbNS_9allocatorIbEEEELb0ELm0EEdeB8ue170006Ev, symObjAddr: 0x9634, symBinAddr: 0x1000130D0, symSize: 0x44 }
  - { offsetInCU: 0x4F83A, offset: 0x664F0, size: 0x8, addend: 0x0, symName: __ZNKSt3__115__bit_referenceINS_6vectorIbNS_9allocatorIbEEEELb1EEcvbB8ue170006Ev, symObjAddr: 0x9678, symBinAddr: 0x100013114, symSize: 0x2C }
  - { offsetInCU: 0x4F860, offset: 0x66516, size: 0x8, addend: 0x0, symName: __ZNSt3__114__bit_iteratorINS_6vectorIbNS_9allocatorIbEEEELb0ELm0EEppB8ue170006Ev, symObjAddr: 0x96A4, symBinAddr: 0x100013140, symSize: 0x5C }
  - { offsetInCU: 0x4F886, offset: 0x6653C, size: 0x8, addend: 0x0, symName: __ZNSt3__16vectorIbNS_9allocatorIbEEED1B8ue170006Ev, symObjAddr: 0x9700, symBinAddr: 0x10001319C, symSize: 0x2C }
  - { offsetInCU: 0x4F8B0, offset: 0x66566, size: 0x8, addend: 0x0, symName: __ZNSt3__16vectorINS_12basic_stringIcNS_11char_traitsIcEENS_9allocatorIcEEEENS4_IS6_EEE5beginB8ue170006Ev, symObjAddr: 0x9780, symBinAddr: 0x10001321C, symSize: 0x30 }
  - { offsetInCU: 0x4F8D8, offset: 0x6658E, size: 0x8, addend: 0x0, symName: __ZNSt3__16vectorINS_12basic_stringIcNS_11char_traitsIcEENS_9allocatorIcEEEENS4_IS6_EEE3endB8ue170006Ev, symObjAddr: 0x97B0, symBinAddr: 0x10001324C, symSize: 0x30 }
  - { offsetInCU: 0x4F900, offset: 0x665B6, size: 0x8, addend: 0x0, symName: __ZNKSt3__111__wrap_iterIPNS_12basic_stringIcNS_11char_traitsIcEENS_9allocatorIcEEEEEdeB8ue170006Ev, symObjAddr: 0x9814, symBinAddr: 0x1000132B0, symSize: 0x18 }
  - { offsetInCU: 0x4F926, offset: 0x665DC, size: 0x8, addend: 0x0, symName: __ZNSt3__111__wrap_iterIPNS_12basic_stringIcNS_11char_traitsIcEENS_9allocatorIcEEEEEppB8ue170006Ev, symObjAddr: 0x982C, symBinAddr: 0x1000132C8, symSize: 0x20 }
  - { offsetInCU: 0x4F94C, offset: 0x66602, size: 0x8, addend: 0x0, symName: __ZNSt3__16vectorINS_12basic_stringIcNS_11char_traitsIcEENS_9allocatorIcEEEENS4_IS6_EEED1B8ue170006Ev, symObjAddr: 0x984C, symBinAddr: 0x1000132E8, symSize: 0x2C }
  - { offsetInCU: 0x4F976, offset: 0x6662C, size: 0x8, addend: 0x0, symName: __ZNSt3__119__hash_map_iteratorINS_15__hash_iteratorIPNS_11__hash_nodeINS_17__hash_value_typeINS_12basic_stringIcNS_11char_traitsIcEENS_9allocatorIcEEEENS_10shared_ptrI8VariableEEEEPvEEEEEppB8ue170006Ev, symObjAddr: 0x9878, symBinAddr: 0x100013314, symSize: 0x2C }
  - { offsetInCU: 0x4F99C, offset: 0x66652, size: 0x8, addend: 0x0, symName: __ZNKSt3__16vectorINS_13unordered_mapINS_12basic_stringIcNS_11char_traitsIcEENS_9allocatorIcEEEENS_10shared_ptrI7ASTNodeEENS_4hashIS7_EENS_8equal_toIS7_EENS5_INS_4pairIKS7_SA_EEEEEENS5_ISJ_EEE4sizeB8ue170006Ev, symObjAddr: 0x98A4, symBinAddr: 0x100013340, symSize: 0x28 }
  - { offsetInCU: 0x4F9C2, offset: 0x66678, size: 0x8, addend: 0x0, symName: __ZNSt3__16vectorINS_13unordered_mapINS_12basic_stringIcNS_11char_traitsIcEENS_9allocatorIcEEEENS_10shared_ptrI7ASTNodeEENS_4hashIS7_EENS_8equal_toIS7_EENS5_INS_4pairIKS7_SA_EEEEEENS5_ISJ_EEEixB8ue170006Em, symObjAddr: 0x98CC, symBinAddr: 0x100013368, symSize: 0x2C }
  - { offsetInCU: 0x4F9F9, offset: 0x666AF, size: 0x8, addend: 0x0, symName: __ZNSt3__113unordered_mapINS_12basic_stringIcNS_11char_traitsIcEENS_9allocatorIcEEEENS_10shared_ptrI7ASTNodeEENS_4hashIS6_EENS_8equal_toIS6_EENS4_INS_4pairIKS6_S9_EEEEE5beginB8ue170006Ev, symObjAddr: 0x98F8, symBinAddr: 0x100013394, symSize: 0x38 }
  - { offsetInCU: 0x4FA1F, offset: 0x666D5, size: 0x8, addend: 0x0, symName: __ZNSt3__113unordered_mapINS_12basic_stringIcNS_11char_traitsIcEENS_9allocatorIcEEEENS_10shared_ptrI7ASTNodeEENS_4hashIS6_EENS_8equal_toIS6_EENS4_INS_4pairIKS6_S9_EEEEE3endB8ue170006Ev, symObjAddr: 0x9930, symBinAddr: 0x1000133CC, symSize: 0x38 }
  - { offsetInCU: 0x4FA45, offset: 0x666FB, size: 0x8, addend: 0x0, symName: __ZNKSt3__119__hash_map_iteratorINS_15__hash_iteratorIPNS_11__hash_nodeINS_17__hash_value_typeINS_12basic_stringIcNS_11char_traitsIcEENS_9allocatorIcEEEENS_10shared_ptrI7ASTNodeEEEEPvEEEEEdeB8ue170006Ev, symObjAddr: 0x9998, symBinAddr: 0x100013434, symSize: 0x28 }
  - { offsetInCU: 0x4FA6B, offset: 0x66721, size: 0x8, addend: 0x0, symName: __ZNSt3__119__hash_map_iteratorINS_15__hash_iteratorIPNS_11__hash_nodeINS_17__hash_value_typeINS_12basic_stringIcNS_11char_traitsIcEENS_9allocatorIcEEEENS_10shared_ptrI7ASTNodeEEEEPvEEEEEppB8ue170006Ev, symObjAddr: 0x99C0, symBinAddr: 0x10001345C, symSize: 0x2C }
  - { offsetInCU: 0x4FA91, offset: 0x66747, size: 0x8, addend: 0x0, symName: __ZNSt3__112__hash_tableINS_17__hash_value_typeINS_12basic_stringIcNS_11char_traitsIcEENS_9allocatorIcEEEENS_10shared_ptrI8VariableEEEENS_22__unordered_map_hasherIS7_SB_NS_4hashIS7_EENS_8equal_toIS7_EELb1EEENS_21__unordered_map_equalIS7_SB_SG_SE_Lb1EEENS5_ISB_EEE5beginEv, symObjAddr: 0x99EC, symBinAddr: 0x100013488, symSize: 0x38 }
  - { offsetInCU: 0x4FAB9, offset: 0x6676F, size: 0x8, addend: 0x0, symName: __ZNSt3__119__hash_map_iteratorINS_15__hash_iteratorIPNS_11__hash_nodeINS_17__hash_value_typeINS_12basic_stringIcNS_11char_traitsIcEENS_9allocatorIcEEEENS_10shared_ptrI8VariableEEEEPvEEEEEC1B8ue170006ESH_, symObjAddr: 0x9A24, symBinAddr: 0x1000134C0, symSize: 0x34 }
  - { offsetInCU: 0x4FAF2, offset: 0x667A8, size: 0x8, addend: 0x0, symName: __ZNSt3__117__compressed_pairINS_16__hash_node_baseIPNS_11__hash_nodeINS_17__hash_value_typeINS_12basic_stringIcNS_11char_traitsIcEENS_9allocatorIcEEEENS_10shared_ptrI8VariableEEEEPvEEEENS7_ISF_EEE5firstB8ue170006Ev, symObjAddr: 0x9A58, symBinAddr: 0x1000134F4, symSize: 0x24 }
  - { offsetInCU: 0x4FB18, offset: 0x667CE, size: 0x8, addend: 0x0, symName: __ZNSt3__115__hash_iteratorIPNS_11__hash_nodeINS_17__hash_value_typeINS_12basic_stringIcNS_11char_traitsIcEENS_9allocatorIcEEEENS_10shared_ptrI8VariableEEEEPvEEEC1B8ue170006EPNS_16__hash_node_baseISF_EE, symObjAddr: 0x9A7C, symBinAddr: 0x100013518, symSize: 0x34 }
  - { offsetInCU: 0x4FB51, offset: 0x66807, size: 0x8, addend: 0x0, symName: __ZNSt3__122__compressed_pair_elemINS_16__hash_node_baseIPNS_11__hash_nodeINS_17__hash_value_typeINS_12basic_stringIcNS_11char_traitsIcEENS_9allocatorIcEEEENS_10shared_ptrI8VariableEEEEPvEEEELi0ELb0EE5__getB8ue170006Ev, symObjAddr: 0x9AB0, symBinAddr: 0x10001354C, symSize: 0x14 }
  - { offsetInCU: 0x4FB77, offset: 0x6682D, size: 0x8, addend: 0x0, symName: __ZNSt3__115__hash_iteratorIPNS_11__hash_nodeINS_17__hash_value_typeINS_12basic_stringIcNS_11char_traitsIcEENS_9allocatorIcEEEENS_10shared_ptrI8VariableEEEEPvEEEC2B8ue170006EPNS_16__hash_node_baseISF_EE, symObjAddr: 0x9AC4, symBinAddr: 0x100013560, symSize: 0x20 }
  - { offsetInCU: 0x4FBB0, offset: 0x66866, size: 0x8, addend: 0x0, symName: __ZNSt3__119__hash_map_iteratorINS_15__hash_iteratorIPNS_11__hash_nodeINS_17__hash_value_typeINS_12basic_stringIcNS_11char_traitsIcEENS_9allocatorIcEEEENS_10shared_ptrI8VariableEEEEPvEEEEEC2B8ue170006ESH_, symObjAddr: 0x9AE4, symBinAddr: 0x100013580, symSize: 0x20 }
  - { offsetInCU: 0x4FBE9, offset: 0x6689F, size: 0x8, addend: 0x0, symName: __ZNSt3__112__hash_tableINS_17__hash_value_typeINS_12basic_stringIcNS_11char_traitsIcEENS_9allocatorIcEEEENS_10shared_ptrI8VariableEEEENS_22__unordered_map_hasherIS7_SB_NS_4hashIS7_EENS_8equal_toIS7_EELb1EEENS_21__unordered_map_equalIS7_SB_SG_SE_Lb1EEENS5_ISB_EEE3endEv, symObjAddr: 0x9B04, symBinAddr: 0x1000135A0, symSize: 0x2C }
  - { offsetInCU: 0x4FC11, offset: 0x668C7, size: 0x8, addend: 0x0, symName: __ZNKSt3__115__hash_iteratorIPNS_11__hash_nodeINS_17__hash_value_typeINS_12basic_stringIcNS_11char_traitsIcEENS_9allocatorIcEEEENS_10shared_ptrI8VariableEEEEPvEEEptB8ue170006Ev, symObjAddr: 0x9B60, symBinAddr: 0x1000135FC, symSize: 0x30 }
  - { offsetInCU: 0x4FC37, offset: 0x668ED, size: 0x8, addend: 0x0, symName: __ZNSt3__117__hash_value_typeINS_12basic_stringIcNS_11char_traitsIcEENS_9allocatorIcEEEENS_10shared_ptrI8VariableEEE11__get_valueB8ue170006Ev, symObjAddr: 0x9B90, symBinAddr: 0x10001362C, symSize: 0x24 }
  - { offsetInCU: 0x4FC5D, offset: 0x66913, size: 0x8, addend: 0x0, symName: __ZNSt3__114pointer_traitsIPNS_17__hash_value_typeINS_12basic_stringIcNS_11char_traitsIcEENS_9allocatorIcEEEENS_10shared_ptrI8VariableEEEEE10pointer_toB8ue170006ERSB_, symObjAddr: 0x9BB4, symBinAddr: 0x100013650, symSize: 0x14 }
  - { offsetInCU: 0x4FC80, offset: 0x66936, size: 0x8, addend: 0x0, symName: __ZNSt3__116__hash_node_baseIPNS_11__hash_nodeINS_17__hash_value_typeINS_12basic_stringIcNS_11char_traitsIcEENS_9allocatorIcEEEENS_10shared_ptrI8VariableEEEEPvEEE8__upcastB8ue170006Ev, symObjAddr: 0x9BC8, symBinAddr: 0x100013664, symSize: 0x24 }
  - { offsetInCU: 0x4FCA6, offset: 0x6695C, size: 0x8, addend: 0x0, symName: __ZNSt3__114pointer_traitsIPNS_16__hash_node_baseIPNS_11__hash_nodeINS_17__hash_value_typeINS_12basic_stringIcNS_11char_traitsIcEENS_9allocatorIcEEEENS_10shared_ptrI8VariableEEEEPvEEEEE10pointer_toB8ue170006ERSH_, symObjAddr: 0x9BEC, symBinAddr: 0x100013688, symSize: 0x14 }
  - { offsetInCU: 0x4FCC9, offset: 0x6697F, size: 0x8, addend: 0x0, symName: __ZNKSt3__13any6__callB8ue170006ENS_9__any_imp7_ActionEPS0_PKSt9type_infoPKv, symObjAddr: 0x9C38, symBinAddr: 0x1000136D4, symSize: 0x48 }
  - { offsetInCU: 0x4FD2B, offset: 0x669E1, size: 0x8, addend: 0x0, symName: __ZNSt27__type_info_implementations30__non_unique_arm_rtti_bit_impl21__is_type_name_uniqueB8ue170006Em, symObjAddr: 0x9C80, symBinAddr: 0x10001371C, symSize: 0x20 }
  - { offsetInCU: 0x4FD72, offset: 0x66A28, size: 0x8, addend: 0x0, symName: __ZNSt12bad_any_castC1Ev, symObjAddr: 0x9DA0, symBinAddr: 0x10001383C, symSize: 0x2C }
  - { offsetInCU: 0x4FD9E, offset: 0x66A54, size: 0x8, addend: 0x0, symName: __ZNSt12bad_any_castD1Ev, symObjAddr: 0x9DCC, symBinAddr: 0x100013868, symSize: 0x2C }
  - { offsetInCU: 0x4FDCA, offset: 0x66A80, size: 0x8, addend: 0x0, symName: __ZNSt12bad_any_castC2Ev, symObjAddr: 0x9DF8, symBinAddr: 0x100013894, symSize: 0x44 }
  - { offsetInCU: 0x4FDF6, offset: 0x66AAC, size: 0x8, addend: 0x0, symName: __ZNSt12bad_any_castD2Ev, symObjAddr: 0x9E3C, symBinAddr: 0x1000138D8, symSize: 0x2C }
  - { offsetInCU: 0x4FE22, offset: 0x66AD8, size: 0x8, addend: 0x0, symName: __ZNSt3__16vectorIiNS_9allocatorIiEEEC1ERKS3_, symObjAddr: 0xA0A0, symBinAddr: 0x100013B3C, symSize: 0x34 }
  - { offsetInCU: 0x4FE5D, offset: 0x66B13, size: 0x8, addend: 0x0, symName: __ZNSt3__16vectorIiNS_9allocatorIiEEEC2ERKS3_, symObjAddr: 0xA0F4, symBinAddr: 0x100013B90, symSize: 0x94 }
  - { offsetInCU: 0x4FEA2, offset: 0x66B58, size: 0x8, addend: 0x0, symName: __ZNSt3__116allocator_traitsINS_9allocatorIiEEE37select_on_container_copy_constructionB8ue170006IS2_vvEES2_RKS2_, symObjAddr: 0xA188, symBinAddr: 0x100013C24, symSize: 0x10 }
  - { offsetInCU: 0x4FED1, offset: 0x66B87, size: 0x8, addend: 0x0, symName: __ZNKSt3__16vectorIiNS_9allocatorIiEEE7__allocB8ue170006Ev, symObjAddr: 0xA198, symBinAddr: 0x100013C34, symSize: 0x28 }
  - { offsetInCU: 0x4FEFC, offset: 0x66BB2, size: 0x8, addend: 0x0, symName: __ZNSt3__117__compressed_pairIPiNS_9allocatorIiEEEC1B8ue170006IDnS3_EEOT_OT0_, symObjAddr: 0xA1C0, symBinAddr: 0x100013C5C, symSize: 0x3C }
  - { offsetInCU: 0x4FF54, offset: 0x66C0A, size: 0x8, addend: 0x0, symName: __ZNSt3__16vectorIiNS_9allocatorIiEEE16__init_with_sizeB8ue170006IPiS5_EEvT_T0_m, symObjAddr: 0xA1FC, symBinAddr: 0x100013C98, symSize: 0xB8 }
  - { offsetInCU: 0x4FFC8, offset: 0x66C7E, size: 0x8, addend: 0x0, symName: __ZNKSt3__16vectorIiNS_9allocatorIiEEE4sizeB8ue170006Ev, symObjAddr: 0xA2B4, symBinAddr: 0x100013D50, symSize: 0x28 }
  - { offsetInCU: 0x4FFEE, offset: 0x66CA4, size: 0x8, addend: 0x0, symName: __ZNKSt3__117__compressed_pairIPiNS_9allocatorIiEEE6secondB8ue170006Ev, symObjAddr: 0xA2DC, symBinAddr: 0x100013D78, symSize: 0x24 }
  - { offsetInCU: 0x50014, offset: 0x66CCA, size: 0x8, addend: 0x0, symName: __ZNKSt3__122__compressed_pair_elemINS_9allocatorIiEELi1ELb1EE5__getB8ue170006Ev, symObjAddr: 0xA300, symBinAddr: 0x100013D9C, symSize: 0x14 }
  - { offsetInCU: 0x5003A, offset: 0x66CF0, size: 0x8, addend: 0x0, symName: __ZNSt3__117__compressed_pairIPiNS_9allocatorIiEEEC2B8ue170006IDnS3_EEOT_OT0_, symObjAddr: 0xA314, symBinAddr: 0x100013DB0, symSize: 0x44 }
  - { offsetInCU: 0x50092, offset: 0x66D48, size: 0x8, addend: 0x0, symName: __ZNSt3__122__compressed_pair_elemIPiLi0ELb0EEC2B8ue170006IDnvEEOT_, symObjAddr: 0xA358, symBinAddr: 0x100013DF4, symSize: 0x1C }
  - { offsetInCU: 0x500D4, offset: 0x66D8A, size: 0x8, addend: 0x0, symName: __ZNSt3__122__compressed_pair_elemINS_9allocatorIiEELi1ELb1EEC2B8ue170006IS2_vEEOT_, symObjAddr: 0xA374, symBinAddr: 0x100013E10, symSize: 0x18 }
  - { offsetInCU: 0x50116, offset: 0x66DCC, size: 0x8, addend: 0x0, symName: __ZNSt3__16vectorIiNS_9allocatorIiEEE16__destroy_vectorC1B8ue170006ERS3_, symObjAddr: 0xA3CC, symBinAddr: 0x100013E68, symSize: 0x34 }
  - { offsetInCU: 0x5014F, offset: 0x66E05, size: 0x8, addend: 0x0, symName: __ZNSt3__16vectorIiNS_9allocatorIiEEE11__vallocateB8ue170006Em, symObjAddr: 0xA400, symBinAddr: 0x100013E9C, symSize: 0xAC }
  - { offsetInCU: 0x50193, offset: 0x66E49, size: 0x8, addend: 0x0, symName: __ZNSt3__16vectorIiNS_9allocatorIiEEE18__construct_at_endIPiS5_EEvT_T0_m, symObjAddr: 0xA4AC, symBinAddr: 0x100013F48, symSize: 0x8C }
  - { offsetInCU: 0x50209, offset: 0x66EBF, size: 0x8, addend: 0x0, symName: __ZNSt3__128__exception_guard_exceptionsINS_6vectorIiNS_9allocatorIiEEE16__destroy_vectorEE10__completeB8ue170006Ev, symObjAddr: 0xA538, symBinAddr: 0x100013FD4, symSize: 0x1C }
  - { offsetInCU: 0x5022F, offset: 0x66EE5, size: 0x8, addend: 0x0, symName: __ZNSt3__128__exception_guard_exceptionsINS_6vectorIiNS_9allocatorIiEEE16__destroy_vectorEED1B8ue170006Ev, symObjAddr: 0xA554, symBinAddr: 0x100013FF0, symSize: 0x2C }
  - { offsetInCU: 0x50259, offset: 0x66F0F, size: 0x8, addend: 0x0, symName: __ZNSt3__128__exception_guard_exceptionsINS_6vectorIiNS_9allocatorIiEEE16__destroy_vectorEEC1B8ue170006ES5_, symObjAddr: 0xA580, symBinAddr: 0x10001401C, symSize: 0x34 }
  - { offsetInCU: 0x50291, offset: 0x66F47, size: 0x8, addend: 0x0, symName: __ZNSt3__128__exception_guard_exceptionsINS_6vectorIiNS_9allocatorIiEEE16__destroy_vectorEEC2B8ue170006ES5_, symObjAddr: 0xA5B4, symBinAddr: 0x100014050, symSize: 0x24 }
  - { offsetInCU: 0x502C9, offset: 0x66F7F, size: 0x8, addend: 0x0, symName: __ZNSt3__16vectorIiNS_9allocatorIiEEE16__destroy_vectorC2B8ue170006ERS3_, symObjAddr: 0xA5D8, symBinAddr: 0x100014074, symSize: 0x20 }
  - { offsetInCU: 0x50302, offset: 0x66FB8, size: 0x8, addend: 0x0, symName: __ZNKSt3__16vectorIiNS_9allocatorIiEEE8max_sizeEv, symObjAddr: 0xA5F8, symBinAddr: 0x100014094, symSize: 0x60 }
  - { offsetInCU: 0x5032A, offset: 0x66FE0, size: 0x8, addend: 0x0, symName: __ZNKSt3__16vectorIiNS_9allocatorIiEEE20__throw_length_errorB8ue170006Ev, symObjAddr: 0xA658, symBinAddr: 0x1000140F4, symSize: 0x1C }
  - { offsetInCU: 0x50350, offset: 0x67006, size: 0x8, addend: 0x0, symName: __ZNSt3__16vectorIiNS_9allocatorIiEEE7__allocB8ue170006Ev, symObjAddr: 0xA6B4, symBinAddr: 0x100014150, symSize: 0x28 }
  - { offsetInCU: 0x50376, offset: 0x6702C, size: 0x8, addend: 0x0, symName: __ZNSt3__16vectorIiNS_9allocatorIiEEE9__end_capB8ue170006Ev, symObjAddr: 0xA6DC, symBinAddr: 0x100014178, symSize: 0x28 }
  - { offsetInCU: 0x5039C, offset: 0x67052, size: 0x8, addend: 0x0, symName: __ZNKSt3__16vectorIiNS_9allocatorIiEEE14__annotate_newB8ue170006Em, symObjAddr: 0xA704, symBinAddr: 0x1000141A0, symSize: 0xAC }
  - { offsetInCU: 0x503D1, offset: 0x67087, size: 0x8, addend: 0x0, symName: __ZNSt3__116allocator_traitsINS_9allocatorIiEEE8max_sizeB8ue170006IS2_vvEEmRKS2_, symObjAddr: 0xA7B0, symBinAddr: 0x10001424C, symSize: 0x28 }
  - { offsetInCU: 0x503FD, offset: 0x670B3, size: 0x8, addend: 0x0, symName: __ZNSt3__19allocatorIiE8allocateB8ue170006Em, symObjAddr: 0xA7D8, symBinAddr: 0x100014274, symSize: 0x58 }
  - { offsetInCU: 0x50431, offset: 0x670E7, size: 0x8, addend: 0x0, symName: __ZNSt3__117__compressed_pairIPiNS_9allocatorIiEEE6secondB8ue170006Ev, symObjAddr: 0xA830, symBinAddr: 0x1000142CC, symSize: 0x24 }
  - { offsetInCU: 0x50457, offset: 0x6710D, size: 0x8, addend: 0x0, symName: __ZNSt3__122__compressed_pair_elemINS_9allocatorIiEELi1ELb1EE5__getB8ue170006Ev, symObjAddr: 0xA854, symBinAddr: 0x1000142F0, symSize: 0x14 }
  - { offsetInCU: 0x5047D, offset: 0x67133, size: 0x8, addend: 0x0, symName: __ZNSt3__117__compressed_pairIPiNS_9allocatorIiEEE5firstB8ue170006Ev, symObjAddr: 0xA868, symBinAddr: 0x100014304, symSize: 0x24 }
  - { offsetInCU: 0x504A3, offset: 0x67159, size: 0x8, addend: 0x0, symName: __ZNSt3__122__compressed_pair_elemIPiLi0ELb0EE5__getB8ue170006Ev, symObjAddr: 0xA88C, symBinAddr: 0x100014328, symSize: 0x14 }
  - { offsetInCU: 0x504C9, offset: 0x6717F, size: 0x8, addend: 0x0, symName: __ZNKSt3__16vectorIiNS_9allocatorIiEEE31__annotate_contiguous_containerB8ue170006EPKvS5_S5_S5_, symObjAddr: 0xA8A0, symBinAddr: 0x10001433C, symSize: 0x20 }
  - { offsetInCU: 0x5051F, offset: 0x671D5, size: 0x8, addend: 0x0, symName: __ZNKSt3__16vectorIiNS_9allocatorIiEEE4dataB8ue170006Ev, symObjAddr: 0xA8C0, symBinAddr: 0x10001435C, symSize: 0x28 }
  - { offsetInCU: 0x50545, offset: 0x671FB, size: 0x8, addend: 0x0, symName: __ZNKSt3__16vectorIiNS_9allocatorIiEEE8capacityB8ue170006Ev, symObjAddr: 0xA8E8, symBinAddr: 0x100014384, symSize: 0x40 }
  - { offsetInCU: 0x5056B, offset: 0x67221, size: 0x8, addend: 0x0, symName: __ZNKSt3__16vectorIiNS_9allocatorIiEEE9__end_capB8ue170006Ev, symObjAddr: 0xA93C, symBinAddr: 0x1000143D8, symSize: 0x28 }
  - { offsetInCU: 0x50591, offset: 0x67247, size: 0x8, addend: 0x0, symName: __ZNKSt3__117__compressed_pairIPiNS_9allocatorIiEEE5firstB8ue170006Ev, symObjAddr: 0xA964, symBinAddr: 0x100014400, symSize: 0x24 }
  - { offsetInCU: 0x505B7, offset: 0x6726D, size: 0x8, addend: 0x0, symName: __ZNKSt3__122__compressed_pair_elemIPiLi0ELb0EE5__getB8ue170006Ev, symObjAddr: 0xA988, symBinAddr: 0x100014424, symSize: 0x14 }
  - { offsetInCU: 0x505F6, offset: 0x672AC, size: 0x8, addend: 0x0, symName: __ZNSt3__16vectorIiNS_9allocatorIiEEE21_ConstructTransactionC1B8ue170006ERS3_m, symObjAddr: 0xA99C, symBinAddr: 0x100014438, symSize: 0x3C }
  - { offsetInCU: 0x5063E, offset: 0x672F4, size: 0x8, addend: 0x0, symName: __ZNSt3__16vectorIiNS_9allocatorIiEEE21_ConstructTransactionD1B8ue170006Ev, symObjAddr: 0xAA58, symBinAddr: 0x1000144F4, symSize: 0x2C }
  - { offsetInCU: 0x50668, offset: 0x6731E, size: 0x8, addend: 0x0, symName: __ZNSt3__16vectorIiNS_9allocatorIiEEE21_ConstructTransactionC2B8ue170006ERS3_m, symObjAddr: 0xAA84, symBinAddr: 0x100014520, symSize: 0x44 }
  - { offsetInCU: 0x506C9, offset: 0x6737F, size: 0x8, addend: 0x0, symName: __ZNSt3__119__unwrap_range_implIPiS1_E8__unwrapB8ue170006ES1_S1_, symObjAddr: 0xAB9C, symBinAddr: 0x100014638, symSize: 0x58 }
  - { offsetInCU: 0x506FF, offset: 0x673B5, size: 0x8, addend: 0x0, symName: __ZNSt3__14pairIPiS1_EC1B8ue170006IS1_S1_LPv0EEEOT_OT0_, symObjAddr: 0xABF4, symBinAddr: 0x100014690, symSize: 0x3C }
  - { offsetInCU: 0x5075D, offset: 0x67413, size: 0x8, addend: 0x0, symName: __ZNSt3__14pairIPiS1_EC2B8ue170006IS1_S1_LPv0EEEOT_OT0_, symObjAddr: 0xAC30, symBinAddr: 0x1000146CC, symSize: 0x34 }
  - { offsetInCU: 0x507C5, offset: 0x6747B, size: 0x8, addend: 0x0, symName: __ZNKSt3__114__copy_trivialclB8ue170006IiiLi0EEENS_4pairIPT_PT0_EES4_S4_S6_, symObjAddr: 0xADE0, symBinAddr: 0x10001487C, symSize: 0x48 }
  - { offsetInCU: 0x5082D, offset: 0x674E3, size: 0x8, addend: 0x0, symName: __ZNSt3__14pairIPiS1_EC1B8ue170006IRS1_S1_LPv0EEEOT_OT0_, symObjAddr: 0xAFA8, symBinAddr: 0x100014A44, symSize: 0x3C }
  - { offsetInCU: 0x5088B, offset: 0x67541, size: 0x8, addend: 0x0, symName: __ZNSt3__14pairIPiS1_EC2B8ue170006IRS1_S1_LPv0EEEOT_OT0_, symObjAddr: 0xAFE4, symBinAddr: 0x100014A80, symSize: 0x34 }
  - { offsetInCU: 0x508E9, offset: 0x6759F, size: 0x8, addend: 0x0, symName: __ZNSt3__119__unwrap_range_implIPiS1_E8__rewrapB8ue170006ES1_S1_, symObjAddr: 0xB018, symBinAddr: 0x100014AB4, symSize: 0x2C }
  - { offsetInCU: 0x5091A, offset: 0x675D0, size: 0x8, addend: 0x0, symName: __ZNSt3__118__unwrap_iter_implIPiLb1EE8__unwrapB8ue170006ES1_, symObjAddr: 0xB044, symBinAddr: 0x100014AE0, symSize: 0x24 }
  - { offsetInCU: 0x5093D, offset: 0x675F3, size: 0x8, addend: 0x0, symName: __ZNSt3__118__unwrap_iter_implIPiLb1EE8__rewrapB8ue170006ES1_S1_, symObjAddr: 0xB068, symBinAddr: 0x100014B04, symSize: 0x50 }
  - { offsetInCU: 0x5096E, offset: 0x67624, size: 0x8, addend: 0x0, symName: __ZNSt3__16vectorIiNS_9allocatorIiEEE21_ConstructTransactionD2B8ue170006Ev, symObjAddr: 0xB0B8, symBinAddr: 0x100014B54, symSize: 0x20 }
  - { offsetInCU: 0x50998, offset: 0x6764E, size: 0x8, addend: 0x0, symName: __ZNSt3__128__exception_guard_exceptionsINS_6vectorIiNS_9allocatorIiEEE16__destroy_vectorEED2B8ue170006Ev, symObjAddr: 0xB0D8, symBinAddr: 0x100014B74, symSize: 0x50 }
  - { offsetInCU: 0x509C2, offset: 0x67678, size: 0x8, addend: 0x0, symName: __ZNSt3__16vectorIiNS_9allocatorIiEEE16__destroy_vectorclB8ue170006Ev, symObjAddr: 0xB128, symBinAddr: 0x100014BC4, symSize: 0x90 }
  - { offsetInCU: 0x509E8, offset: 0x6769E, size: 0x8, addend: 0x0, symName: __ZNSt3__16vectorIiNS_9allocatorIiEEE7__clearB8ue170006Ev, symObjAddr: 0xB1B8, symBinAddr: 0x100014C54, symSize: 0x28 }
  - { offsetInCU: 0x50A0E, offset: 0x676C4, size: 0x8, addend: 0x0, symName: __ZNKSt3__16vectorIiNS_9allocatorIiEEE17__annotate_deleteB8ue170006Ev, symObjAddr: 0xB1E0, symBinAddr: 0x100014C7C, symSize: 0xB8 }
  - { offsetInCU: 0x50A34, offset: 0x676EA, size: 0x8, addend: 0x0, symName: __ZNSt3__116allocator_traitsINS_9allocatorIiEEE10deallocateB8ue170006ERS2_Pim, symObjAddr: 0xB298, symBinAddr: 0x100014D34, symSize: 0x34 }
  - { offsetInCU: 0x50A76, offset: 0x6772C, size: 0x8, addend: 0x0, symName: __ZNSt3__16vectorIiNS_9allocatorIiEEE22__base_destruct_at_endB8ue170006EPi, symObjAddr: 0xB2CC, symBinAddr: 0x100014D68, symSize: 0x8C }
  - { offsetInCU: 0x50ABA, offset: 0x67770, size: 0x8, addend: 0x0, symName: __ZNSt3__116allocator_traitsINS_9allocatorIiEEE7destroyB8ue170006IivvEEvRS2_PT_, symObjAddr: 0xB358, symBinAddr: 0x100014DF4, symSize: 0x28 }
  - { offsetInCU: 0x50AF5, offset: 0x677AB, size: 0x8, addend: 0x0, symName: __ZNSt3__19allocatorIiE10deallocateB8ue170006EPim, symObjAddr: 0xB3B4, symBinAddr: 0x100014E50, symSize: 0x40 }
  - { offsetInCU: 0x50B37, offset: 0x677ED, size: 0x8, addend: 0x0, symName: __ZNSt3__16vectorIiNS_9allocatorIiEEE11__make_iterB8ue170006EPi, symObjAddr: 0xB3F4, symBinAddr: 0x100014E90, symSize: 0x30 }
  - { offsetInCU: 0x50B6C, offset: 0x67822, size: 0x8, addend: 0x0, symName: __ZNSt3__111__wrap_iterIPiEC1B8ue170006ES1_, symObjAddr: 0xB424, symBinAddr: 0x100014EC0, symSize: 0x34 }
  - { offsetInCU: 0x50BA4, offset: 0x6785A, size: 0x8, addend: 0x0, symName: __ZNSt3__111__wrap_iterIPiEC2B8ue170006ES1_, symObjAddr: 0xB458, symBinAddr: 0x100014EF4, symSize: 0x20 }
  - { offsetInCU: 0x50BDC, offset: 0x67892, size: 0x8, addend: 0x0, symName: __ZNKSt3__111__wrap_iterIPiE4baseB8ue170006Ev, symObjAddr: 0xB4C0, symBinAddr: 0x100014F5C, symSize: 0x18 }
  - { offsetInCU: 0x50C02, offset: 0x678B8, size: 0x8, addend: 0x0, symName: __ZNSt3__16vectorIiNS_9allocatorIiEEED2B8ue170006Ev, symObjAddr: 0xB4D8, symBinAddr: 0x100014F74, symSize: 0x40 }
  - { offsetInCU: 0x50C2C, offset: 0x678E2, size: 0x8, addend: 0x0, symName: __ZNSt3__16vectorIbNS_9allocatorIbEEEC1ERKS3_, symObjAddr: 0xB5C0, symBinAddr: 0x10001505C, symSize: 0x34 }
  - { offsetInCU: 0x50C67, offset: 0x6791D, size: 0x8, addend: 0x0, symName: __ZNSt3__16vectorIbNS_9allocatorIbEEEC2ERKS3_, symObjAddr: 0xB614, symBinAddr: 0x1000150B0, symSize: 0xDC }
  - { offsetInCU: 0x50CAC, offset: 0x67962, size: 0x8, addend: 0x0, symName: __ZNSt3__116allocator_traitsINS_9allocatorImEEE37select_on_container_copy_constructionB8ue170006IS2_vvEES2_RKS2_, symObjAddr: 0xB6F0, symBinAddr: 0x10001518C, symSize: 0x10 }
  - { offsetInCU: 0x50CDB, offset: 0x67991, size: 0x8, addend: 0x0, symName: __ZNKSt3__16vectorIbNS_9allocatorIbEEE7__allocB8ue170006Ev, symObjAddr: 0xB700, symBinAddr: 0x10001519C, symSize: 0x28 }
  - { offsetInCU: 0x50D0B, offset: 0x679C1, size: 0x8, addend: 0x0, symName: __ZNSt3__117__compressed_pairImNS_9allocatorImEEEC1B8ue170006IiS2_EEOT_OT0_, symObjAddr: 0xB728, symBinAddr: 0x1000151C4, symSize: 0x3C }
  - { offsetInCU: 0x50D63, offset: 0x67A19, size: 0x8, addend: 0x0, symName: __ZNKSt3__16vectorIbNS_9allocatorIbEEE4sizeB8ue170006Ev, symObjAddr: 0xB764, symBinAddr: 0x100015200, symSize: 0x18 }
  - { offsetInCU: 0x50D89, offset: 0x67A3F, size: 0x8, addend: 0x0, symName: __ZNSt3__16vectorIbNS_9allocatorIbEEE11__vallocateB8ue170006Em, symObjAddr: 0xB77C, symBinAddr: 0x100015218, symSize: 0xA0 }
  - { offsetInCU: 0x50DCD, offset: 0x67A83, size: 0x8, addend: 0x0, symName: __ZNSt3__16vectorIbNS_9allocatorIbEEE18__construct_at_endINS_14__bit_iteratorIS3_Lb1ELm0EEES6_EEvT_T0_m, symObjAddr: 0xB81C, symBinAddr: 0x1000152B8, symSize: 0x124 }
  - { offsetInCU: 0x50E43, offset: 0x67AF9, size: 0x8, addend: 0x0, symName: __ZNKSt3__16vectorIbNS_9allocatorIbEEE5beginB8ue170006Ev, symObjAddr: 0xB940, symBinAddr: 0x1000153DC, symSize: 0x38 }
  - { offsetInCU: 0x50E69, offset: 0x67B1F, size: 0x8, addend: 0x0, symName: __ZNKSt3__16vectorIbNS_9allocatorIbEEE3endB8ue170006Ev, symObjAddr: 0xB978, symBinAddr: 0x100015414, symSize: 0x38 }
  - { offsetInCU: 0x50E8F, offset: 0x67B45, size: 0x8, addend: 0x0, symName: __ZNKSt3__117__compressed_pairImNS_9allocatorImEEE6secondB8ue170006Ev, symObjAddr: 0xB9B0, symBinAddr: 0x10001544C, symSize: 0x24 }
  - { offsetInCU: 0x50EB5, offset: 0x67B6B, size: 0x8, addend: 0x0, symName: __ZNKSt3__122__compressed_pair_elemINS_9allocatorImEELi1ELb1EE5__getB8ue170006Ev, symObjAddr: 0xB9D4, symBinAddr: 0x100015470, symSize: 0x14 }
  - { offsetInCU: 0x50EDB, offset: 0x67B91, size: 0x8, addend: 0x0, symName: __ZNSt3__117__compressed_pairImNS_9allocatorImEEEC2B8ue170006IiS2_EEOT_OT0_, symObjAddr: 0xB9E8, symBinAddr: 0x100015484, symSize: 0x44 }
  - { offsetInCU: 0x50F33, offset: 0x67BE9, size: 0x8, addend: 0x0, symName: __ZNSt3__122__compressed_pair_elemImLi0ELb0EEC2B8ue170006IivEEOT_, symObjAddr: 0xBA2C, symBinAddr: 0x1000154C8, symSize: 0x24 }
  - { offsetInCU: 0x50F75, offset: 0x67C2B, size: 0x8, addend: 0x0, symName: __ZNSt3__122__compressed_pair_elemINS_9allocatorImEELi1ELb1EEC2B8ue170006IS2_vEEOT_, symObjAddr: 0xBA50, symBinAddr: 0x1000154EC, symSize: 0x18 }
  - { offsetInCU: 0x50FB7, offset: 0x67C6D, size: 0x8, addend: 0x0, symName: __ZNKSt3__16vectorIbNS_9allocatorIbEEE8max_sizeEv, symObjAddr: 0xBA68, symBinAddr: 0x100015504, symSize: 0x7C }
  - { offsetInCU: 0x50FFD, offset: 0x67CB3, size: 0x8, addend: 0x0, symName: __ZNKSt3__16vectorIbNS_9allocatorIbEEE20__throw_length_errorB8ue170006Ev, symObjAddr: 0xBAE4, symBinAddr: 0x100015580, symSize: 0x1C }
  - { offsetInCU: 0x51023, offset: 0x67CD9, size: 0x8, addend: 0x0, symName: __ZNSt3__16vectorIbNS_9allocatorIbEEE7__allocB8ue170006Ev, symObjAddr: 0xBB40, symBinAddr: 0x1000155DC, symSize: 0x28 }
  - { offsetInCU: 0x51049, offset: 0x67CFF, size: 0x8, addend: 0x0, symName: __ZNSt3__16vectorIbNS_9allocatorIbEEE26__external_cap_to_internalB8ue170006Em, symObjAddr: 0xBB68, symBinAddr: 0x100015604, symSize: 0x24 }
  - { offsetInCU: 0x5106D, offset: 0x67D23, size: 0x8, addend: 0x0, symName: __ZNSt3__16vectorIbNS_9allocatorIbEEE5__capB8ue170006Ev, symObjAddr: 0xBB8C, symBinAddr: 0x100015628, symSize: 0x28 }
  - { offsetInCU: 0x51093, offset: 0x67D49, size: 0x8, addend: 0x0, symName: __ZNSt3__116allocator_traitsINS_9allocatorImEEE8max_sizeB8ue170006IS2_vvEEmRKS2_, symObjAddr: 0xBBB4, symBinAddr: 0x100015650, symSize: 0x28 }
  - { offsetInCU: 0x510BF, offset: 0x67D75, size: 0x8, addend: 0x0, symName: __ZNSt3__16vectorIbNS_9allocatorIbEEE26__internal_cap_to_externalB8ue170006Em, symObjAddr: 0xBBDC, symBinAddr: 0x100015678, symSize: 0x18 }
  - { offsetInCU: 0x510E3, offset: 0x67D99, size: 0x8, addend: 0x0, symName: __ZNSt3__19allocatorImE8allocateB8ue170006Em, symObjAddr: 0xBBF4, symBinAddr: 0x100015690, symSize: 0x58 }
  - { offsetInCU: 0x51117, offset: 0x67DCD, size: 0x8, addend: 0x0, symName: __ZNSt3__117__compressed_pairImNS_9allocatorImEEE6secondB8ue170006Ev, symObjAddr: 0xBC4C, symBinAddr: 0x1000156E8, symSize: 0x24 }
  - { offsetInCU: 0x5113D, offset: 0x67DF3, size: 0x8, addend: 0x0, symName: __ZNSt3__122__compressed_pair_elemINS_9allocatorImEELi1ELb1EE5__getB8ue170006Ev, symObjAddr: 0xBC70, symBinAddr: 0x10001570C, symSize: 0x14 }
  - { offsetInCU: 0x51163, offset: 0x67E19, size: 0x8, addend: 0x0, symName: __ZNSt3__117__compressed_pairImNS_9allocatorImEEE5firstB8ue170006Ev, symObjAddr: 0xBC84, symBinAddr: 0x100015720, symSize: 0x24 }
  - { offsetInCU: 0x51189, offset: 0x67E3F, size: 0x8, addend: 0x0, symName: __ZNSt3__122__compressed_pair_elemImLi0ELb0EE5__getB8ue170006Ev, symObjAddr: 0xBCA8, symBinAddr: 0x100015744, symSize: 0x14 }
  - { offsetInCU: 0x511AF, offset: 0x67E65, size: 0x8, addend: 0x0, symName: __ZNSt3__16vectorIbNS_9allocatorIbEEE11__make_iterB8ue170006Em, symObjAddr: 0xBD38, symBinAddr: 0x1000157D4, symSize: 0x64 }
  - { offsetInCU: 0x511E4, offset: 0x67E9A, size: 0x8, addend: 0x0, symName: __ZNSt3__114__bit_iteratorINS_6vectorIbNS_9allocatorIbEEEELb0ELm0EEC1B8ue170006ERKS5_, symObjAddr: 0xBE18, symBinAddr: 0x1000158B4, symSize: 0x34 }
  - { offsetInCU: 0x51240, offset: 0x67EF6, size: 0x8, addend: 0x0, symName: __ZNKSt3__111__copy_loopINS_17_ClassicAlgPolicyEEclB8ue170006INS_14__bit_iteratorINS_6vectorIbNS_9allocatorIbEEEELb1ELm0EEES9_NS4_IS8_Lb0ELm0EEEEENS_4pairIT_T1_EESC_T0_SD_, symObjAddr: 0xBFE8, symBinAddr: 0x100015A84, symSize: 0xC4 }
  - { offsetInCU: 0x512C5, offset: 0x67F7B, size: 0x8, addend: 0x0, symName: __ZNSt3__119__unwrap_range_implINS_14__bit_iteratorINS_6vectorIbNS_9allocatorIbEEEELb1ELm0EEES6_E8__unwrapB8ue170006ES6_S6_, symObjAddr: 0xC200, symBinAddr: 0x100015C9C, symSize: 0x84 }
  - { offsetInCU: 0x512FB, offset: 0x67FB1, size: 0x8, addend: 0x0, symName: __ZNSt3__14pairINS_14__bit_iteratorINS_6vectorIbNS_9allocatorIbEEEELb1ELm0EEES6_EC1B8ue170006IS6_S6_LPv0EEEOT_OT0_, symObjAddr: 0xC2C8, symBinAddr: 0x100015D64, symSize: 0x3C }
  - { offsetInCU: 0x51359, offset: 0x6800F, size: 0x8, addend: 0x0, symName: __ZNSt3__118__unwrap_iter_implINS_14__bit_iteratorINS_6vectorIbNS_9allocatorIbEEEELb1ELm0EEELb0EE8__unwrapB8ue170006ES6_, symObjAddr: 0xC304, symBinAddr: 0x100015DA0, symSize: 0x24 }
  - { offsetInCU: 0x5137C, offset: 0x68032, size: 0x8, addend: 0x0, symName: __ZNSt3__14pairINS_14__bit_iteratorINS_6vectorIbNS_9allocatorIbEEEELb1ELm0EEES6_EC2B8ue170006IS6_S6_LPv0EEEOT_OT0_, symObjAddr: 0xC328, symBinAddr: 0x100015DC4, symSize: 0x34 }
  - { offsetInCU: 0x513DA, offset: 0x68090, size: 0x8, addend: 0x0, symName: __ZNKSt3__114__bit_iteratorINS_6vectorIbNS_9allocatorIbEEEELb1ELm0EEdeB8ue170006Ev, symObjAddr: 0xC390, symBinAddr: 0x100015E2C, symSize: 0x44 }
  - { offsetInCU: 0x51400, offset: 0x680B6, size: 0x8, addend: 0x0, symName: __ZNKSt3__121__bit_const_referenceINS_6vectorIbNS_9allocatorIbEEEEEcvbB8ue170006Ev, symObjAddr: 0xC3D4, symBinAddr: 0x100015E70, symSize: 0x2C }
  - { offsetInCU: 0x51426, offset: 0x680DC, size: 0x8, addend: 0x0, symName: __ZNSt3__115__bit_referenceINS_6vectorIbNS_9allocatorIbEEEELb1EEaSB8ue170006Eb, symObjAddr: 0xC400, symBinAddr: 0x100015E9C, symSize: 0x6C }
  - { offsetInCU: 0x5145A, offset: 0x68110, size: 0x8, addend: 0x0, symName: __ZNSt3__114__bit_iteratorINS_6vectorIbNS_9allocatorIbEEEELb1ELm0EEppB8ue170006Ev, symObjAddr: 0xC46C, symBinAddr: 0x100015F08, symSize: 0x5C }
  - { offsetInCU: 0x51480, offset: 0x68136, size: 0x8, addend: 0x0, symName: __ZNSt3__121__bit_const_referenceINS_6vectorIbNS_9allocatorIbEEEEEC1B8ue170006EPKmm, symObjAddr: 0xC52C, symBinAddr: 0x100015FC8, symSize: 0x3C }
  - { offsetInCU: 0x514C6, offset: 0x6817C, size: 0x8, addend: 0x0, symName: __ZNSt3__121__bit_const_referenceINS_6vectorIbNS_9allocatorIbEEEEEC2B8ue170006EPKmm, symObjAddr: 0xC568, symBinAddr: 0x100016004, symSize: 0x2C }
  - { offsetInCU: 0x5150C, offset: 0x681C2, size: 0x8, addend: 0x0, symName: __ZNSt3__118__unwrap_iter_implINS_14__bit_iteratorINS_6vectorIbNS_9allocatorIbEEEELb0ELm0EEELb0EE8__unwrapB8ue170006ES6_, symObjAddr: 0xC594, symBinAddr: 0x100016030, symSize: 0x38 }
  - { offsetInCU: 0x51535, offset: 0x681EB, size: 0x8, addend: 0x0, symName: __ZNSt3__14pairINS_14__bit_iteratorINS_6vectorIbNS_9allocatorIbEEEELb1ELm0EEENS1_IS5_Lb0ELm0EEEEC1B8ue170006IS6_S7_LPv0EEEOT_OT0_, symObjAddr: 0xC5CC, symBinAddr: 0x100016068, symSize: 0x3C }
  - { offsetInCU: 0x51593, offset: 0x68249, size: 0x8, addend: 0x0, symName: __ZNSt3__14pairINS_14__bit_iteratorINS_6vectorIbNS_9allocatorIbEEEELb1ELm0EEENS1_IS5_Lb0ELm0EEEEC2B8ue170006IS6_S7_LPv0EEEOT_OT0_, symObjAddr: 0xC608, symBinAddr: 0x1000160A4, symSize: 0x48 }
  - { offsetInCU: 0x515F1, offset: 0x682A7, size: 0x8, addend: 0x0, symName: __ZNSt3__119__unwrap_range_implINS_14__bit_iteratorINS_6vectorIbNS_9allocatorIbEEEELb1ELm0EEES6_E8__rewrapB8ue170006ES6_S6_, symObjAddr: 0xC650, symBinAddr: 0x1000160EC, symSize: 0x5C }
  - { offsetInCU: 0x51622, offset: 0x682D8, size: 0x8, addend: 0x0, symName: __ZNSt3__118__unwrap_iter_implINS_14__bit_iteratorINS_6vectorIbNS_9allocatorIbEEEELb1ELm0EEELb0EE8__rewrapB8ue170006ES6_S6_, symObjAddr: 0xC720, symBinAddr: 0x1000161BC, symSize: 0x2C }
  - { offsetInCU: 0x5164F, offset: 0x68305, size: 0x8, addend: 0x0, symName: __ZNSt3__118__unwrap_iter_implINS_14__bit_iteratorINS_6vectorIbNS_9allocatorIbEEEELb0ELm0EEELb0EE8__rewrapB8ue170006ES6_S6_, symObjAddr: 0xC74C, symBinAddr: 0x1000161E8, symSize: 0x3C }
  - { offsetInCU: 0x5167E, offset: 0x68334, size: 0x8, addend: 0x0, symName: __ZNSt3__114__bit_iteratorINS_6vectorIbNS_9allocatorIbEEEELb0ELm0EEC2B8ue170006ERKS5_, symObjAddr: 0xC788, symBinAddr: 0x100016224, symSize: 0x30 }
  - { offsetInCU: 0x516B7, offset: 0x6836D, size: 0x8, addend: 0x0, symName: __ZNSt3__114__bit_iteratorINS_6vectorIbNS_9allocatorIbEEEELb0ELm0EEC1B8ue170006EPmj, symObjAddr: 0xC7B8, symBinAddr: 0x100016254, symSize: 0x3C }
  - { offsetInCU: 0x516FF, offset: 0x683B5, size: 0x8, addend: 0x0, symName: __ZNSt3__114__bit_iteratorINS_6vectorIbNS_9allocatorIbEEEELb0ELm0EEC2B8ue170006EPmj, symObjAddr: 0xC7F4, symBinAddr: 0x100016290, symSize: 0x2C }
  - { offsetInCU: 0x51747, offset: 0x683FD, size: 0x8, addend: 0x0, symName: __ZNKSt3__16vectorIbNS_9allocatorIbEEE11__make_iterB8ue170006Em, symObjAddr: 0xC820, symBinAddr: 0x1000162BC, symSize: 0x5C }
  - { offsetInCU: 0x5177C, offset: 0x68432, size: 0x8, addend: 0x0, symName: __ZNSt3__114__bit_iteratorINS_6vectorIbNS_9allocatorIbEEEELb1ELm0EEC1B8ue170006EPKmj, symObjAddr: 0xC87C, symBinAddr: 0x100016318, symSize: 0x3C }
  - { offsetInCU: 0x517C4, offset: 0x6847A, size: 0x8, addend: 0x0, symName: __ZNSt3__114__bit_iteratorINS_6vectorIbNS_9allocatorIbEEEELb1ELm0EEC2B8ue170006EPKmj, symObjAddr: 0xC8B8, symBinAddr: 0x100016354, symSize: 0x2C }
  - { offsetInCU: 0x5180C, offset: 0x684C2, size: 0x8, addend: 0x0, symName: __ZNSt3__115__bit_referenceINS_6vectorIbNS_9allocatorIbEEEELb1EEC1B8ue170006EPmm, symObjAddr: 0xC948, symBinAddr: 0x1000163E4, symSize: 0x3C }
  - { offsetInCU: 0x51852, offset: 0x68508, size: 0x8, addend: 0x0, symName: __ZNSt3__115__bit_referenceINS_6vectorIbNS_9allocatorIbEEEELb1EEC2B8ue170006EPmm, symObjAddr: 0xC984, symBinAddr: 0x100016420, symSize: 0x2C }
  - { offsetInCU: 0x51898, offset: 0x6854E, size: 0x8, addend: 0x0, symName: __ZNSt3__16vectorIbNS_9allocatorIbEEED2B8ue170006Ev, symObjAddr: 0xC9B0, symBinAddr: 0x10001644C, symSize: 0x44 }
  - { offsetInCU: 0x518C2, offset: 0x68578, size: 0x8, addend: 0x0, symName: __ZNSt3__16vectorIbNS_9allocatorIbEEE16__destroy_vectorC1B8ue170006ERS3_, symObjAddr: 0xC9F4, symBinAddr: 0x100016490, symSize: 0x34 }
  - { offsetInCU: 0x518FB, offset: 0x685B1, size: 0x8, addend: 0x0, symName: __ZNSt3__16vectorIbNS_9allocatorIbEEE16__destroy_vectorclB8ue170006Ev, symObjAddr: 0xCA28, symBinAddr: 0x1000164C4, symSize: 0x7C }
  - { offsetInCU: 0x51921, offset: 0x685D7, size: 0x8, addend: 0x0, symName: __ZNSt3__16vectorIbNS_9allocatorIbEEE16__destroy_vectorC2B8ue170006ERS3_, symObjAddr: 0xCAA4, symBinAddr: 0x100016540, symSize: 0x20 }
  - { offsetInCU: 0x5195A, offset: 0x68610, size: 0x8, addend: 0x0, symName: __ZNSt3__116allocator_traitsINS_9allocatorImEEE10deallocateB8ue170006ERS2_Pmm, symObjAddr: 0xCAC4, symBinAddr: 0x100016560, symSize: 0x34 }
  - { offsetInCU: 0x5199C, offset: 0x68652, size: 0x8, addend: 0x0, symName: __ZNSt3__19allocatorImE10deallocateB8ue170006EPmm, symObjAddr: 0xCAF8, symBinAddr: 0x100016594, symSize: 0x40 }
  - { offsetInCU: 0x519DE, offset: 0x68694, size: 0x8, addend: 0x0, symName: __ZNSt3__16vectorINS_12basic_stringIcNS_11char_traitsIcEENS_9allocatorIcEEEENS4_IS6_EEEC1ERKS8_, symObjAddr: 0xCBE0, symBinAddr: 0x10001667C, symSize: 0x34 }
  - { offsetInCU: 0x51A19, offset: 0x686CF, size: 0x8, addend: 0x0, symName: __ZNSt3__16vectorINS_12basic_stringIcNS_11char_traitsIcEENS_9allocatorIcEEEENS4_IS6_EEEC2ERKS8_, symObjAddr: 0xCC34, symBinAddr: 0x1000166D0, symSize: 0x94 }
  - { offsetInCU: 0x51A5E, offset: 0x68714, size: 0x8, addend: 0x0, symName: __ZNSt3__116allocator_traitsINS_9allocatorINS_12basic_stringIcNS_11char_traitsIcEENS1_IcEEEEEEE37select_on_container_copy_constructionB8ue170006IS7_vvEES7_RKS7_, symObjAddr: 0xCCC8, symBinAddr: 0x100016764, symSize: 0x10 }
  - { offsetInCU: 0x51A8D, offset: 0x68743, size: 0x8, addend: 0x0, symName: __ZNKSt3__16vectorINS_12basic_stringIcNS_11char_traitsIcEENS_9allocatorIcEEEENS4_IS6_EEE7__allocB8ue170006Ev, symObjAddr: 0xCCD8, symBinAddr: 0x100016774, symSize: 0x28 }
  - { offsetInCU: 0x51AB8, offset: 0x6876E, size: 0x8, addend: 0x0, symName: __ZNSt3__117__compressed_pairIPNS_12basic_stringIcNS_11char_traitsIcEENS_9allocatorIcEEEENS4_IS6_EEEC1B8ue170006IDnS8_EEOT_OT0_, symObjAddr: 0xCD00, symBinAddr: 0x10001679C, symSize: 0x3C }
  - { offsetInCU: 0x51B10, offset: 0x687C6, size: 0x8, addend: 0x0, symName: __ZNSt3__16vectorINS_12basic_stringIcNS_11char_traitsIcEENS_9allocatorIcEEEENS4_IS6_EEE16__init_with_sizeB8ue170006IPS6_SA_EEvT_T0_m, symObjAddr: 0xCD3C, symBinAddr: 0x1000167D8, symSize: 0xB8 }
  - { offsetInCU: 0x51B84, offset: 0x6883A, size: 0x8, addend: 0x0, symName: __ZNKSt3__16vectorINS_12basic_stringIcNS_11char_traitsIcEENS_9allocatorIcEEEENS4_IS6_EEE4sizeB8ue170006Ev, symObjAddr: 0xCDF4, symBinAddr: 0x100016890, symSize: 0x28 }
  - { offsetInCU: 0x51BAA, offset: 0x68860, size: 0x8, addend: 0x0, symName: __ZNKSt3__117__compressed_pairIPNS_12basic_stringIcNS_11char_traitsIcEENS_9allocatorIcEEEENS4_IS6_EEE6secondB8ue170006Ev, symObjAddr: 0xCE1C, symBinAddr: 0x1000168B8, symSize: 0x24 }
  - { offsetInCU: 0x51BD0, offset: 0x68886, size: 0x8, addend: 0x0, symName: __ZNKSt3__122__compressed_pair_elemINS_9allocatorINS_12basic_stringIcNS_11char_traitsIcEENS1_IcEEEEEELi1ELb1EE5__getB8ue170006Ev, symObjAddr: 0xCE40, symBinAddr: 0x1000168DC, symSize: 0x14 }
  - { offsetInCU: 0x51BF6, offset: 0x688AC, size: 0x8, addend: 0x0, symName: __ZNSt3__117__compressed_pairIPNS_12basic_stringIcNS_11char_traitsIcEENS_9allocatorIcEEEENS4_IS6_EEEC2B8ue170006IDnS8_EEOT_OT0_, symObjAddr: 0xCE54, symBinAddr: 0x1000168F0, symSize: 0x44 }
  - { offsetInCU: 0x51C4E, offset: 0x68904, size: 0x8, addend: 0x0, symName: __ZNSt3__122__compressed_pair_elemIPNS_12basic_stringIcNS_11char_traitsIcEENS_9allocatorIcEEEELi0ELb0EEC2B8ue170006IDnvEEOT_, symObjAddr: 0xCE98, symBinAddr: 0x100016934, symSize: 0x1C }
  - { offsetInCU: 0x51C90, offset: 0x68946, size: 0x8, addend: 0x0, symName: __ZNSt3__122__compressed_pair_elemINS_9allocatorINS_12basic_stringIcNS_11char_traitsIcEENS1_IcEEEEEELi1ELb1EEC2B8ue170006IS7_vEEOT_, symObjAddr: 0xCEB4, symBinAddr: 0x100016950, symSize: 0x18 }
  - { offsetInCU: 0x51CD2, offset: 0x68988, size: 0x8, addend: 0x0, symName: __ZNSt3__16vectorINS_12basic_stringIcNS_11char_traitsIcEENS_9allocatorIcEEEENS4_IS6_EEE16__destroy_vectorC1B8ue170006ERS8_, symObjAddr: 0xCF0C, symBinAddr: 0x1000169A8, symSize: 0x34 }
  - { offsetInCU: 0x51D0B, offset: 0x689C1, size: 0x8, addend: 0x0, symName: __ZNSt3__16vectorINS_12basic_stringIcNS_11char_traitsIcEENS_9allocatorIcEEEENS4_IS6_EEE11__vallocateB8ue170006Em, symObjAddr: 0xCF40, symBinAddr: 0x1000169DC, symSize: 0xB4 }
  - { offsetInCU: 0x51D4F, offset: 0x68A05, size: 0x8, addend: 0x0, symName: __ZNSt3__16vectorINS_12basic_stringIcNS_11char_traitsIcEENS_9allocatorIcEEEENS4_IS6_EEE18__construct_at_endIPS6_SA_EEvT_T0_m, symObjAddr: 0xCFF4, symBinAddr: 0x100016A90, symSize: 0x8C }
  - { offsetInCU: 0x51DC5, offset: 0x68A7B, size: 0x8, addend: 0x0, symName: __ZNSt3__128__exception_guard_exceptionsINS_6vectorINS_12basic_stringIcNS_11char_traitsIcEENS_9allocatorIcEEEENS5_IS7_EEE16__destroy_vectorEE10__completeB8ue170006Ev, symObjAddr: 0xD080, symBinAddr: 0x100016B1C, symSize: 0x1C }
  - { offsetInCU: 0x51DEB, offset: 0x68AA1, size: 0x8, addend: 0x0, symName: __ZNSt3__128__exception_guard_exceptionsINS_6vectorINS_12basic_stringIcNS_11char_traitsIcEENS_9allocatorIcEEEENS5_IS7_EEE16__destroy_vectorEED1B8ue170006Ev, symObjAddr: 0xD09C, symBinAddr: 0x100016B38, symSize: 0x2C }
  - { offsetInCU: 0x51E15, offset: 0x68ACB, size: 0x8, addend: 0x0, symName: __ZNSt3__128__exception_guard_exceptionsINS_6vectorINS_12basic_stringIcNS_11char_traitsIcEENS_9allocatorIcEEEENS5_IS7_EEE16__destroy_vectorEEC1B8ue170006ESA_, symObjAddr: 0xD0C8, symBinAddr: 0x100016B64, symSize: 0x34 }
  - { offsetInCU: 0x51E4D, offset: 0x68B03, size: 0x8, addend: 0x0, symName: __ZNSt3__128__exception_guard_exceptionsINS_6vectorINS_12basic_stringIcNS_11char_traitsIcEENS_9allocatorIcEEEENS5_IS7_EEE16__destroy_vectorEEC2B8ue170006ESA_, symObjAddr: 0xD0FC, symBinAddr: 0x100016B98, symSize: 0x24 }
  - { offsetInCU: 0x51E85, offset: 0x68B3B, size: 0x8, addend: 0x0, symName: __ZNSt3__16vectorINS_12basic_stringIcNS_11char_traitsIcEENS_9allocatorIcEEEENS4_IS6_EEE16__destroy_vectorC2B8ue170006ERS8_, symObjAddr: 0xD120, symBinAddr: 0x100016BBC, symSize: 0x20 }
  - { offsetInCU: 0x51EBE, offset: 0x68B74, size: 0x8, addend: 0x0, symName: __ZNKSt3__16vectorINS_12basic_stringIcNS_11char_traitsIcEENS_9allocatorIcEEEENS4_IS6_EEE8max_sizeEv, symObjAddr: 0xD140, symBinAddr: 0x100016BDC, symSize: 0x60 }
  - { offsetInCU: 0x51EE6, offset: 0x68B9C, size: 0x8, addend: 0x0, symName: __ZNKSt3__16vectorINS_12basic_stringIcNS_11char_traitsIcEENS_9allocatorIcEEEENS4_IS6_EEE20__throw_length_errorB8ue170006Ev, symObjAddr: 0xD1A0, symBinAddr: 0x100016C3C, symSize: 0x1C }
  - { offsetInCU: 0x51F0C, offset: 0x68BC2, size: 0x8, addend: 0x0, symName: __ZNSt3__16vectorINS_12basic_stringIcNS_11char_traitsIcEENS_9allocatorIcEEEENS4_IS6_EEE7__allocB8ue170006Ev, symObjAddr: 0xD1FC, symBinAddr: 0x100016C98, symSize: 0x28 }
  - { offsetInCU: 0x51F32, offset: 0x68BE8, size: 0x8, addend: 0x0, symName: __ZNSt3__16vectorINS_12basic_stringIcNS_11char_traitsIcEENS_9allocatorIcEEEENS4_IS6_EEE9__end_capB8ue170006Ev, symObjAddr: 0xD224, symBinAddr: 0x100016CC0, symSize: 0x28 }
  - { offsetInCU: 0x51F58, offset: 0x68C0E, size: 0x8, addend: 0x0, symName: __ZNKSt3__16vectorINS_12basic_stringIcNS_11char_traitsIcEENS_9allocatorIcEEEENS4_IS6_EEE14__annotate_newB8ue170006Em, symObjAddr: 0xD24C, symBinAddr: 0x100016CE8, symSize: 0xC8 }
  - { offsetInCU: 0x51F8D, offset: 0x68C43, size: 0x8, addend: 0x0, symName: __ZNSt3__116allocator_traitsINS_9allocatorINS_12basic_stringIcNS_11char_traitsIcEENS1_IcEEEEEEE8max_sizeB8ue170006IS7_vvEEmRKS7_, symObjAddr: 0xD314, symBinAddr: 0x100016DB0, symSize: 0x28 }
  - { offsetInCU: 0x51FB9, offset: 0x68C6F, size: 0x8, addend: 0x0, symName: __ZNSt3__19allocatorINS_12basic_stringIcNS_11char_traitsIcEENS0_IcEEEEE8allocateB8ue170006Em, symObjAddr: 0xD33C, symBinAddr: 0x100016DD8, symSize: 0x5C }
  - { offsetInCU: 0x51FED, offset: 0x68CA3, size: 0x8, addend: 0x0, symName: __ZNSt3__117__compressed_pairIPNS_12basic_stringIcNS_11char_traitsIcEENS_9allocatorIcEEEENS4_IS6_EEE6secondB8ue170006Ev, symObjAddr: 0xD398, symBinAddr: 0x100016E34, symSize: 0x24 }
  - { offsetInCU: 0x52013, offset: 0x68CC9, size: 0x8, addend: 0x0, symName: __ZNSt3__122__compressed_pair_elemINS_9allocatorINS_12basic_stringIcNS_11char_traitsIcEENS1_IcEEEEEELi1ELb1EE5__getB8ue170006Ev, symObjAddr: 0xD3BC, symBinAddr: 0x100016E58, symSize: 0x14 }
  - { offsetInCU: 0x52039, offset: 0x68CEF, size: 0x8, addend: 0x0, symName: __ZNSt3__117__compressed_pairIPNS_12basic_stringIcNS_11char_traitsIcEENS_9allocatorIcEEEENS4_IS6_EEE5firstB8ue170006Ev, symObjAddr: 0xD3D0, symBinAddr: 0x100016E6C, symSize: 0x24 }
  - { offsetInCU: 0x5205F, offset: 0x68D15, size: 0x8, addend: 0x0, symName: __ZNSt3__122__compressed_pair_elemIPNS_12basic_stringIcNS_11char_traitsIcEENS_9allocatorIcEEEELi0ELb0EE5__getB8ue170006Ev, symObjAddr: 0xD3F4, symBinAddr: 0x100016E90, symSize: 0x14 }
  - { offsetInCU: 0x52085, offset: 0x68D3B, size: 0x8, addend: 0x0, symName: __ZNKSt3__16vectorINS_12basic_stringIcNS_11char_traitsIcEENS_9allocatorIcEEEENS4_IS6_EEE31__annotate_contiguous_containerB8ue170006EPKvSA_SA_SA_, symObjAddr: 0xD408, symBinAddr: 0x100016EA4, symSize: 0x20 }
  - { offsetInCU: 0x520DB, offset: 0x68D91, size: 0x8, addend: 0x0, symName: __ZNKSt3__16vectorINS_12basic_stringIcNS_11char_traitsIcEENS_9allocatorIcEEEENS4_IS6_EEE4dataB8ue170006Ev, symObjAddr: 0xD428, symBinAddr: 0x100016EC4, symSize: 0x28 }
  - { offsetInCU: 0x52101, offset: 0x68DB7, size: 0x8, addend: 0x0, symName: __ZNKSt3__16vectorINS_12basic_stringIcNS_11char_traitsIcEENS_9allocatorIcEEEENS4_IS6_EEE8capacityB8ue170006Ev, symObjAddr: 0xD450, symBinAddr: 0x100016EEC, symSize: 0x40 }
  - { offsetInCU: 0x52127, offset: 0x68DDD, size: 0x8, addend: 0x0, symName: __ZNKSt3__16vectorINS_12basic_stringIcNS_11char_traitsIcEENS_9allocatorIcEEEENS4_IS6_EEE9__end_capB8ue170006Ev, symObjAddr: 0xD4A4, symBinAddr: 0x100016F40, symSize: 0x28 }
  - { offsetInCU: 0x5214D, offset: 0x68E03, size: 0x8, addend: 0x0, symName: __ZNKSt3__117__compressed_pairIPNS_12basic_stringIcNS_11char_traitsIcEENS_9allocatorIcEEEENS4_IS6_EEE5firstB8ue170006Ev, symObjAddr: 0xD4CC, symBinAddr: 0x100016F68, symSize: 0x24 }
  - { offsetInCU: 0x52173, offset: 0x68E29, size: 0x8, addend: 0x0, symName: __ZNKSt3__122__compressed_pair_elemIPNS_12basic_stringIcNS_11char_traitsIcEENS_9allocatorIcEEEELi0ELb0EE5__getB8ue170006Ev, symObjAddr: 0xD4F0, symBinAddr: 0x100016F8C, symSize: 0x14 }
  - { offsetInCU: 0x521B2, offset: 0x68E68, size: 0x8, addend: 0x0, symName: __ZNSt3__16vectorINS_12basic_stringIcNS_11char_traitsIcEENS_9allocatorIcEEEENS4_IS6_EEE21_ConstructTransactionC1B8ue170006ERS8_m, symObjAddr: 0xD504, symBinAddr: 0x100016FA0, symSize: 0x3C }
  - { offsetInCU: 0x521FA, offset: 0x68EB0, size: 0x8, addend: 0x0, symName: __ZNSt3__16vectorINS_12basic_stringIcNS_11char_traitsIcEENS_9allocatorIcEEEENS4_IS6_EEE21_ConstructTransactionD1B8ue170006Ev, symObjAddr: 0xD5C0, symBinAddr: 0x10001705C, symSize: 0x2C }
  - { offsetInCU: 0x52224, offset: 0x68EDA, size: 0x8, addend: 0x0, symName: __ZNSt3__16vectorINS_12basic_stringIcNS_11char_traitsIcEENS_9allocatorIcEEEENS4_IS6_EEE21_ConstructTransactionC2B8ue170006ERS8_m, symObjAddr: 0xD5EC, symBinAddr: 0x100017088, symSize: 0x4C }
  - { offsetInCU: 0x52285, offset: 0x68F3B, size: 0x8, addend: 0x0, symName: __ZNSt3__119__unwrap_range_implIPNS_12basic_stringIcNS_11char_traitsIcEENS_9allocatorIcEEEES7_E8__unwrapB8ue170006ES7_S7_, symObjAddr: 0xD7C8, symBinAddr: 0x100017264, symSize: 0x58 }
  - { offsetInCU: 0x522BB, offset: 0x68F71, size: 0x8, addend: 0x0, symName: __ZNSt3__14pairIPNS_12basic_stringIcNS_11char_traitsIcEENS_9allocatorIcEEEES7_EC1B8ue170006IS7_S7_LPv0EEEOT_OT0_, symObjAddr: 0xD820, symBinAddr: 0x1000172BC, symSize: 0x3C }
  - { offsetInCU: 0x52319, offset: 0x68FCF, size: 0x8, addend: 0x0, symName: __ZNSt3__14pairIPNS_12basic_stringIcNS_11char_traitsIcEENS_9allocatorIcEEEES7_EC2B8ue170006IS7_S7_LPv0EEEOT_OT0_, symObjAddr: 0xD85C, symBinAddr: 0x1000172F8, symSize: 0x34 }
  - { offsetInCU: 0x52377, offset: 0x6902D, size: 0x8, addend: 0x0, symName: __ZNSt3__129_AllocatorDestroyRangeReverseINS_9allocatorINS_12basic_stringIcNS_11char_traitsIcEENS1_IcEEEEEEPS6_EC1B8ue170006ERS7_RS8_SB_, symObjAddr: 0xD8DC, symBinAddr: 0x100017378, symSize: 0x44 }
  - { offsetInCU: 0x523CE, offset: 0x69084, size: 0x8, addend: 0x0, symName: __ZNSt3__116allocator_traitsINS_9allocatorINS_12basic_stringIcNS_11char_traitsIcEENS1_IcEEEEEEE9constructB8ue170006IS6_JRS6_EvvEEvRS7_PT_DpOT0_, symObjAddr: 0xD920, symBinAddr: 0x1000173BC, symSize: 0x30 }
  - { offsetInCU: 0x52423, offset: 0x690D9, size: 0x8, addend: 0x0, symName: __ZNSt3__128__exception_guard_exceptionsINS_29_AllocatorDestroyRangeReverseINS_9allocatorINS_12basic_stringIcNS_11char_traitsIcEENS2_IcEEEEEEPS7_EEE10__completeB8ue170006Ev, symObjAddr: 0xD950, symBinAddr: 0x1000173EC, symSize: 0x1C }
  - { offsetInCU: 0x52449, offset: 0x690FF, size: 0x8, addend: 0x0, symName: __ZNSt3__128__exception_guard_exceptionsINS_29_AllocatorDestroyRangeReverseINS_9allocatorINS_12basic_stringIcNS_11char_traitsIcEENS2_IcEEEEEEPS7_EEED1B8ue170006Ev, symObjAddr: 0xD96C, symBinAddr: 0x100017408, symSize: 0x2C }
  - { offsetInCU: 0x52473, offset: 0x69129, size: 0x8, addend: 0x0, symName: __ZNSt3__128__exception_guard_exceptionsINS_29_AllocatorDestroyRangeReverseINS_9allocatorINS_12basic_stringIcNS_11char_traitsIcEENS2_IcEEEEEEPS7_EEEC1B8ue170006ESA_, symObjAddr: 0xD998, symBinAddr: 0x100017434, symSize: 0x34 }
  - { offsetInCU: 0x524AC, offset: 0x69162, size: 0x8, addend: 0x0, symName: __ZNSt3__128__exception_guard_exceptionsINS_29_AllocatorDestroyRangeReverseINS_9allocatorINS_12basic_stringIcNS_11char_traitsIcEENS2_IcEEEEEEPS7_EEEC2B8ue170006ESA_, symObjAddr: 0xD9CC, symBinAddr: 0x100017468, symSize: 0x30 }
  - { offsetInCU: 0x524E5, offset: 0x6919B, size: 0x8, addend: 0x0, symName: __ZNSt3__129_AllocatorDestroyRangeReverseINS_9allocatorINS_12basic_stringIcNS_11char_traitsIcEENS1_IcEEEEEEPS6_EC2B8ue170006ERS7_RS8_SB_, symObjAddr: 0xD9FC, symBinAddr: 0x100017498, symSize: 0x38 }
  - { offsetInCU: 0x5253C, offset: 0x691F2, size: 0x8, addend: 0x0, symName: __ZNSt3__128__exception_guard_exceptionsINS_29_AllocatorDestroyRangeReverseINS_9allocatorINS_12basic_stringIcNS_11char_traitsIcEENS2_IcEEEEEEPS7_EEED2B8ue170006Ev, symObjAddr: 0xDA70, symBinAddr: 0x10001750C, symSize: 0x50 }
  - { offsetInCU: 0x52566, offset: 0x6921C, size: 0x8, addend: 0x0, symName: __ZNKSt3__129_AllocatorDestroyRangeReverseINS_9allocatorINS_12basic_stringIcNS_11char_traitsIcEENS1_IcEEEEEEPS6_EclB8ue170006Ev, symObjAddr: 0xDAC0, symBinAddr: 0x10001755C, symSize: 0x68 }
  - { offsetInCU: 0x5258C, offset: 0x69242, size: 0x8, addend: 0x0, symName: __ZNSt3__116reverse_iteratorIPNS_12basic_stringIcNS_11char_traitsIcEENS_9allocatorIcEEEEEC1B8ue170006ES7_, symObjAddr: 0xDB98, symBinAddr: 0x100017634, symSize: 0x34 }
  - { offsetInCU: 0x525C4, offset: 0x6927A, size: 0x8, addend: 0x0, symName: __ZNSt3__116allocator_traitsINS_9allocatorINS_12basic_stringIcNS_11char_traitsIcEENS1_IcEEEEEEE7destroyB8ue170006IS6_vvEEvRS7_PT_, symObjAddr: 0xDC14, symBinAddr: 0x1000176B0, symSize: 0x28 }
  - { offsetInCU: 0x525FF, offset: 0x692B5, size: 0x8, addend: 0x0, symName: __ZNSt3__116reverse_iteratorIPNS_12basic_stringIcNS_11char_traitsIcEENS_9allocatorIcEEEEEppB8ue170006Ev, symObjAddr: 0xDC60, symBinAddr: 0x1000176FC, symSize: 0x20 }
  - { offsetInCU: 0x52625, offset: 0x692DB, size: 0x8, addend: 0x0, symName: __ZNKSt3__116reverse_iteratorIPNS_12basic_stringIcNS_11char_traitsIcEENS_9allocatorIcEEEEE4baseB8ue170006Ev, symObjAddr: 0xDC80, symBinAddr: 0x10001771C, symSize: 0x18 }
  - { offsetInCU: 0x52650, offset: 0x69306, size: 0x8, addend: 0x0, symName: __ZNSt3__119__to_address_helperINS_16reverse_iteratorIPNS_12basic_stringIcNS_11char_traitsIcEENS_9allocatorIcEEEEEEvE6__callB8ue170006ERKS9_, symObjAddr: 0xDCE0, symBinAddr: 0x10001777C, symSize: 0x38 }
  - { offsetInCU: 0x52673, offset: 0x69329, size: 0x8, addend: 0x0, symName: __ZNKSt3__116reverse_iteratorIPNS_12basic_stringIcNS_11char_traitsIcEENS_9allocatorIcEEEEEptB8ue170006Ev, symObjAddr: 0xDD18, symBinAddr: 0x1000177B4, symSize: 0x2C }
  - { offsetInCU: 0x52699, offset: 0x6934F, size: 0x8, addend: 0x0, symName: __ZNSt3__116reverse_iteratorIPNS_12basic_stringIcNS_11char_traitsIcEENS_9allocatorIcEEEEEC2B8ue170006ES7_, symObjAddr: 0xDDE8, symBinAddr: 0x100017884, symSize: 0x28 }
  - { offsetInCU: 0x526D1, offset: 0x69387, size: 0x8, addend: 0x0, symName: __ZNSt3__118__unwrap_iter_implIPNS_12basic_stringIcNS_11char_traitsIcEENS_9allocatorIcEEEELb1EE8__unwrapB8ue170006ES7_, symObjAddr: 0xDE10, symBinAddr: 0x1000178AC, symSize: 0x24 }
  - { offsetInCU: 0x526F4, offset: 0x693AA, size: 0x8, addend: 0x0, symName: __ZNSt3__118__unwrap_iter_implIPNS_12basic_stringIcNS_11char_traitsIcEENS_9allocatorIcEEEELb1EE8__rewrapB8ue170006ES7_S7_, symObjAddr: 0xDE34, symBinAddr: 0x1000178D0, symSize: 0x58 }
  - { offsetInCU: 0x52725, offset: 0x693DB, size: 0x8, addend: 0x0, symName: __ZNSt3__16vectorINS_12basic_stringIcNS_11char_traitsIcEENS_9allocatorIcEEEENS4_IS6_EEE21_ConstructTransactionD2B8ue170006Ev, symObjAddr: 0xDE8C, symBinAddr: 0x100017928, symSize: 0x20 }
  - { offsetInCU: 0x5274F, offset: 0x69405, size: 0x8, addend: 0x0, symName: __ZNSt3__128__exception_guard_exceptionsINS_6vectorINS_12basic_stringIcNS_11char_traitsIcEENS_9allocatorIcEEEENS5_IS7_EEE16__destroy_vectorEED2B8ue170006Ev, symObjAddr: 0xDEAC, symBinAddr: 0x100017948, symSize: 0x50 }
  - { offsetInCU: 0x52779, offset: 0x6942F, size: 0x8, addend: 0x0, symName: __ZNSt3__16vectorINS_12basic_stringIcNS_11char_traitsIcEENS_9allocatorIcEEEENS4_IS6_EEE16__destroy_vectorclB8ue170006Ev, symObjAddr: 0xDEFC, symBinAddr: 0x100017998, symSize: 0x90 }
  - { offsetInCU: 0x5279F, offset: 0x69455, size: 0x8, addend: 0x0, symName: __ZNSt3__16vectorINS_12basic_stringIcNS_11char_traitsIcEENS_9allocatorIcEEEENS4_IS6_EEE7__clearB8ue170006Ev, symObjAddr: 0xDF8C, symBinAddr: 0x100017A28, symSize: 0x28 }
  - { offsetInCU: 0x527C5, offset: 0x6947B, size: 0x8, addend: 0x0, symName: __ZNKSt3__16vectorINS_12basic_stringIcNS_11char_traitsIcEENS_9allocatorIcEEEENS4_IS6_EEE17__annotate_deleteB8ue170006Ev, symObjAddr: 0xDFB4, symBinAddr: 0x100017A50, symSize: 0xD4 }
  - { offsetInCU: 0x527EB, offset: 0x694A1, size: 0x8, addend: 0x0, symName: __ZNSt3__116allocator_traitsINS_9allocatorINS_12basic_stringIcNS_11char_traitsIcEENS1_IcEEEEEEE10deallocateB8ue170006ERS7_PS6_m, symObjAddr: 0xE088, symBinAddr: 0x100017B24, symSize: 0x34 }
  - { offsetInCU: 0x5282D, offset: 0x694E3, size: 0x8, addend: 0x0, symName: __ZNSt3__16vectorINS_12basic_stringIcNS_11char_traitsIcEENS_9allocatorIcEEEENS4_IS6_EEE22__base_destruct_at_endB8ue170006EPS6_, symObjAddr: 0xE0BC, symBinAddr: 0x100017B58, symSize: 0x8C }
  - { offsetInCU: 0x52871, offset: 0x69527, size: 0x8, addend: 0x0, symName: __ZNSt3__19allocatorINS_12basic_stringIcNS_11char_traitsIcEENS0_IcEEEEE10deallocateB8ue170006EPS5_m, symObjAddr: 0xE148, symBinAddr: 0x100017BE4, symSize: 0x44 }
  - { offsetInCU: 0x528B3, offset: 0x69569, size: 0x8, addend: 0x0, symName: __ZNSt3__16vectorINS_12basic_stringIcNS_11char_traitsIcEENS_9allocatorIcEEEENS4_IS6_EEE11__make_iterB8ue170006EPS6_, symObjAddr: 0xE18C, symBinAddr: 0x100017C28, symSize: 0x30 }
  - { offsetInCU: 0x528E8, offset: 0x6959E, size: 0x8, addend: 0x0, symName: __ZNSt3__111__wrap_iterIPNS_12basic_stringIcNS_11char_traitsIcEENS_9allocatorIcEEEEEC1B8ue170006ES7_, symObjAddr: 0xE1BC, symBinAddr: 0x100017C58, symSize: 0x34 }
  - { offsetInCU: 0x52920, offset: 0x695D6, size: 0x8, addend: 0x0, symName: __ZNSt3__111__wrap_iterIPNS_12basic_stringIcNS_11char_traitsIcEENS_9allocatorIcEEEEEC2B8ue170006ES7_, symObjAddr: 0xE1F0, symBinAddr: 0x100017C8C, symSize: 0x20 }
  - { offsetInCU: 0x52958, offset: 0x6960E, size: 0x8, addend: 0x0, symName: __ZNKSt3__111__wrap_iterIPNS_12basic_stringIcNS_11char_traitsIcEENS_9allocatorIcEEEEE4baseB8ue170006Ev, symObjAddr: 0xE258, symBinAddr: 0x100017CF4, symSize: 0x18 }
  - { offsetInCU: 0x5297E, offset: 0x69634, size: 0x8, addend: 0x0, symName: __ZNSt3__16vectorINS_12basic_stringIcNS_11char_traitsIcEENS_9allocatorIcEEEENS4_IS6_EEED2B8ue170006Ev, symObjAddr: 0xE270, symBinAddr: 0x100017D0C, symSize: 0x40 }
  - { offsetInCU: 0x529A8, offset: 0x6965E, size: 0x8, addend: 0x0, symName: __ZNSt3__115__hash_iteratorIPNS_11__hash_nodeINS_17__hash_value_typeINS_12basic_stringIcNS_11char_traitsIcEENS_9allocatorIcEEEENS_10shared_ptrI8VariableEEEEPvEEEppB8ue170006Ev, symObjAddr: 0xE2B0, symBinAddr: 0x100017D4C, symSize: 0x20 }
  - { offsetInCU: 0x529CE, offset: 0x69684, size: 0x8, addend: 0x0, symName: __ZNSt3__112__hash_tableINS_17__hash_value_typeINS_12basic_stringIcNS_11char_traitsIcEENS_9allocatorIcEEEENS_10shared_ptrI7ASTNodeEEEENS_22__unordered_map_hasherIS7_SB_NS_4hashIS7_EENS_8equal_toIS7_EELb1EEENS_21__unordered_map_equalIS7_SB_SG_SE_Lb1EEENS5_ISB_EEE5beginEv, symObjAddr: 0xE2D0, symBinAddr: 0x100017D6C, symSize: 0x38 }
  - { offsetInCU: 0x529F6, offset: 0x696AC, size: 0x8, addend: 0x0, symName: __ZNSt3__119__hash_map_iteratorINS_15__hash_iteratorIPNS_11__hash_nodeINS_17__hash_value_typeINS_12basic_stringIcNS_11char_traitsIcEENS_9allocatorIcEEEENS_10shared_ptrI7ASTNodeEEEEPvEEEEEC1B8ue170006ESH_, symObjAddr: 0xE308, symBinAddr: 0x100017DA4, symSize: 0x34 }
  - { offsetInCU: 0x52A2F, offset: 0x696E5, size: 0x8, addend: 0x0, symName: __ZNSt3__117__compressed_pairINS_16__hash_node_baseIPNS_11__hash_nodeINS_17__hash_value_typeINS_12basic_stringIcNS_11char_traitsIcEENS_9allocatorIcEEEENS_10shared_ptrI7ASTNodeEEEEPvEEEENS7_ISF_EEE5firstB8ue170006Ev, symObjAddr: 0xE33C, symBinAddr: 0x100017DD8, symSize: 0x24 }
  - { offsetInCU: 0x52A55, offset: 0x6970B, size: 0x8, addend: 0x0, symName: __ZNSt3__115__hash_iteratorIPNS_11__hash_nodeINS_17__hash_value_typeINS_12basic_stringIcNS_11char_traitsIcEENS_9allocatorIcEEEENS_10shared_ptrI7ASTNodeEEEEPvEEEC1B8ue170006EPNS_16__hash_node_baseISF_EE, symObjAddr: 0xE360, symBinAddr: 0x100017DFC, symSize: 0x34 }
  - { offsetInCU: 0x52A8E, offset: 0x69744, size: 0x8, addend: 0x0, symName: __ZNSt3__122__compressed_pair_elemINS_16__hash_node_baseIPNS_11__hash_nodeINS_17__hash_value_typeINS_12basic_stringIcNS_11char_traitsIcEENS_9allocatorIcEEEENS_10shared_ptrI7ASTNodeEEEEPvEEEELi0ELb0EE5__getB8ue170006Ev, symObjAddr: 0xE394, symBinAddr: 0x100017E30, symSize: 0x14 }
  - { offsetInCU: 0x52AB4, offset: 0x6976A, size: 0x8, addend: 0x0, symName: __ZNSt3__115__hash_iteratorIPNS_11__hash_nodeINS_17__hash_value_typeINS_12basic_stringIcNS_11char_traitsIcEENS_9allocatorIcEEEENS_10shared_ptrI7ASTNodeEEEEPvEEEC2B8ue170006EPNS_16__hash_node_baseISF_EE, symObjAddr: 0xE3A8, symBinAddr: 0x100017E44, symSize: 0x20 }
  - { offsetInCU: 0x52AED, offset: 0x697A3, size: 0x8, addend: 0x0, symName: __ZNSt3__119__hash_map_iteratorINS_15__hash_iteratorIPNS_11__hash_nodeINS_17__hash_value_typeINS_12basic_stringIcNS_11char_traitsIcEENS_9allocatorIcEEEENS_10shared_ptrI7ASTNodeEEEEPvEEEEEC2B8ue170006ESH_, symObjAddr: 0xE3C8, symBinAddr: 0x100017E64, symSize: 0x20 }
  - { offsetInCU: 0x52B26, offset: 0x697DC, size: 0x8, addend: 0x0, symName: __ZNSt3__112__hash_tableINS_17__hash_value_typeINS_12basic_stringIcNS_11char_traitsIcEENS_9allocatorIcEEEENS_10shared_ptrI7ASTNodeEEEENS_22__unordered_map_hasherIS7_SB_NS_4hashIS7_EENS_8equal_toIS7_EELb1EEENS_21__unordered_map_equalIS7_SB_SG_SE_Lb1EEENS5_ISB_EEE3endEv, symObjAddr: 0xE3E8, symBinAddr: 0x100017E84, symSize: 0x2C }
  - { offsetInCU: 0x52B4E, offset: 0x69804, size: 0x8, addend: 0x0, symName: __ZNKSt3__115__hash_iteratorIPNS_11__hash_nodeINS_17__hash_value_typeINS_12basic_stringIcNS_11char_traitsIcEENS_9allocatorIcEEEENS_10shared_ptrI7ASTNodeEEEEPvEEEptB8ue170006Ev, symObjAddr: 0xE444, symBinAddr: 0x100017EE0, symSize: 0x30 }
  - { offsetInCU: 0x52B74, offset: 0x6982A, size: 0x8, addend: 0x0, symName: __ZNSt3__117__hash_value_typeINS_12basic_stringIcNS_11char_traitsIcEENS_9allocatorIcEEEENS_10shared_ptrI7ASTNodeEEE11__get_valueB8ue170006Ev, symObjAddr: 0xE474, symBinAddr: 0x100017F10, symSize: 0x24 }
  - { offsetInCU: 0x52B9A, offset: 0x69850, size: 0x8, addend: 0x0, symName: __ZNSt3__114pointer_traitsIPNS_17__hash_value_typeINS_12basic_stringIcNS_11char_traitsIcEENS_9allocatorIcEEEENS_10shared_ptrI7ASTNodeEEEEE10pointer_toB8ue170006ERSB_, symObjAddr: 0xE498, symBinAddr: 0x100017F34, symSize: 0x14 }
  - { offsetInCU: 0x52BBD, offset: 0x69873, size: 0x8, addend: 0x0, symName: __ZNSt3__116__hash_node_baseIPNS_11__hash_nodeINS_17__hash_value_typeINS_12basic_stringIcNS_11char_traitsIcEENS_9allocatorIcEEEENS_10shared_ptrI7ASTNodeEEEEPvEEE8__upcastB8ue170006Ev, symObjAddr: 0xE4AC, symBinAddr: 0x100017F48, symSize: 0x24 }
  - { offsetInCU: 0x52BE3, offset: 0x69899, size: 0x8, addend: 0x0, symName: __ZNSt3__114pointer_traitsIPNS_16__hash_node_baseIPNS_11__hash_nodeINS_17__hash_value_typeINS_12basic_stringIcNS_11char_traitsIcEENS_9allocatorIcEEEENS_10shared_ptrI7ASTNodeEEEEPvEEEEE10pointer_toB8ue170006ERSH_, symObjAddr: 0xE4D0, symBinAddr: 0x100017F6C, symSize: 0x14 }
  - { offsetInCU: 0x52C06, offset: 0x698BC, size: 0x8, addend: 0x0, symName: __ZNSt3__115__hash_iteratorIPNS_11__hash_nodeINS_17__hash_value_typeINS_12basic_stringIcNS_11char_traitsIcEENS_9allocatorIcEEEENS_10shared_ptrI7ASTNodeEEEEPvEEEppB8ue170006Ev, symObjAddr: 0xE51C, symBinAddr: 0x100017FB8, symSize: 0x20 }
  - { offsetInCU: 0x52C2C, offset: 0x698E2, size: 0x8, addend: 0x0, symName: __ZNKSt3__16vectorINS_3setINS_12basic_stringIcNS_11char_traitsIcEENS_9allocatorIcEEEENS_4lessIS7_EENS5_IS7_EEEENS5_ISB_EEE4sizeB8ue170006Ev, symObjAddr: 0xE53C, symBinAddr: 0x100017FD8, symSize: 0x28 }
  - { offsetInCU: 0x52C52, offset: 0x69908, size: 0x8, addend: 0x0, symName: __ZNSt3__16vectorINS_3setINS_12basic_stringIcNS_11char_traitsIcEENS_9allocatorIcEEEENS_4lessIS7_EENS5_IS7_EEEENS5_ISB_EEEixB8ue170006Em, symObjAddr: 0xE564, symBinAddr: 0x100018000, symSize: 0x2C }
  - { offsetInCU: 0x52C89, offset: 0x6993F, size: 0x8, addend: 0x0, symName: __ZNSt3__13setINS_12basic_stringIcNS_11char_traitsIcEENS_9allocatorIcEEEENS_4lessIS6_EENS4_IS6_EEE4findB8ue170006ERKS6_, symObjAddr: 0xE590, symBinAddr: 0x10001802C, symSize: 0x40 }
  - { offsetInCU: 0x52CBE, offset: 0x69974, size: 0x8, addend: 0x0, symName: __ZNSt3__16__treeINS_12basic_stringIcNS_11char_traitsIcEENS_9allocatorIcEEEENS_4lessIS6_EENS4_IS6_EEE4findIS6_EENS_15__tree_iteratorIS6_PNS_11__tree_nodeIS6_PvEElEERKT_, symObjAddr: 0xE5D0, symBinAddr: 0x10001806C, symSize: 0xF8 }
  - { offsetInCU: 0x52D0D, offset: 0x699C3, size: 0x8, addend: 0x0, symName: __ZNSt3__16__treeINS_12basic_stringIcNS_11char_traitsIcEENS_9allocatorIcEEEENS_4lessIS6_EENS4_IS6_EEE13__lower_boundIS6_EENS_15__tree_iteratorIS6_PNS_11__tree_nodeIS6_PvEElEERKT_SG_PNS_15__tree_end_nodeIPNS_16__tree_node_baseISE_EEEE, symObjAddr: 0xE6C8, symBinAddr: 0x100018164, symSize: 0xA4 }
  - { offsetInCU: 0x52D6B, offset: 0x69A21, size: 0x8, addend: 0x0, symName: __ZNKSt3__16__treeINS_12basic_stringIcNS_11char_traitsIcEENS_9allocatorIcEEEENS_4lessIS6_EENS4_IS6_EEE6__rootB8ue170006Ev, symObjAddr: 0xE76C, symBinAddr: 0x100018208, symSize: 0x28 }
  - { offsetInCU: 0x52D91, offset: 0x69A47, size: 0x8, addend: 0x0, symName: __ZNSt3__16__treeINS_12basic_stringIcNS_11char_traitsIcEENS_9allocatorIcEEEENS_4lessIS6_EENS4_IS6_EEE10value_compB8ue170006Ev, symObjAddr: 0xE7C8, symBinAddr: 0x100018264, symSize: 0x28 }
  - { offsetInCU: 0x52DB7, offset: 0x69A6D, size: 0x8, addend: 0x0, symName: __ZNKSt3__14lessINS_12basic_stringIcNS_11char_traitsIcEENS_9allocatorIcEEEEEclB8ue170006ERKS6_S9_, symObjAddr: 0xE7F0, symBinAddr: 0x10001828C, symSize: 0x50 }
  - { offsetInCU: 0x52DFB, offset: 0x69AB1, size: 0x8, addend: 0x0, symName: __ZNKSt3__115__tree_iteratorINS_12basic_stringIcNS_11char_traitsIcEENS_9allocatorIcEEEEPNS_11__tree_nodeIS6_PvEElEdeB8ue170006Ev, symObjAddr: 0xE840, symBinAddr: 0x1000182DC, symSize: 0x28 }
  - { offsetInCU: 0x52E21, offset: 0x69AD7, size: 0x8, addend: 0x0, symName: __ZNKSt3__16__treeINS_12basic_stringIcNS_11char_traitsIcEENS_9allocatorIcEEEENS_4lessIS6_EENS4_IS6_EEE10__end_nodeB8ue170006Ev, symObjAddr: 0xE868, symBinAddr: 0x100018304, symSize: 0x2C }
  - { offsetInCU: 0x52E47, offset: 0x69AFD, size: 0x8, addend: 0x0, symName: __ZNKSt3__117__compressed_pairINS_15__tree_end_nodeIPNS_16__tree_node_baseIPvEEEENS_9allocatorINS_11__tree_nodeINS_12basic_stringIcNS_11char_traitsIcEENS7_IcEEEES3_EEEEE5firstB8ue170006Ev, symObjAddr: 0xE894, symBinAddr: 0x100018330, symSize: 0x24 }
  - { offsetInCU: 0x52E6D, offset: 0x69B23, size: 0x8, addend: 0x0, symName: __ZNKSt3__122__compressed_pair_elemINS_15__tree_end_nodeIPNS_16__tree_node_baseIPvEEEELi0ELb0EE5__getB8ue170006Ev, symObjAddr: 0xE8B8, symBinAddr: 0x100018354, symSize: 0x14 }
  - { offsetInCU: 0x52E93, offset: 0x69B49, size: 0x8, addend: 0x0, symName: __ZNSt3__117__compressed_pairImNS_4lessINS_12basic_stringIcNS_11char_traitsIcEENS_9allocatorIcEEEEEEE6secondB8ue170006Ev, symObjAddr: 0xE8FC, symBinAddr: 0x100018398, symSize: 0x24 }
  - { offsetInCU: 0x52EB9, offset: 0x69B6F, size: 0x8, addend: 0x0, symName: __ZNSt3__122__compressed_pair_elemINS_4lessINS_12basic_stringIcNS_11char_traitsIcEENS_9allocatorIcEEEEEELi1ELb1EE5__getB8ue170006Ev, symObjAddr: 0xE920, symBinAddr: 0x1000183BC, symSize: 0x14 }
  - { offsetInCU: 0x52EEE, offset: 0x69BA4, size: 0x8, addend: 0x0, symName: __ZNSt3__120_CmpUnspecifiedParamC1B8ue170006EMS0_i, symObjAddr: 0xE9B4, symBinAddr: 0x100018450, symSize: 0x34 }
  - { offsetInCU: 0x52F22, offset: 0x69BD8, size: 0x8, addend: 0x0, symName: __ZNSt3__120_CmpUnspecifiedParamC2B8ue170006EMS0_i, symObjAddr: 0xECBC, symBinAddr: 0x100018500, symSize: 0x18 }
  - { offsetInCU: 0x52F56, offset: 0x69C0C, size: 0x8, addend: 0x0, symName: __ZNKSt3__115__tree_iteratorINS_12basic_stringIcNS_11char_traitsIcEENS_9allocatorIcEEEEPNS_11__tree_nodeIS6_PvEElE8__get_npB8ue170006Ev, symObjAddr: 0xECD4, symBinAddr: 0x100018518, symSize: 0x18 }
  - { offsetInCU: 0x52F7C, offset: 0x69C32, size: 0x8, addend: 0x0, symName: __ZNSt3__13setINS_12basic_stringIcNS_11char_traitsIcEENS_9allocatorIcEEEENS_4lessIS6_EENS4_IS6_EEE7emplaceB8ue170006IJRKS6_EEENS_4pairINS_21__tree_const_iteratorIS6_PNS_11__tree_nodeIS6_PvEElEEbEEDpOT_, symObjAddr: 0xECEC, symBinAddr: 0x100018530, symSize: 0x4C }
  - { offsetInCU: 0x52FBC, offset: 0x69C72, size: 0x8, addend: 0x0, symName: __ZNSt3__16__treeINS_12basic_stringIcNS_11char_traitsIcEENS_9allocatorIcEEEENS_4lessIS6_EENS4_IS6_EEE16__emplace_uniqueB8ue170006IRKS6_EENS_4pairINS_15__tree_iteratorIS6_PNS_11__tree_nodeIS6_PvEElEEbEEOT_, symObjAddr: 0xED38, symBinAddr: 0x10001857C, symSize: 0x3C }
  - { offsetInCU: 0x52FFA, offset: 0x69CB0, size: 0x8, addend: 0x0, symName: __ZNSt3__14pairINS_21__tree_const_iteratorINS_12basic_stringIcNS_11char_traitsIcEENS_9allocatorIcEEEEPNS_11__tree_nodeIS7_PvEElEEbEC1B8ue170006INS_15__tree_iteratorIS7_SB_lEEbLS9_0EEEONS0_IT_T0_EE, symObjAddr: 0xED74, symBinAddr: 0x1000185B8, symSize: 0x34 }
  - { offsetInCU: 0x5304B, offset: 0x69D01, size: 0x8, addend: 0x0, symName: __ZNSt3__16__treeINS_12basic_stringIcNS_11char_traitsIcEENS_9allocatorIcEEEENS_4lessIS6_EENS4_IS6_EEE28__emplace_unique_extract_keyB8ue170006IRKS6_EENS_4pairINS_15__tree_iteratorIS6_PNS_11__tree_nodeIS6_PvEElEEbEEOT_NS_22__extract_key_self_tagE, symObjAddr: 0xEDA8, symBinAddr: 0x1000185EC, symSize: 0x40 }
  - { offsetInCU: 0x53095, offset: 0x69D4B, size: 0x8, addend: 0x0, symName: __ZNSt3__16__treeINS_12basic_stringIcNS_11char_traitsIcEENS_9allocatorIcEEEENS_4lessIS6_EENS4_IS6_EEE25__emplace_unique_key_argsIS6_JRKS6_EEENS_4pairINS_15__tree_iteratorIS6_PNS_11__tree_nodeIS6_PvEElEEbEERKT_DpOT0_, symObjAddr: 0xEDE8, symBinAddr: 0x10001862C, symSize: 0xF0 }
  - { offsetInCU: 0x53141, offset: 0x69DF7, size: 0x8, addend: 0x0, symName: __ZNSt3__16__treeINS_12basic_stringIcNS_11char_traitsIcEENS_9allocatorIcEEEENS_4lessIS6_EENS4_IS6_EEE12__find_equalIS6_EERPNS_16__tree_node_baseIPvEERPNS_15__tree_end_nodeISF_EERKT_, symObjAddr: 0xEED8, symBinAddr: 0x10001871C, symSize: 0x184 }
  - { offsetInCU: 0x531AE, offset: 0x69E64, size: 0x8, addend: 0x0, symName: __ZNSt3__16__treeINS_12basic_stringIcNS_11char_traitsIcEENS_9allocatorIcEEEENS_4lessIS6_EENS4_IS6_EEE16__construct_nodeIJRKS6_EEENS_10unique_ptrINS_11__tree_nodeIS6_PvEENS_22__tree_node_destructorINS4_ISH_EEEEEEDpOT_, symObjAddr: 0xF05C, symBinAddr: 0x1000188A0, symSize: 0x110 }
  - { offsetInCU: 0x5320F, offset: 0x69EC5, size: 0x8, addend: 0x0, symName: __ZNSt3__16__treeINS_12basic_stringIcNS_11char_traitsIcEENS_9allocatorIcEEEENS_4lessIS6_EENS4_IS6_EEE16__insert_node_atEPNS_15__tree_end_nodeIPNS_16__tree_node_baseIPvEEEERSF_SF_, symObjAddr: 0xF16C, symBinAddr: 0x1000189B0, symSize: 0xCC }
  - { offsetInCU: 0x53264, offset: 0x69F1A, size: 0x8, addend: 0x0, symName: __ZNKSt3__110unique_ptrINS_11__tree_nodeINS_12basic_stringIcNS_11char_traitsIcEENS_9allocatorIcEEEEPvEENS_22__tree_node_destructorINS5_IS9_EEEEE3getB8ue170006Ev, symObjAddr: 0xF238, symBinAddr: 0x100018A7C, symSize: 0x28 }
  - { offsetInCU: 0x5328A, offset: 0x69F40, size: 0x8, addend: 0x0, symName: __ZNSt3__110unique_ptrINS_11__tree_nodeINS_12basic_stringIcNS_11char_traitsIcEENS_9allocatorIcEEEEPvEENS_22__tree_node_destructorINS5_IS9_EEEEE7releaseB8ue170006Ev, symObjAddr: 0xF260, symBinAddr: 0x100018AA4, symSize: 0x44 }
  - { offsetInCU: 0x532BF, offset: 0x69F75, size: 0x8, addend: 0x0, symName: __ZNSt3__110unique_ptrINS_11__tree_nodeINS_12basic_stringIcNS_11char_traitsIcEENS_9allocatorIcEEEEPvEENS_22__tree_node_destructorINS5_IS9_EEEEED1B8ue170006Ev, symObjAddr: 0xF2A4, symBinAddr: 0x100018AE8, symSize: 0x2C }
  - { offsetInCU: 0x532E9, offset: 0x69F9F, size: 0x8, addend: 0x0, symName: __ZNSt3__115__tree_iteratorINS_12basic_stringIcNS_11char_traitsIcEENS_9allocatorIcEEEEPNS_11__tree_nodeIS6_PvEElEC1B8ue170006ESA_, symObjAddr: 0xF2D0, symBinAddr: 0x100018B14, symSize: 0x34 }
  - { offsetInCU: 0x53327, offset: 0x69FDD, size: 0x8, addend: 0x0, symName: __ZNSt3__14pairINS_15__tree_iteratorINS_12basic_stringIcNS_11char_traitsIcEENS_9allocatorIcEEEEPNS_11__tree_nodeIS7_PvEElEEbEC1B8ue170006ISC_RbLS9_0EEEOT_OT0_, symObjAddr: 0xF304, symBinAddr: 0x100018B48, symSize: 0x3C }
  - { offsetInCU: 0x53385, offset: 0x6A03B, size: 0x8, addend: 0x0, symName: __ZNKSt3__16__treeINS_12basic_stringIcNS_11char_traitsIcEENS_9allocatorIcEEEENS_4lessIS6_EENS4_IS6_EEE10__root_ptrB8ue170006Ev, symObjAddr: 0xF340, symBinAddr: 0x100018B84, symSize: 0x24 }
  - { offsetInCU: 0x533AB, offset: 0x6A061, size: 0x8, addend: 0x0, symName: __ZNSt3__16__treeINS_12basic_stringIcNS_11char_traitsIcEENS_9allocatorIcEEEENS_4lessIS6_EENS4_IS6_EEE12__node_allocB8ue170006Ev, symObjAddr: 0xF364, symBinAddr: 0x100018BA8, symSize: 0x28 }
  - { offsetInCU: 0x533D1, offset: 0x6A087, size: 0x8, addend: 0x0, symName: __ZNSt3__116allocator_traitsINS_9allocatorINS_11__tree_nodeINS_12basic_stringIcNS_11char_traitsIcEENS1_IcEEEEPvEEEEE8allocateB8ue170006ERSA_m, symObjAddr: 0xF38C, symBinAddr: 0x100018BD0, symSize: 0x2C }
  - { offsetInCU: 0x53404, offset: 0x6A0BA, size: 0x8, addend: 0x0, symName: __ZNSt3__122__tree_node_destructorINS_9allocatorINS_11__tree_nodeINS_12basic_stringIcNS_11char_traitsIcEENS1_IcEEEEPvEEEEEC1B8ue170006ERSA_b, symObjAddr: 0xF3B8, symBinAddr: 0x100018BFC, symSize: 0x48 }
  - { offsetInCU: 0x53451, offset: 0x6A107, size: 0x8, addend: 0x0, symName: __ZNSt3__110unique_ptrINS_11__tree_nodeINS_12basic_stringIcNS_11char_traitsIcEENS_9allocatorIcEEEEPvEENS_22__tree_node_destructorINS5_IS9_EEEEEC1B8ue170006ILb1EvEEPS9_NS_16__dependent_typeINS_27__unique_ptr_deleter_sfinaeISC_EEXT_EE20__good_rval_ref_typeE, symObjAddr: 0xF400, symBinAddr: 0x100018C44, symSize: 0x3C }
  - { offsetInCU: 0x534A2, offset: 0x6A158, size: 0x8, addend: 0x0, symName: __ZNSt3__116allocator_traitsINS_9allocatorINS_11__tree_nodeINS_12basic_stringIcNS_11char_traitsIcEENS1_IcEEEEPvEEEEE9constructB8ue170006IS7_JRKS7_EvvEEvRSA_PT_DpOT0_, symObjAddr: 0xF43C, symBinAddr: 0x100018C80, symSize: 0x30 }
  - { offsetInCU: 0x534F7, offset: 0x6A1AD, size: 0x8, addend: 0x0, symName: __ZNSt3__122__tree_key_value_typesINS_12basic_stringIcNS_11char_traitsIcEENS_9allocatorIcEEEEE9__get_ptrB8ue170006ERS6_, symObjAddr: 0xF46C, symBinAddr: 0x100018CB0, symSize: 0x14 }
  - { offsetInCU: 0x5351B, offset: 0x6A1D1, size: 0x8, addend: 0x0, symName: __ZNKSt3__110unique_ptrINS_11__tree_nodeINS_12basic_stringIcNS_11char_traitsIcEENS_9allocatorIcEEEEPvEENS_22__tree_node_destructorINS5_IS9_EEEEEptB8ue170006Ev, symObjAddr: 0xF480, symBinAddr: 0x100018CC4, symSize: 0x28 }
  - { offsetInCU: 0x53541, offset: 0x6A1F7, size: 0x8, addend: 0x0, symName: __ZNSt3__110unique_ptrINS_11__tree_nodeINS_12basic_stringIcNS_11char_traitsIcEENS_9allocatorIcEEEEPvEENS_22__tree_node_destructorINS5_IS9_EEEEE11get_deleterB8ue170006Ev, symObjAddr: 0xF4A8, symBinAddr: 0x100018CEC, symSize: 0x24 }
  - { offsetInCU: 0x53567, offset: 0x6A21D, size: 0x8, addend: 0x0, symName: __ZNSt3__117__compressed_pairINS_15__tree_end_nodeIPNS_16__tree_node_baseIPvEEEENS_9allocatorINS_11__tree_nodeINS_12basic_stringIcNS_11char_traitsIcEENS7_IcEEEES3_EEEEE6secondB8ue170006Ev, symObjAddr: 0xF4CC, symBinAddr: 0x100018D10, symSize: 0x24 }
  - { offsetInCU: 0x5358D, offset: 0x6A243, size: 0x8, addend: 0x0, symName: __ZNSt3__122__compressed_pair_elemINS_9allocatorINS_11__tree_nodeINS_12basic_stringIcNS_11char_traitsIcEENS1_IcEEEEPvEEEELi1ELb1EE5__getB8ue170006Ev, symObjAddr: 0xF4F0, symBinAddr: 0x100018D34, symSize: 0x14 }
  - { offsetInCU: 0x535B3, offset: 0x6A269, size: 0x8, addend: 0x0, symName: __ZNSt3__19allocatorINS_11__tree_nodeINS_12basic_stringIcNS_11char_traitsIcEENS0_IcEEEEPvEEE8allocateB8ue170006Em, symObjAddr: 0xF504, symBinAddr: 0x100018D48, symSize: 0x5C }
  - { offsetInCU: 0x535F1, offset: 0x6A2A7, size: 0x8, addend: 0x0, symName: __ZNSt3__116allocator_traitsINS_9allocatorINS_11__tree_nodeINS_12basic_stringIcNS_11char_traitsIcEENS1_IcEEEEPvEEEEE8max_sizeB8ue170006ISA_vvEEmRKSA_, symObjAddr: 0xF560, symBinAddr: 0x100018DA4, symSize: 0x28 }
  - { offsetInCU: 0x5361D, offset: 0x6A2D3, size: 0x8, addend: 0x0, symName: __ZNSt3__122__tree_node_destructorINS_9allocatorINS_11__tree_nodeINS_12basic_stringIcNS_11char_traitsIcEENS1_IcEEEEPvEEEEEC2B8ue170006ERSA_b, symObjAddr: 0xF588, symBinAddr: 0x100018DCC, symSize: 0x38 }
  - { offsetInCU: 0x53665, offset: 0x6A31B, size: 0x8, addend: 0x0, symName: __ZNSt3__110unique_ptrINS_11__tree_nodeINS_12basic_stringIcNS_11char_traitsIcEENS_9allocatorIcEEEEPvEENS_22__tree_node_destructorINS5_IS9_EEEEEC2B8ue170006ILb1EvEEPS9_NS_16__dependent_typeINS_27__unique_ptr_deleter_sfinaeISC_EEXT_EE20__good_rval_ref_typeE, symObjAddr: 0xF5C0, symBinAddr: 0x100018E04, symSize: 0x48 }
  - { offsetInCU: 0x536B6, offset: 0x6A36C, size: 0x8, addend: 0x0, symName: __ZNSt3__117__compressed_pairIPNS_11__tree_nodeINS_12basic_stringIcNS_11char_traitsIcEENS_9allocatorIcEEEEPvEENS_22__tree_node_destructorINS5_IS9_EEEEEC1B8ue170006IRSA_SD_EEOT_OT0_, symObjAddr: 0xF608, symBinAddr: 0x100018E4C, symSize: 0x3C }
  - { offsetInCU: 0x5370E, offset: 0x6A3C4, size: 0x8, addend: 0x0, symName: __ZNSt3__117__compressed_pairIPNS_11__tree_nodeINS_12basic_stringIcNS_11char_traitsIcEENS_9allocatorIcEEEEPvEENS_22__tree_node_destructorINS5_IS9_EEEEEC2B8ue170006IRSA_SD_EEOT_OT0_, symObjAddr: 0xF644, symBinAddr: 0x100018E88, symSize: 0x48 }
  - { offsetInCU: 0x53766, offset: 0x6A41C, size: 0x8, addend: 0x0, symName: __ZNSt3__122__compressed_pair_elemIPNS_11__tree_nodeINS_12basic_stringIcNS_11char_traitsIcEENS_9allocatorIcEEEEPvEELi0ELb0EEC2B8ue170006IRSA_vEEOT_, symObjAddr: 0xF68C, symBinAddr: 0x100018ED0, symSize: 0x24 }
  - { offsetInCU: 0x537A8, offset: 0x6A45E, size: 0x8, addend: 0x0, symName: __ZNSt3__122__compressed_pair_elemINS_22__tree_node_destructorINS_9allocatorINS_11__tree_nodeINS_12basic_stringIcNS_11char_traitsIcEENS2_IcEEEEPvEEEEEELi1ELb0EEC2B8ue170006ISC_vEEOT_, symObjAddr: 0xF6B0, symBinAddr: 0x100018EF4, symSize: 0x24 }
  - { offsetInCU: 0x537EA, offset: 0x6A4A0, size: 0x8, addend: 0x0, symName: __ZNKSt3__117__compressed_pairIPNS_11__tree_nodeINS_12basic_stringIcNS_11char_traitsIcEENS_9allocatorIcEEEEPvEENS_22__tree_node_destructorINS5_IS9_EEEEE5firstB8ue170006Ev, symObjAddr: 0xF710, symBinAddr: 0x100018F54, symSize: 0x24 }
  - { offsetInCU: 0x53810, offset: 0x6A4C6, size: 0x8, addend: 0x0, symName: __ZNKSt3__122__compressed_pair_elemIPNS_11__tree_nodeINS_12basic_stringIcNS_11char_traitsIcEENS_9allocatorIcEEEEPvEELi0ELb0EE5__getB8ue170006Ev, symObjAddr: 0xF734, symBinAddr: 0x100018F78, symSize: 0x14 }
  - { offsetInCU: 0x53836, offset: 0x6A4EC, size: 0x8, addend: 0x0, symName: __ZNSt3__117__compressed_pairIPNS_11__tree_nodeINS_12basic_stringIcNS_11char_traitsIcEENS_9allocatorIcEEEEPvEENS_22__tree_node_destructorINS5_IS9_EEEEE6secondB8ue170006Ev, symObjAddr: 0xF748, symBinAddr: 0x100018F8C, symSize: 0x28 }
  - { offsetInCU: 0x5385C, offset: 0x6A512, size: 0x8, addend: 0x0, symName: __ZNSt3__122__compressed_pair_elemINS_22__tree_node_destructorINS_9allocatorINS_11__tree_nodeINS_12basic_stringIcNS_11char_traitsIcEENS2_IcEEEEPvEEEEEELi1ELb0EE5__getB8ue170006Ev, symObjAddr: 0xF770, symBinAddr: 0x100018FB4, symSize: 0x14 }
  - { offsetInCU: 0x53882, offset: 0x6A538, size: 0x8, addend: 0x0, symName: __ZNSt3__16__treeINS_12basic_stringIcNS_11char_traitsIcEENS_9allocatorIcEEEENS_4lessIS6_EENS4_IS6_EEE4sizeB8ue170006Ev, symObjAddr: 0xFA00, symBinAddr: 0x100019244, symSize: 0x28 }
  - { offsetInCU: 0x538A8, offset: 0x6A55E, size: 0x8, addend: 0x0, symName: __ZNSt3__116__tree_node_baseIPvE12__set_parentB8ue170006EPS2_, symObjAddr: 0xFBCC, symBinAddr: 0x100019410, symSize: 0x20 }
  - { offsetInCU: 0x538DD, offset: 0x6A593, size: 0x8, addend: 0x0, symName: __ZNSt3__117__compressed_pairImNS_4lessINS_12basic_stringIcNS_11char_traitsIcEENS_9allocatorIcEEEEEEE5firstB8ue170006Ev, symObjAddr: 0xFBEC, symBinAddr: 0x100019430, symSize: 0x24 }
  - { offsetInCU: 0x53903, offset: 0x6A5B9, size: 0x8, addend: 0x0, symName: __ZNSt3__117__compressed_pairIPNS_11__tree_nodeINS_12basic_stringIcNS_11char_traitsIcEENS_9allocatorIcEEEEPvEENS_22__tree_node_destructorINS5_IS9_EEEEE5firstB8ue170006Ev, symObjAddr: 0xFC10, symBinAddr: 0x100019454, symSize: 0x24 }
  - { offsetInCU: 0x53929, offset: 0x6A5DF, size: 0x8, addend: 0x0, symName: __ZNSt3__122__compressed_pair_elemIPNS_11__tree_nodeINS_12basic_stringIcNS_11char_traitsIcEENS_9allocatorIcEEEEPvEELi0ELb0EE5__getB8ue170006Ev, symObjAddr: 0xFC34, symBinAddr: 0x100019478, symSize: 0x14 }
  - { offsetInCU: 0x5394F, offset: 0x6A605, size: 0x8, addend: 0x0, symName: __ZNSt3__110unique_ptrINS_11__tree_nodeINS_12basic_stringIcNS_11char_traitsIcEENS_9allocatorIcEEEEPvEENS_22__tree_node_destructorINS5_IS9_EEEEED2B8ue170006Ev, symObjAddr: 0xFC48, symBinAddr: 0x10001948C, symSize: 0x30 }
  - { offsetInCU: 0x53979, offset: 0x6A62F, size: 0x8, addend: 0x0, symName: __ZNSt3__110unique_ptrINS_11__tree_nodeINS_12basic_stringIcNS_11char_traitsIcEENS_9allocatorIcEEEEPvEENS_22__tree_node_destructorINS5_IS9_EEEEE5resetB8ue170006EPS9_, symObjAddr: 0xFC78, symBinAddr: 0x1000194BC, symSize: 0x78 }
  - { offsetInCU: 0x539BD, offset: 0x6A673, size: 0x8, addend: 0x0, symName: __ZNSt3__122__tree_node_destructorINS_9allocatorINS_11__tree_nodeINS_12basic_stringIcNS_11char_traitsIcEENS1_IcEEEEPvEEEEEclB8ue170006EPS9_, symObjAddr: 0xFCF0, symBinAddr: 0x100019534, symSize: 0x90 }
  - { offsetInCU: 0x539F2, offset: 0x6A6A8, size: 0x8, addend: 0x0, symName: __ZNSt3__116allocator_traitsINS_9allocatorINS_11__tree_nodeINS_12basic_stringIcNS_11char_traitsIcEENS1_IcEEEEPvEEEEE7destroyB8ue170006IS7_vvEEvRSA_PT_, symObjAddr: 0xFD80, symBinAddr: 0x1000195C4, symSize: 0x28 }
  - { offsetInCU: 0x53A2D, offset: 0x6A6E3, size: 0x8, addend: 0x0, symName: __ZNSt3__116allocator_traitsINS_9allocatorINS_11__tree_nodeINS_12basic_stringIcNS_11char_traitsIcEENS1_IcEEEEPvEEEEE10deallocateB8ue170006ERSA_PS9_m, symObjAddr: 0xFDA8, symBinAddr: 0x1000195EC, symSize: 0x34 }
  - { offsetInCU: 0x53A6F, offset: 0x6A725, size: 0x8, addend: 0x0, symName: __ZNSt3__19allocatorINS_11__tree_nodeINS_12basic_stringIcNS_11char_traitsIcEENS0_IcEEEEPvEEE10deallocateB8ue170006EPS8_m, symObjAddr: 0xFDDC, symBinAddr: 0x100019620, symSize: 0x44 }
  - { offsetInCU: 0x53AB1, offset: 0x6A767, size: 0x8, addend: 0x0, symName: __ZNSt3__115__tree_iteratorINS_12basic_stringIcNS_11char_traitsIcEENS_9allocatorIcEEEEPNS_11__tree_nodeIS6_PvEElEC2B8ue170006ESA_, symObjAddr: 0xFE20, symBinAddr: 0x100019664, symSize: 0x20 }
  - { offsetInCU: 0x53AEA, offset: 0x6A7A0, size: 0x8, addend: 0x0, symName: __ZNSt3__14pairINS_15__tree_iteratorINS_12basic_stringIcNS_11char_traitsIcEENS_9allocatorIcEEEEPNS_11__tree_nodeIS7_PvEElEEbEC2B8ue170006ISC_RbLS9_0EEEOT_OT0_, symObjAddr: 0xFE40, symBinAddr: 0x100019684, symSize: 0x38 }
  - { offsetInCU: 0x53B48, offset: 0x6A7FE, size: 0x8, addend: 0x0, symName: __ZNSt3__14pairINS_21__tree_const_iteratorINS_12basic_stringIcNS_11char_traitsIcEENS_9allocatorIcEEEEPNS_11__tree_nodeIS7_PvEElEEbEC2B8ue170006INS_15__tree_iteratorIS7_SB_lEEbLS9_0EEEONS0_IT_T0_EE, symObjAddr: 0xFE78, symBinAddr: 0x1000196BC, symSize: 0x50 }
  - { offsetInCU: 0x53B99, offset: 0x6A84F, size: 0x8, addend: 0x0, symName: __ZNSt3__16vectorINS_12basic_stringIcNS_11char_traitsIcEENS_9allocatorIcEEEENS4_IS6_EEE9push_backB8ue170006ERKS6_, symObjAddr: 0xFEC8, symBinAddr: 0x10001970C, symSize: 0x6C }
  - { offsetInCU: 0x53BD0, offset: 0x6A886, size: 0x8, addend: 0x0, symName: __ZNSt3__16vectorINS_12basic_stringIcNS_11char_traitsIcEENS_9allocatorIcEEEENS4_IS6_EEE22__construct_one_at_endB8ue170006IJRKS6_EEEvDpOT_, symObjAddr: 0xFF34, symBinAddr: 0x100019778, symSize: 0x90 }
  - { offsetInCU: 0x53C1F, offset: 0x6A8D5, size: 0x8, addend: 0x0, symName: __ZNSt3__16vectorINS_12basic_stringIcNS_11char_traitsIcEENS_9allocatorIcEEEENS4_IS6_EEE21__push_back_slow_pathIRKS6_EEvOT_, symObjAddr: 0xFFC4, symBinAddr: 0x100019808, symSize: 0xD8 }
  - { offsetInCU: 0x53C7D, offset: 0x6A933, size: 0x8, addend: 0x0, symName: __ZNSt3__116allocator_traitsINS_9allocatorINS_12basic_stringIcNS_11char_traitsIcEENS1_IcEEEEEEE9constructB8ue170006IS6_JRKS6_EvvEEvRS7_PT_DpOT0_, symObjAddr: 0x1009C, symBinAddr: 0x1000198E0, symSize: 0x30 }
  - { offsetInCU: 0x53CD2, offset: 0x6A988, size: 0x8, addend: 0x0, symName: __ZNKSt3__16vectorINS_12basic_stringIcNS_11char_traitsIcEENS_9allocatorIcEEEENS4_IS6_EEE11__recommendB8ue170006Em, symObjAddr: 0x100CC, symBinAddr: 0x100019910, symSize: 0xB4 }
  - { offsetInCU: 0x53D27, offset: 0x6A9DD, size: 0x8, addend: 0x0, symName: __ZNSt3__114__split_bufferINS_12basic_stringIcNS_11char_traitsIcEENS_9allocatorIcEEEERNS4_IS6_EEEC1EmmS8_, symObjAddr: 0x10180, symBinAddr: 0x1000199C4, symSize: 0x44 }
  - { offsetInCU: 0x53D7D, offset: 0x6AA33, size: 0x8, addend: 0x0, symName: __ZNSt3__114__split_bufferINS_12basic_stringIcNS_11char_traitsIcEENS_9allocatorIcEEEERNS4_IS6_EEED1Ev, symObjAddr: 0x102D4, symBinAddr: 0x100019B18, symSize: 0x2C }
  - { offsetInCU: 0x53DA9, offset: 0x6AA5F, size: 0x8, addend: 0x0, symName: __ZNSt3__114__split_bufferINS_12basic_stringIcNS_11char_traitsIcEENS_9allocatorIcEEEERNS4_IS6_EEEC2EmmS8_, symObjAddr: 0x10300, symBinAddr: 0x100019B44, symSize: 0xE0 }
  - { offsetInCU: 0x53E1C, offset: 0x6AAD2, size: 0x8, addend: 0x0, symName: __ZNSt3__117__compressed_pairIPNS_12basic_stringIcNS_11char_traitsIcEENS_9allocatorIcEEEERNS4_IS6_EEEC1B8ue170006IDnS9_EEOT_OT0_, symObjAddr: 0x103E0, symBinAddr: 0x100019C24, symSize: 0x3C }
  - { offsetInCU: 0x53E74, offset: 0x6AB2A, size: 0x8, addend: 0x0, symName: __ZNSt3__114__split_bufferINS_12basic_stringIcNS_11char_traitsIcEENS_9allocatorIcEEEERNS4_IS6_EEE7__allocB8ue170006Ev, symObjAddr: 0x1041C, symBinAddr: 0x100019C60, symSize: 0x28 }
  - { offsetInCU: 0x53E9A, offset: 0x6AB50, size: 0x8, addend: 0x0, symName: __ZNSt3__114__split_bufferINS_12basic_stringIcNS_11char_traitsIcEENS_9allocatorIcEEEERNS4_IS6_EEE9__end_capB8ue170006Ev, symObjAddr: 0x10444, symBinAddr: 0x100019C88, symSize: 0x28 }
  - { offsetInCU: 0x53EC0, offset: 0x6AB76, size: 0x8, addend: 0x0, symName: __ZNSt3__117__compressed_pairIPNS_12basic_stringIcNS_11char_traitsIcEENS_9allocatorIcEEEERNS4_IS6_EEEC2B8ue170006IDnS9_EEOT_OT0_, symObjAddr: 0x1046C, symBinAddr: 0x100019CB0, symSize: 0x48 }
  - { offsetInCU: 0x53F18, offset: 0x6ABCE, size: 0x8, addend: 0x0, symName: __ZNSt3__122__compressed_pair_elemIRNS_9allocatorINS_12basic_stringIcNS_11char_traitsIcEENS1_IcEEEEEELi1ELb0EEC2B8ue170006IS8_vEEOT_, symObjAddr: 0x104B4, symBinAddr: 0x100019CF8, symSize: 0x20 }
  - { offsetInCU: 0x53F5A, offset: 0x6AC10, size: 0x8, addend: 0x0, symName: __ZNSt3__117__compressed_pairIPNS_12basic_stringIcNS_11char_traitsIcEENS_9allocatorIcEEEERNS4_IS6_EEE6secondB8ue170006Ev, symObjAddr: 0x104D4, symBinAddr: 0x100019D18, symSize: 0x28 }
  - { offsetInCU: 0x53F80, offset: 0x6AC36, size: 0x8, addend: 0x0, symName: __ZNSt3__122__compressed_pair_elemIRNS_9allocatorINS_12basic_stringIcNS_11char_traitsIcEENS1_IcEEEEEELi1ELb0EE5__getB8ue170006Ev, symObjAddr: 0x104FC, symBinAddr: 0x100019D40, symSize: 0x18 }
  - { offsetInCU: 0x53FA6, offset: 0x6AC5C, size: 0x8, addend: 0x0, symName: __ZNSt3__117__compressed_pairIPNS_12basic_stringIcNS_11char_traitsIcEENS_9allocatorIcEEEERNS4_IS6_EEE5firstB8ue170006Ev, symObjAddr: 0x10514, symBinAddr: 0x100019D58, symSize: 0x24 }
  - { offsetInCU: 0x53FCC, offset: 0x6AC82, size: 0x8, addend: 0x0, symName: __ZNSt3__129_AllocatorDestroyRangeReverseINS_9allocatorINS_12basic_stringIcNS_11char_traitsIcEENS1_IcEEEEEENS_16reverse_iteratorIPS6_EEEC1B8ue170006ERS7_RSA_SD_, symObjAddr: 0x106E4, symBinAddr: 0x100019F28, symSize: 0x44 }
  - { offsetInCU: 0x54028, offset: 0x6ACDE, size: 0x8, addend: 0x0, symName: __ZNSt3__116allocator_traitsINS_9allocatorINS_12basic_stringIcNS_11char_traitsIcEENS1_IcEEEEEEE9constructB8ue170006IS6_JS6_EvvEEvRS7_PT_DpOT0_, symObjAddr: 0x10728, symBinAddr: 0x100019F6C, symSize: 0x30 }
  - { offsetInCU: 0x5407D, offset: 0x6AD33, size: 0x8, addend: 0x0, symName: __ZNKSt3__116reverse_iteratorIPNS_12basic_stringIcNS_11char_traitsIcEENS_9allocatorIcEEEEEdeB8ue170006Ev, symObjAddr: 0x10758, symBinAddr: 0x100019F9C, symSize: 0x28 }
  - { offsetInCU: 0x540B1, offset: 0x6AD67, size: 0x8, addend: 0x0, symName: __ZNSt3__128__exception_guard_exceptionsINS_29_AllocatorDestroyRangeReverseINS_9allocatorINS_12basic_stringIcNS_11char_traitsIcEENS2_IcEEEEEENS_16reverse_iteratorIPS7_EEEEE10__completeB8ue170006Ev, symObjAddr: 0x10780, symBinAddr: 0x100019FC4, symSize: 0x1C }
  - { offsetInCU: 0x540D7, offset: 0x6AD8D, size: 0x8, addend: 0x0, symName: __ZNSt3__128__exception_guard_exceptionsINS_29_AllocatorDestroyRangeReverseINS_9allocatorINS_12basic_stringIcNS_11char_traitsIcEENS2_IcEEEEEENS_16reverse_iteratorIPS7_EEEEED1B8ue170006Ev, symObjAddr: 0x1079C, symBinAddr: 0x100019FE0, symSize: 0x2C }
  - { offsetInCU: 0x54101, offset: 0x6ADB7, size: 0x8, addend: 0x0, symName: __ZNSt3__128__exception_guard_exceptionsINS_29_AllocatorDestroyRangeReverseINS_9allocatorINS_12basic_stringIcNS_11char_traitsIcEENS2_IcEEEEEENS_16reverse_iteratorIPS7_EEEEEC1B8ue170006ESC_, symObjAddr: 0x107C8, symBinAddr: 0x10001A00C, symSize: 0x34 }
  - { offsetInCU: 0x5413A, offset: 0x6ADF0, size: 0x8, addend: 0x0, symName: __ZNSt3__128__exception_guard_exceptionsINS_29_AllocatorDestroyRangeReverseINS_9allocatorINS_12basic_stringIcNS_11char_traitsIcEENS2_IcEEEEEENS_16reverse_iteratorIPS7_EEEEEC2B8ue170006ESC_, symObjAddr: 0x107FC, symBinAddr: 0x10001A040, symSize: 0x30 }
  - { offsetInCU: 0x54173, offset: 0x6AE29, size: 0x8, addend: 0x0, symName: __ZNSt3__129_AllocatorDestroyRangeReverseINS_9allocatorINS_12basic_stringIcNS_11char_traitsIcEENS1_IcEEEEEENS_16reverse_iteratorIPS6_EEEC2B8ue170006ERS7_RSA_SD_, symObjAddr: 0x1082C, symBinAddr: 0x10001A070, symSize: 0x38 }
  - { offsetInCU: 0x541CA, offset: 0x6AE80, size: 0x8, addend: 0x0, symName: __ZNSt3__128__exception_guard_exceptionsINS_29_AllocatorDestroyRangeReverseINS_9allocatorINS_12basic_stringIcNS_11char_traitsIcEENS2_IcEEEEEENS_16reverse_iteratorIPS7_EEEEED2B8ue170006Ev, symObjAddr: 0x1091C, symBinAddr: 0x10001A0E4, symSize: 0x50 }
  - { offsetInCU: 0x541F4, offset: 0x6AEAA, size: 0x8, addend: 0x0, symName: __ZNKSt3__129_AllocatorDestroyRangeReverseINS_9allocatorINS_12basic_stringIcNS_11char_traitsIcEENS1_IcEEEEEENS_16reverse_iteratorIPS6_EEEclB8ue170006Ev, symObjAddr: 0x1096C, symBinAddr: 0x10001A134, symSize: 0xB4 }
  - { offsetInCU: 0x5421B, offset: 0x6AED1, size: 0x8, addend: 0x0, symName: __ZNSt3__116reverse_iteratorINS0_IPNS_12basic_stringIcNS_11char_traitsIcEENS_9allocatorIcEEEEEEEC1B8ue170006ES8_, symObjAddr: 0x10A90, symBinAddr: 0x10001A258, symSize: 0x3C }
  - { offsetInCU: 0x54253, offset: 0x6AF09, size: 0x8, addend: 0x0, symName: __ZNSt3__116reverse_iteratorINS0_IPNS_12basic_stringIcNS_11char_traitsIcEENS_9allocatorIcEEEEEEEppB8ue170006Ev, symObjAddr: 0x10B50, symBinAddr: 0x10001A318, symSize: 0x30 }
  - { offsetInCU: 0x54279, offset: 0x6AF2F, size: 0x8, addend: 0x0, symName: __ZNKSt3__116reverse_iteratorINS0_IPNS_12basic_stringIcNS_11char_traitsIcEENS_9allocatorIcEEEEEEE4baseB8ue170006Ev, symObjAddr: 0x10B80, symBinAddr: 0x10001A348, symSize: 0x24 }
  - { offsetInCU: 0x542A4, offset: 0x6AF5A, size: 0x8, addend: 0x0, symName: __ZNSt3__119__to_address_helperINS_16reverse_iteratorINS1_IPNS_12basic_stringIcNS_11char_traitsIcEENS_9allocatorIcEEEEEEEEvE6__callB8ue170006ERKSA_, symObjAddr: 0x10BA4, symBinAddr: 0x10001A36C, symSize: 0x38 }
  - { offsetInCU: 0x542C7, offset: 0x6AF7D, size: 0x8, addend: 0x0, symName: __ZNKSt3__116reverse_iteratorINS0_IPNS_12basic_stringIcNS_11char_traitsIcEENS_9allocatorIcEEEEEEEptB8ue170006Ev, symObjAddr: 0x10BDC, symBinAddr: 0x10001A3A4, symSize: 0x4C }
  - { offsetInCU: 0x542ED, offset: 0x6AFA3, size: 0x8, addend: 0x0, symName: __ZNSt3__116reverse_iteratorIPNS_12basic_stringIcNS_11char_traitsIcEENS_9allocatorIcEEEEEpLB8ue170006El, symObjAddr: 0x10CD8, symBinAddr: 0x10001A4A0, symSize: 0x30 }
  - { offsetInCU: 0x54321, offset: 0x6AFD7, size: 0x8, addend: 0x0, symName: __ZNSt3__116reverse_iteratorIPNS_12basic_stringIcNS_11char_traitsIcEENS_9allocatorIcEEEEEmmB8ue170006Ev, symObjAddr: 0x10D08, symBinAddr: 0x10001A4D0, symSize: 0x20 }
  - { offsetInCU: 0x54347, offset: 0x6AFFD, size: 0x8, addend: 0x0, symName: __ZNSt3__116reverse_iteratorINS0_IPNS_12basic_stringIcNS_11char_traitsIcEENS_9allocatorIcEEEEEEEC2B8ue170006ES8_, symObjAddr: 0x10D28, symBinAddr: 0x10001A4F0, symSize: 0x2C }
  - { offsetInCU: 0x5437F, offset: 0x6B035, size: 0x8, addend: 0x0, symName: __ZNSt3__114__split_bufferINS_12basic_stringIcNS_11char_traitsIcEENS_9allocatorIcEEEERNS4_IS6_EEED2Ev, symObjAddr: 0x10D54, symBinAddr: 0x10001A51C, symSize: 0x8C }
  - { offsetInCU: 0x543AB, offset: 0x6B061, size: 0x8, addend: 0x0, symName: __ZNSt3__114__split_bufferINS_12basic_stringIcNS_11char_traitsIcEENS_9allocatorIcEEEERNS4_IS6_EEE5clearB8ue170006Ev, symObjAddr: 0x10DE0, symBinAddr: 0x10001A5A8, symSize: 0x28 }
  - { offsetInCU: 0x543D1, offset: 0x6B087, size: 0x8, addend: 0x0, symName: __ZNKSt3__114__split_bufferINS_12basic_stringIcNS_11char_traitsIcEENS_9allocatorIcEEEERNS4_IS6_EEE8capacityB8ue170006Ev, symObjAddr: 0x10E08, symBinAddr: 0x10001A5D0, symSize: 0x40 }
  - { offsetInCU: 0x543F7, offset: 0x6B0AD, size: 0x8, addend: 0x0, symName: __ZNSt3__114__split_bufferINS_12basic_stringIcNS_11char_traitsIcEENS_9allocatorIcEEEERNS4_IS6_EEE17__destruct_at_endB8ue170006EPS6_, symObjAddr: 0x10E48, symBinAddr: 0x10001A610, symSize: 0x2C }
  - { offsetInCU: 0x5442B, offset: 0x6B0E1, size: 0x8, addend: 0x0, symName: __ZNSt3__114__split_bufferINS_12basic_stringIcNS_11char_traitsIcEENS_9allocatorIcEEEERNS4_IS6_EEE17__destruct_at_endB8ue170006EPS6_NS_17integral_constantIbLb0EEE, symObjAddr: 0x10E74, symBinAddr: 0x10001A63C, symSize: 0x80 }
  - { offsetInCU: 0x5446B, offset: 0x6B121, size: 0x8, addend: 0x0, symName: __ZNKSt3__114__split_bufferINS_12basic_stringIcNS_11char_traitsIcEENS_9allocatorIcEEEERNS4_IS6_EEE9__end_capB8ue170006Ev, symObjAddr: 0x10EF4, symBinAddr: 0x10001A6BC, symSize: 0x28 }
  - { offsetInCU: 0x54491, offset: 0x6B147, size: 0x8, addend: 0x0, symName: __ZNKSt3__117__compressed_pairIPNS_12basic_stringIcNS_11char_traitsIcEENS_9allocatorIcEEEERNS4_IS6_EEE5firstB8ue170006Ev, symObjAddr: 0x10F1C, symBinAddr: 0x10001A6E4, symSize: 0x24 }
  - { offsetInCU: 0x544B7, offset: 0x6B16D, size: 0x8, addend: 0x0, symName: __ZNSt3__110shared_ptrI7ASTNodeED2B8ue170006Ev, symObjAddr: 0x10F40, symBinAddr: 0x10001A708, symSize: 0x54 }
  - { offsetInCU: 0x544E1, offset: 0x6B197, size: 0x8, addend: 0x0, symName: __ZNSt3__119__shared_weak_count16__release_sharedB8ue170006Ev, symObjAddr: 0x10F94, symBinAddr: 0x10001A75C, symSize: 0x3C }
  - { offsetInCU: 0x54507, offset: 0x6B1BD, size: 0x8, addend: 0x0, symName: __ZNSt3__114__shared_count16__release_sharedB8ue170006Ev, symObjAddr: 0x10FD0, symBinAddr: 0x10001A798, symSize: 0x7C }
  - { offsetInCU: 0x5452D, offset: 0x6B1E3, size: 0x8, addend: 0x0, symName: __ZNSt3__110shared_ptrI17VariableContainerED2B8ue170006Ev, symObjAddr: 0x1107C, symBinAddr: 0x10001A844, symSize: 0x54 }
  - { offsetInCU: 0x54557, offset: 0x6B20D, size: 0x8, addend: 0x0, symName: __ZNSt3__13anyC2B8ue170006IRNS_12basic_stringIcNS_11char_traitsIcEENS_9allocatorIcEEEES7_vEEOT_, symObjAddr: 0x110D0, symBinAddr: 0x10001A898, symSize: 0x44 }
  - { offsetInCU: 0x545A3, offset: 0x6B259, size: 0x8, addend: 0x0, symName: __ZNSt3__13any8_StorageC1B8ue170006Ev, symObjAddr: 0x11114, symBinAddr: 0x10001A8DC, symSize: 0x2C }
  - { offsetInCU: 0x545CD, offset: 0x6B283, size: 0x8, addend: 0x0, symName: __ZNSt3__19__any_imp13_SmallHandlerINS_12basic_stringIcNS_11char_traitsIcEENS_9allocatorIcEEEEE8__createB8ue170006IJRS7_EEESA_RNS_3anyEDpOT_, symObjAddr: 0x11140, symBinAddr: 0x10001A908, symSize: 0x5C }
  - { offsetInCU: 0x54635, offset: 0x6B2EB, size: 0x8, addend: 0x0, symName: __ZNSt3__13any8_StorageC2B8ue170006Ev, symObjAddr: 0x1119C, symBinAddr: 0x10001A964, symSize: 0x18 }
  - { offsetInCU: 0x5465F, offset: 0x6B315, size: 0x8, addend: 0x0, symName: __ZNSt3__19allocatorINS_12basic_stringIcNS_11char_traitsIcEENS0_IcEEEEEC1B8ue170006Ev, symObjAddr: 0x111B4, symBinAddr: 0x10001A97C, symSize: 0x2C }
  - { offsetInCU: 0x54689, offset: 0x6B33F, size: 0x8, addend: 0x0, symName: __ZNSt3__19__any_imp13_SmallHandlerINS_12basic_stringIcNS_11char_traitsIcEENS_9allocatorIcEEEEE8__handleB8ue170006ENS0_7_ActionEPKNS_3anyEPSA_PKSt9type_infoPKv, symObjAddr: 0x111E0, symBinAddr: 0x10001A9A8, symSize: 0xC4 }
  - { offsetInCU: 0x546E9, offset: 0x6B39F, size: 0x8, addend: 0x0, symName: __ZNSt3__19allocatorINS_12basic_stringIcNS_11char_traitsIcEENS0_IcEEEEEC2B8ue170006Ev, symObjAddr: 0x112B8, symBinAddr: 0x10001AA80, symSize: 0x2C }
  - { offsetInCU: 0x54713, offset: 0x6B3C9, size: 0x8, addend: 0x0, symName: __ZNSt3__116__non_trivial_ifILb1ENS_9allocatorINS_12basic_stringIcNS_11char_traitsIcEENS1_IcEEEEEEEC2B8ue170006Ev, symObjAddr: 0x112E4, symBinAddr: 0x10001AAAC, symSize: 0x14 }
  - { offsetInCU: 0x5473D, offset: 0x6B3F3, size: 0x8, addend: 0x0, symName: __ZNSt3__19__any_imp13_SmallHandlerINS_12basic_stringIcNS_11char_traitsIcEENS_9allocatorIcEEEEE9__destroyB8ue170006ERNS_3anyE, symObjAddr: 0x112F8, symBinAddr: 0x10001AAC0, symSize: 0x48 }
  - { offsetInCU: 0x5478B, offset: 0x6B441, size: 0x8, addend: 0x0, symName: __ZNSt3__19__any_imp13_SmallHandlerINS_12basic_stringIcNS_11char_traitsIcEENS_9allocatorIcEEEEE6__copyB8ue170006ERKNS_3anyERS9_, symObjAddr: 0x11340, symBinAddr: 0x10001AB08, symSize: 0x30 }
  - { offsetInCU: 0x547BE, offset: 0x6B474, size: 0x8, addend: 0x0, symName: __ZNSt3__19__any_imp13_SmallHandlerINS_12basic_stringIcNS_11char_traitsIcEENS_9allocatorIcEEEEE6__moveB8ue170006ERNS_3anyESA_, symObjAddr: 0x11370, symBinAddr: 0x10001AB38, symSize: 0x38 }
  - { offsetInCU: 0x547F1, offset: 0x6B4A7, size: 0x8, addend: 0x0, symName: __ZNSt3__19__any_imp13_SmallHandlerINS_12basic_stringIcNS_11char_traitsIcEENS_9allocatorIcEEEEE5__getB8ue170006ERNS_3anyEPKSt9type_infoPKv, symObjAddr: 0x113A8, symBinAddr: 0x10001AB70, symSize: 0x54 }
  - { offsetInCU: 0x54833, offset: 0x6B4E9, size: 0x8, addend: 0x0, symName: __ZNSt3__19__any_imp13_SmallHandlerINS_12basic_stringIcNS_11char_traitsIcEENS_9allocatorIcEEEEE11__type_infoB8ue170006Ev, symObjAddr: 0x113FC, symBinAddr: 0x10001ABC4, symSize: 0xC }
  - { offsetInCU: 0x54847, offset: 0x6B4FD, size: 0x8, addend: 0x0, symName: __ZNSt3__19__any_imp13_SmallHandlerINS_12basic_stringIcNS_11char_traitsIcEENS_9allocatorIcEEEEE8__createB8ue170006IJRKS7_EEERS7_RNS_3anyEDpOT_, symObjAddr: 0x1140C, symBinAddr: 0x10001ABD4, symSize: 0x5C }
  - { offsetInCU: 0x548AF, offset: 0x6B565, size: 0x8, addend: 0x0, symName: __ZNSt3__19__any_imp13_SmallHandlerINS_12basic_stringIcNS_11char_traitsIcEENS_9allocatorIcEEEEE8__createB8ue170006IJS7_EEERS7_RNS_3anyEDpOT_, symObjAddr: 0x11468, symBinAddr: 0x10001AC30, symSize: 0x5C }
  - { offsetInCU: 0x54917, offset: 0x6B5CD, size: 0x8, addend: 0x0, symName: __ZNSt3__13anyC2B8ue170006IRiivEEOT_, symObjAddr: 0x11588, symBinAddr: 0x10001AD50, symSize: 0x44 }
  - { offsetInCU: 0x54963, offset: 0x6B619, size: 0x8, addend: 0x0, symName: __ZNSt3__19__any_imp13_SmallHandlerIiE8__createB8ue170006IJRiEEES4_RNS_3anyEDpOT_, symObjAddr: 0x115CC, symBinAddr: 0x10001AD94, symSize: 0x5C }
  - { offsetInCU: 0x549CB, offset: 0x6B681, size: 0x8, addend: 0x0, symName: __ZNSt3__19allocatorIiEC1B8ue170006Ev, symObjAddr: 0x11628, symBinAddr: 0x10001ADF0, symSize: 0x2C }
  - { offsetInCU: 0x549F5, offset: 0x6B6AB, size: 0x8, addend: 0x0, symName: __ZNSt3__116allocator_traitsINS_9allocatorIiEEE9constructB8ue170006IiJRiEvvEEvRS2_PT_DpOT0_, symObjAddr: 0x11654, symBinAddr: 0x10001AE1C, symSize: 0x30 }
  - { offsetInCU: 0x54A4A, offset: 0x6B700, size: 0x8, addend: 0x0, symName: __ZNSt3__19__any_imp13_SmallHandlerIiE8__handleB8ue170006ENS0_7_ActionEPKNS_3anyEPS4_PKSt9type_infoPKv, symObjAddr: 0x11684, symBinAddr: 0x10001AE4C, symSize: 0xC4 }
  - { offsetInCU: 0x54AAA, offset: 0x6B760, size: 0x8, addend: 0x0, symName: __ZNSt3__19allocatorIiEC2B8ue170006Ev, symObjAddr: 0x1175C, symBinAddr: 0x10001AF24, symSize: 0x2C }
  - { offsetInCU: 0x54AD4, offset: 0x6B78A, size: 0x8, addend: 0x0, symName: __ZNSt3__116__non_trivial_ifILb1ENS_9allocatorIiEEEC2B8ue170006Ev, symObjAddr: 0x11788, symBinAddr: 0x10001AF50, symSize: 0x14 }
  - { offsetInCU: 0x54AFE, offset: 0x6B7B4, size: 0x8, addend: 0x0, symName: __ZNSt3__19__any_imp13_SmallHandlerIiE9__destroyB8ue170006ERNS_3anyE, symObjAddr: 0x117C8, symBinAddr: 0x10001AF90, symSize: 0x48 }
  - { offsetInCU: 0x54B4C, offset: 0x6B802, size: 0x8, addend: 0x0, symName: __ZNSt3__19__any_imp13_SmallHandlerIiE6__copyB8ue170006ERKNS_3anyERS3_, symObjAddr: 0x11810, symBinAddr: 0x10001AFD8, symSize: 0x30 }
  - { offsetInCU: 0x54B7F, offset: 0x6B835, size: 0x8, addend: 0x0, symName: __ZNSt3__19__any_imp13_SmallHandlerIiE6__moveB8ue170006ERNS_3anyES4_, symObjAddr: 0x11840, symBinAddr: 0x10001B008, symSize: 0x38 }
  - { offsetInCU: 0x54BB2, offset: 0x6B868, size: 0x8, addend: 0x0, symName: __ZNSt3__19__any_imp13_SmallHandlerIiE5__getB8ue170006ERNS_3anyEPKSt9type_infoPKv, symObjAddr: 0x11878, symBinAddr: 0x10001B040, symSize: 0x54 }
  - { offsetInCU: 0x54BF4, offset: 0x6B8AA, size: 0x8, addend: 0x0, symName: __ZNSt3__19__any_imp13_SmallHandlerIiE11__type_infoB8ue170006Ev, symObjAddr: 0x118CC, symBinAddr: 0x10001B094, symSize: 0xC }
  - { offsetInCU: 0x54C0D, offset: 0x6B8C3, size: 0x8, addend: 0x0, symName: __ZNSt3__19__any_imp13_SmallHandlerIiE8__createB8ue170006IJRKiEEERiRNS_3anyEDpOT_, symObjAddr: 0x118D8, symBinAddr: 0x10001B0A0, symSize: 0x5C }
  - { offsetInCU: 0x54C75, offset: 0x6B92B, size: 0x8, addend: 0x0, symName: __ZNSt3__116allocator_traitsINS_9allocatorIiEEE9constructB8ue170006IiJRKiEvvEEvRS2_PT_DpOT0_, symObjAddr: 0x11934, symBinAddr: 0x10001B0FC, symSize: 0x30 }
  - { offsetInCU: 0x54CCA, offset: 0x6B980, size: 0x8, addend: 0x0, symName: __ZNSt3__19__any_imp13_SmallHandlerIiE8__createB8ue170006IJiEEERiRNS_3anyEDpOT_, symObjAddr: 0x11990, symBinAddr: 0x10001B158, symSize: 0x5C }
  - { offsetInCU: 0x54D32, offset: 0x6B9E8, size: 0x8, addend: 0x0, symName: __ZNSt3__116allocator_traitsINS_9allocatorIiEEE9constructB8ue170006IiJiEvvEEvRS2_PT_DpOT0_, symObjAddr: 0x119EC, symBinAddr: 0x10001B1B4, symSize: 0x30 }
  - { offsetInCU: 0x54D87, offset: 0x6BA3D, size: 0x8, addend: 0x0, symName: __ZNSt3__110shared_ptrI7ASTNodeE4swapB8ue170006ERS2_, symObjAddr: 0x11B0C, symBinAddr: 0x10001B2D4, symSize: 0x44 }
  - { offsetInCU: 0x54DBC, offset: 0x6BA72, size: 0x8, addend: 0x0, symName: __ZNKSt3__110shared_ptrI7ASTNodeE3getB8ue170006Ev, symObjAddr: 0x11BC8, symBinAddr: 0x10001B390, symSize: 0x18 }
  - { offsetInCU: 0x54DE2, offset: 0x6BA98, size: 0x8, addend: 0x0, symName: __ZNSt3__110shared_ptrI30FunctionVariableDefinitionNodeEC1B8ue170006I7ASTNodeEERKNS0_IT_EEPS1_, symObjAddr: 0x11BE0, symBinAddr: 0x10001B3A8, symSize: 0x3C }
  - { offsetInCU: 0x54E33, offset: 0x6BAE9, size: 0x8, addend: 0x0, symName: __ZNSt3__110shared_ptrI30FunctionVariableDefinitionNodeEC1B8ue170006Ev, symObjAddr: 0x11C1C, symBinAddr: 0x10001B3E4, symSize: 0x2C }
  - { offsetInCU: 0x54E5D, offset: 0x6BB13, size: 0x8, addend: 0x0, symName: __ZNSt3__110shared_ptrI30FunctionVariableDefinitionNodeEC2B8ue170006I7ASTNodeEERKNS0_IT_EEPS1_, symObjAddr: 0x11C48, symBinAddr: 0x10001B410, symSize: 0x70 }
  - { offsetInCU: 0x54EAE, offset: 0x6BB64, size: 0x8, addend: 0x0, symName: __ZNSt3__110shared_ptrI30FunctionVariableDefinitionNodeEC2B8ue170006Ev, symObjAddr: 0x11CB8, symBinAddr: 0x10001B480, symSize: 0x1C }
  - { offsetInCU: 0x54ED8, offset: 0x6BB8E, size: 0x8, addend: 0x0, symName: __ZNSt3__110shared_ptrI30FunctionVariableDefinitionNodeED2B8ue170006Ev, symObjAddr: 0x11CD4, symBinAddr: 0x10001B49C, symSize: 0x54 }
  - { offsetInCU: 0x54F02, offset: 0x6BBB8, size: 0x8, addend: 0x0, symName: __ZNSt3__110shared_ptrI9ValueNodeED2B8ue170006Ev, symObjAddr: 0x11D28, symBinAddr: 0x10001B4F0, symSize: 0x54 }
  - { offsetInCU: 0x54F2C, offset: 0x6BBE2, size: 0x8, addend: 0x0, symName: __ZNSt3__110shared_ptrI3MapED2B8ue170006Ev, symObjAddr: 0x11D7C, symBinAddr: 0x10001B544, symSize: 0x54 }
  - { offsetInCU: 0x54F56, offset: 0x6BC0C, size: 0x8, addend: 0x0, symName: __ZNSt3__110shared_ptrI5RobotED2B8ue170006Ev, symObjAddr: 0x11DD0, symBinAddr: 0x10001B598, symSize: 0x54 }
  - { offsetInCU: 0x54F80, offset: 0x6BC36, size: 0x8, addend: 0x0, symName: __ZNSt3__19allocatorI17VariableContainerEC1B8ue170006Ev, symObjAddr: 0x11EB4, symBinAddr: 0x10001B67C, symSize: 0x2C }
  - { offsetInCU: 0x54FD7, offset: 0x6BC8D, size: 0x8, addend: 0x0, symName: __ZNSt3__118__allocation_guardINS_9allocatorINS_20__shared_ptr_emplaceI17VariableContainerNS1_IS3_EEEEEEEC1B8ue170006IS4_EET_m, symObjAddr: 0x11EE0, symBinAddr: 0x10001B6A8, symSize: 0x34 }
  - { offsetInCU: 0x55026, offset: 0x6BCDC, size: 0x8, addend: 0x0, symName: __ZNKSt3__118__allocation_guardINS_9allocatorINS_20__shared_ptr_emplaceI17VariableContainerNS1_IS3_EEEEEEE5__getB8ue170006Ev, symObjAddr: 0x11F14, symBinAddr: 0x10001B6DC, symSize: 0x18 }
  - { offsetInCU: 0x5504C, offset: 0x6BD02, size: 0x8, addend: 0x0, symName: __ZNSt3__120__shared_ptr_emplaceI17VariableContainerNS_9allocatorIS1_EEEC1B8ue170006IJEEES3_DpOT_, symObjAddr: 0x11F2C, symBinAddr: 0x10001B6F4, symSize: 0x2C }
  - { offsetInCU: 0x5508A, offset: 0x6BD40, size: 0x8, addend: 0x0, symName: __ZNSt3__118__allocation_guardINS_9allocatorINS_20__shared_ptr_emplaceI17VariableContainerNS1_IS3_EEEEEEE13__release_ptrB8ue170006Ev, symObjAddr: 0x11F58, symBinAddr: 0x10001B720, symSize: 0x24 }
  - { offsetInCU: 0x550BE, offset: 0x6BD74, size: 0x8, addend: 0x0, symName: __ZNSt3__110shared_ptrI17VariableContainerE27__create_with_control_blockB8ue170006IS1_NS_20__shared_ptr_emplaceIS1_NS_9allocatorIS1_EEEEEES2_PT_PT0_, symObjAddr: 0x11F7C, symBinAddr: 0x10001B744, symSize: 0xA4 }
  - { offsetInCU: 0x55113, offset: 0x6BDC9, size: 0x8, addend: 0x0, symName: __ZNSt3__120__shared_ptr_emplaceI17VariableContainerNS_9allocatorIS1_EEE10__get_elemB8ue170006Ev, symObjAddr: 0x12020, symBinAddr: 0x10001B7E8, symSize: 0x28 }
  - { offsetInCU: 0x55139, offset: 0x6BDEF, size: 0x8, addend: 0x0, symName: __ZNSt3__118__allocation_guardINS_9allocatorINS_20__shared_ptr_emplaceI17VariableContainerNS1_IS3_EEEEEEED1B8ue170006Ev, symObjAddr: 0x12048, symBinAddr: 0x10001B810, symSize: 0x2C }
  - { offsetInCU: 0x55163, offset: 0x6BE19, size: 0x8, addend: 0x0, symName: __ZNSt3__118__allocation_guardINS_9allocatorINS_20__shared_ptr_emplaceI17VariableContainerNS1_IS3_EEEEEEEC2B8ue170006IS4_EET_m, symObjAddr: 0x12074, symBinAddr: 0x10001B83C, symSize: 0x50 }
  - { offsetInCU: 0x551B2, offset: 0x6BE68, size: 0x8, addend: 0x0, symName: __ZNSt3__19allocatorINS_20__shared_ptr_emplaceI17VariableContainerNS0_IS2_EEEEEC1B8ue170006IS2_EERKNS0_IT_EE, symObjAddr: 0x120C4, symBinAddr: 0x10001B88C, symSize: 0x34 }
  - { offsetInCU: 0x551EF, offset: 0x6BEA5, size: 0x8, addend: 0x0, symName: __ZNSt3__116allocator_traitsINS_9allocatorINS_20__shared_ptr_emplaceI17VariableContainerNS1_IS3_EEEEEEE8allocateB8ue170006ERS6_m, symObjAddr: 0x120F8, symBinAddr: 0x10001B8C0, symSize: 0x2C }
  - { offsetInCU: 0x55222, offset: 0x6BED8, size: 0x8, addend: 0x0, symName: __ZNSt3__19allocatorINS_20__shared_ptr_emplaceI17VariableContainerNS0_IS2_EEEEEC2B8ue170006IS2_EERKNS0_IT_EE, symObjAddr: 0x12124, symBinAddr: 0x10001B8EC, symSize: 0x30 }
  - { offsetInCU: 0x5525F, offset: 0x6BF15, size: 0x8, addend: 0x0, symName: __ZNSt3__116__non_trivial_ifILb1ENS_9allocatorINS_20__shared_ptr_emplaceI17VariableContainerNS1_IS3_EEEEEEEC2B8ue170006Ev, symObjAddr: 0x12154, symBinAddr: 0x10001B91C, symSize: 0x14 }
  - { offsetInCU: 0x55289, offset: 0x6BF3F, size: 0x8, addend: 0x0, symName: __ZNSt3__19allocatorINS_20__shared_ptr_emplaceI17VariableContainerNS0_IS2_EEEEE8allocateB8ue170006Em, symObjAddr: 0x12168, symBinAddr: 0x10001B930, symSize: 0x5C }
  - { offsetInCU: 0x552C7, offset: 0x6BF7D, size: 0x8, addend: 0x0, symName: __ZNSt3__116allocator_traitsINS_9allocatorINS_20__shared_ptr_emplaceI17VariableContainerNS1_IS3_EEEEEEE8max_sizeB8ue170006IS6_vvEEmRKS6_, symObjAddr: 0x121C4, symBinAddr: 0x10001B98C, symSize: 0x28 }
  - { offsetInCU: 0x552F3, offset: 0x6BFA9, size: 0x8, addend: 0x0, symName: __ZNSt3__120__shared_ptr_emplaceI17VariableContainerNS_9allocatorIS1_EEEC2B8ue170006IJEEES3_DpOT_, symObjAddr: 0x121EC, symBinAddr: 0x10001B9B4, symSize: 0xC0 }
  - { offsetInCU: 0x55352, offset: 0x6C008, size: 0x8, addend: 0x0, symName: __ZNSt3__119__shared_weak_countC2B8ue170006El, symObjAddr: 0x122AC, symBinAddr: 0x10001BA74, symSize: 0x54 }
  - { offsetInCU: 0x5538A, offset: 0x6C040, size: 0x8, addend: 0x0, symName: __ZNSt3__120__shared_ptr_emplaceI17VariableContainerNS_9allocatorIS1_EEE8_StorageC1B8ue170006EOS3_, symObjAddr: 0x12300, symBinAddr: 0x10001BAC8, symSize: 0x34 }
  - { offsetInCU: 0x553C3, offset: 0x6C079, size: 0x8, addend: 0x0, symName: __ZNSt3__120__shared_ptr_emplaceI17VariableContainerNS_9allocatorIS1_EEE11__get_allocB8ue170006Ev, symObjAddr: 0x12334, symBinAddr: 0x10001BAFC, symSize: 0x28 }
  - { offsetInCU: 0x553EE, offset: 0x6C0A4, size: 0x8, addend: 0x0, symName: __ZNSt3__116allocator_traitsINS_9allocatorI17VariableContainerEEE9constructB8ue170006IS2_JEvvEEvRS3_PT_DpOT0_, symObjAddr: 0x1235C, symBinAddr: 0x10001BB24, symSize: 0x28 }
  - { offsetInCU: 0x5542E, offset: 0x6C0E4, size: 0x8, addend: 0x0, symName: __ZNSt3__120__shared_ptr_emplaceI17VariableContainerNS_9allocatorIS1_EEE8_StorageD1B8ue170006Ev, symObjAddr: 0x12384, symBinAddr: 0x10001BB4C, symSize: 0x2C }
  - { offsetInCU: 0x55458, offset: 0x6C10E, size: 0x8, addend: 0x0, symName: __ZNSt3__120__shared_ptr_emplaceI17VariableContainerNS_9allocatorIS1_EEED1Ev, symObjAddr: 0x123B0, symBinAddr: 0x10001BB78, symSize: 0x2C }
  - { offsetInCU: 0x55485, offset: 0x6C13B, size: 0x8, addend: 0x0, symName: __ZNSt3__120__shared_ptr_emplaceI17VariableContainerNS_9allocatorIS1_EEED0Ev, symObjAddr: 0x123DC, symBinAddr: 0x10001BBA4, symSize: 0x30 }
  - { offsetInCU: 0x554B2, offset: 0x6C168, size: 0x8, addend: 0x0, symName: __ZNSt3__120__shared_ptr_emplaceI17VariableContainerNS_9allocatorIS1_EEE16__on_zero_sharedEv, symObjAddr: 0x1240C, symBinAddr: 0x10001BBD4, symSize: 0x44 }
  - { offsetInCU: 0x554F9, offset: 0x6C1AF, size: 0x8, addend: 0x0, symName: __ZNSt3__120__shared_ptr_emplaceI17VariableContainerNS_9allocatorIS1_EEE21__on_zero_shared_weakEv, symObjAddr: 0x12450, symBinAddr: 0x10001BC18, symSize: 0x5C }
  - { offsetInCU: 0x5553A, offset: 0x6C1F0, size: 0x8, addend: 0x0, symName: __ZNSt3__114__shared_countC2B8ue170006El, symObjAddr: 0x124AC, symBinAddr: 0x10001BC74, symSize: 0x30 }
  - { offsetInCU: 0x55572, offset: 0x6C228, size: 0x8, addend: 0x0, symName: __ZNSt3__120__shared_ptr_emplaceI17VariableContainerNS_9allocatorIS1_EEE8_StorageC2B8ue170006EOS3_, symObjAddr: 0x124DC, symBinAddr: 0x10001BCA4, symSize: 0x30 }
  - { offsetInCU: 0x555AB, offset: 0x6C261, size: 0x8, addend: 0x0, symName: __ZNSt3__120__shared_ptr_emplaceI17VariableContainerNS_9allocatorIS1_EEE8_Storage11__get_allocB8ue170006Ev, symObjAddr: 0x1250C, symBinAddr: 0x10001BCD4, symSize: 0x3C }
  - { offsetInCU: 0x555FE, offset: 0x6C2B4, size: 0x8, addend: 0x0, symName: __ZNSt3__117__compressed_pairINS_9allocatorI17VariableContainerEES2_E16__get_first_baseB8ue170006EPS4_, symObjAddr: 0x12548, symBinAddr: 0x10001BD10, symSize: 0x14 }
  - { offsetInCU: 0x55621, offset: 0x6C2D7, size: 0x8, addend: 0x0, symName: __ZN17VariableContainerC1Ev, symObjAddr: 0x125A0, symBinAddr: 0x10001BD68, symSize: 0x2C }
  - { offsetInCU: 0x5564D, offset: 0x6C303, size: 0x8, addend: 0x0, symName: __ZN17VariableContainerC2Ev, symObjAddr: 0x125CC, symBinAddr: 0x10001BD94, symSize: 0x5C }
  - { offsetInCU: 0x55679, offset: 0x6C32F, size: 0x8, addend: 0x0, symName: __ZN17IContainerContextC2Ev, symObjAddr: 0x12628, symBinAddr: 0x10001BDF0, symSize: 0x24 }
  - { offsetInCU: 0x556A5, offset: 0x6C35B, size: 0x8, addend: 0x0, symName: __ZNSt3__16vectorINS_13unordered_mapINS_12basic_stringIcNS_11char_traitsIcEENS_9allocatorIcEEEENS_10shared_ptrI8VariableEENS_4hashIS7_EENS_8equal_toIS7_EENS5_INS_4pairIKS7_SA_EEEEEENS5_ISJ_EEEC1B8ue170006Ev, symObjAddr: 0x1264C, symBinAddr: 0x10001BE14, symSize: 0x2C }
  - { offsetInCU: 0x556CF, offset: 0x6C385, size: 0x8, addend: 0x0, symName: __ZNSt3__16vectorINS_13unordered_mapINS_12basic_stringIcNS_11char_traitsIcEENS_9allocatorIcEEEENS_10shared_ptrI7ASTNodeEENS_4hashIS7_EENS_8equal_toIS7_EENS5_INS_4pairIKS7_SA_EEEEEENS5_ISJ_EEEC1B8ue170006Ev, symObjAddr: 0x12678, symBinAddr: 0x10001BE40, symSize: 0x2C }
  - { offsetInCU: 0x556F9, offset: 0x6C3AF, size: 0x8, addend: 0x0, symName: __ZN17VariableContainer2UpEv, symObjAddr: 0x126A4, symBinAddr: 0x10001BE6C, symSize: 0x58 }
  - { offsetInCU: 0x5571F, offset: 0x6C3D5, size: 0x8, addend: 0x0, symName: __ZN17VariableContainer4DownEv, symObjAddr: 0x126FC, symBinAddr: 0x10001BEC4, symSize: 0x58 }
  - { offsetInCU: 0x55745, offset: 0x6C3FB, size: 0x8, addend: 0x0, symName: __ZN17VariableContainer4pushERKNSt3__112basic_stringIcNS0_11char_traitsIcEENS0_9allocatorIcEEEER8Variable, symObjAddr: 0x12754, symBinAddr: 0x10001BF1C, symSize: 0x11C }
  - { offsetInCU: 0x55787, offset: 0x6C43D, size: 0x8, addend: 0x0, symName: __ZN17VariableContainerD1Ev, symObjAddr: 0x12870, symBinAddr: 0x10001C038, symSize: 0x2C }
  - { offsetInCU: 0x557B3, offset: 0x6C469, size: 0x8, addend: 0x0, symName: __ZN17VariableContainerD0Ev, symObjAddr: 0x1289C, symBinAddr: 0x10001C064, symSize: 0x30 }
  - { offsetInCU: 0x557DF, offset: 0x6C495, size: 0x8, addend: 0x0, symName: __ZN17IContainerContextD1Ev, symObjAddr: 0x128CC, symBinAddr: 0x10001C094, symSize: 0x14 }
  - { offsetInCU: 0x55809, offset: 0x6C4BF, size: 0x8, addend: 0x0, symName: __ZN17IContainerContextD0Ev, symObjAddr: 0x128E0, symBinAddr: 0x10001C0A8, symSize: 0xC }
  - { offsetInCU: 0x55833, offset: 0x6C4E9, size: 0x8, addend: 0x0, symName: __ZNSt3__16vectorINS_13unordered_mapINS_12basic_stringIcNS_11char_traitsIcEENS_9allocatorIcEEEENS_10shared_ptrI8VariableEENS_4hashIS7_EENS_8equal_toIS7_EENS5_INS_4pairIKS7_SA_EEEEEENS5_ISJ_EEEC2B8ue170006Ev, symObjAddr: 0x128EC, symBinAddr: 0x10001C0B4, symSize: 0x4C }
  - { offsetInCU: 0x5585D, offset: 0x6C513, size: 0x8, addend: 0x0, symName: __ZNSt3__117__compressed_pairIPNS_13unordered_mapINS_12basic_stringIcNS_11char_traitsIcEENS_9allocatorIcEEEENS_10shared_ptrI8VariableEENS_4hashIS7_EENS_8equal_toIS7_EENS5_INS_4pairIKS7_SA_EEEEEENS5_ISJ_EEEC1B8ue170006IDnNS_18__default_init_tagEEEOT_OT0_, symObjAddr: 0x12938, symBinAddr: 0x10001C100, symSize: 0x3C }
  - { offsetInCU: 0x558B5, offset: 0x6C56B, size: 0x8, addend: 0x0, symName: __ZNSt3__117__compressed_pairIPNS_13unordered_mapINS_12basic_stringIcNS_11char_traitsIcEENS_9allocatorIcEEEENS_10shared_ptrI8VariableEENS_4hashIS7_EENS_8equal_toIS7_EENS5_INS_4pairIKS7_SA_EEEEEENS5_ISJ_EEEC2B8ue170006IDnNS_18__default_init_tagEEEOT_OT0_, symObjAddr: 0x12974, symBinAddr: 0x10001C13C, symSize: 0x40 }
  - { offsetInCU: 0x5590D, offset: 0x6C5C3, size: 0x8, addend: 0x0, symName: __ZNSt3__122__compressed_pair_elemIPNS_13unordered_mapINS_12basic_stringIcNS_11char_traitsIcEENS_9allocatorIcEEEENS_10shared_ptrI8VariableEENS_4hashIS7_EENS_8equal_toIS7_EENS5_INS_4pairIKS7_SA_EEEEEELi0ELb0EEC2B8ue170006IDnvEEOT_, symObjAddr: 0x129B4, symBinAddr: 0x10001C17C, symSize: 0x1C }
  - { offsetInCU: 0x5594F, offset: 0x6C605, size: 0x8, addend: 0x0, symName: __ZNSt3__122__compressed_pair_elemINS_9allocatorINS_13unordered_mapINS_12basic_stringIcNS_11char_traitsIcEENS1_IcEEEENS_10shared_ptrI8VariableEENS_4hashIS7_EENS_8equal_toIS7_EENS1_INS_4pairIKS7_SA_EEEEEEEELi1ELb1EEC2B8ue170006ENS_18__default_init_tagE, symObjAddr: 0x129D0, symBinAddr: 0x10001C198, symSize: 0x2C }
  - { offsetInCU: 0x55983, offset: 0x6C639, size: 0x8, addend: 0x0, symName: __ZNSt3__19allocatorINS_13unordered_mapINS_12basic_stringIcNS_11char_traitsIcEENS0_IcEEEENS_10shared_ptrI8VariableEENS_4hashIS6_EENS_8equal_toIS6_EENS0_INS_4pairIKS6_S9_EEEEEEEC2B8ue170006Ev, symObjAddr: 0x129FC, symBinAddr: 0x10001C1C4, symSize: 0x2C }
  - { offsetInCU: 0x559AD, offset: 0x6C663, size: 0x8, addend: 0x0, symName: __ZNSt3__116__non_trivial_ifILb1ENS_9allocatorINS_13unordered_mapINS_12basic_stringIcNS_11char_traitsIcEENS1_IcEEEENS_10shared_ptrI8VariableEENS_4hashIS7_EENS_8equal_toIS7_EENS1_INS_4pairIKS7_SA_EEEEEEEEEC2B8ue170006Ev, symObjAddr: 0x12A28, symBinAddr: 0x10001C1F0, symSize: 0x14 }
  - { offsetInCU: 0x559D7, offset: 0x6C68D, size: 0x8, addend: 0x0, symName: __ZNSt3__16vectorINS_13unordered_mapINS_12basic_stringIcNS_11char_traitsIcEENS_9allocatorIcEEEENS_10shared_ptrI7ASTNodeEENS_4hashIS7_EENS_8equal_toIS7_EENS5_INS_4pairIKS7_SA_EEEEEENS5_ISJ_EEEC2B8ue170006Ev, symObjAddr: 0x12A3C, symBinAddr: 0x10001C204, symSize: 0x4C }
  - { offsetInCU: 0x55A01, offset: 0x6C6B7, size: 0x8, addend: 0x0, symName: __ZNSt3__117__compressed_pairIPNS_13unordered_mapINS_12basic_stringIcNS_11char_traitsIcEENS_9allocatorIcEEEENS_10shared_ptrI7ASTNodeEENS_4hashIS7_EENS_8equal_toIS7_EENS5_INS_4pairIKS7_SA_EEEEEENS5_ISJ_EEEC1B8ue170006IDnNS_18__default_init_tagEEEOT_OT0_, symObjAddr: 0x12A88, symBinAddr: 0x10001C250, symSize: 0x3C }
  - { offsetInCU: 0x55A59, offset: 0x6C70F, size: 0x8, addend: 0x0, symName: __ZNSt3__117__compressed_pairIPNS_13unordered_mapINS_12basic_stringIcNS_11char_traitsIcEENS_9allocatorIcEEEENS_10shared_ptrI7ASTNodeEENS_4hashIS7_EENS_8equal_toIS7_EENS5_INS_4pairIKS7_SA_EEEEEENS5_ISJ_EEEC2B8ue170006IDnNS_18__default_init_tagEEEOT_OT0_, symObjAddr: 0x12AC4, symBinAddr: 0x10001C28C, symSize: 0x40 }
  - { offsetInCU: 0x55AB1, offset: 0x6C767, size: 0x8, addend: 0x0, symName: __ZNSt3__122__compressed_pair_elemIPNS_13unordered_mapINS_12basic_stringIcNS_11char_traitsIcEENS_9allocatorIcEEEENS_10shared_ptrI7ASTNodeEENS_4hashIS7_EENS_8equal_toIS7_EENS5_INS_4pairIKS7_SA_EEEEEELi0ELb0EEC2B8ue170006IDnvEEOT_, symObjAddr: 0x12B04, symBinAddr: 0x10001C2CC, symSize: 0x1C }
  - { offsetInCU: 0x55AF3, offset: 0x6C7A9, size: 0x8, addend: 0x0, symName: __ZNSt3__122__compressed_pair_elemINS_9allocatorINS_13unordered_mapINS_12basic_stringIcNS_11char_traitsIcEENS1_IcEEEENS_10shared_ptrI7ASTNodeEENS_4hashIS7_EENS_8equal_toIS7_EENS1_INS_4pairIKS7_SA_EEEEEEEELi1ELb1EEC2B8ue170006ENS_18__default_init_tagE, symObjAddr: 0x12B20, symBinAddr: 0x10001C2E8, symSize: 0x2C }
  - { offsetInCU: 0x55B27, offset: 0x6C7DD, size: 0x8, addend: 0x0, symName: __ZNSt3__19allocatorINS_13unordered_mapINS_12basic_stringIcNS_11char_traitsIcEENS0_IcEEEENS_10shared_ptrI7ASTNodeEENS_4hashIS6_EENS_8equal_toIS6_EENS0_INS_4pairIKS6_S9_EEEEEEEC2B8ue170006Ev, symObjAddr: 0x12B4C, symBinAddr: 0x10001C314, symSize: 0x2C }
  - { offsetInCU: 0x55B51, offset: 0x6C807, size: 0x8, addend: 0x0, symName: __ZNSt3__116__non_trivial_ifILb1ENS_9allocatorINS_13unordered_mapINS_12basic_stringIcNS_11char_traitsIcEENS1_IcEEEENS_10shared_ptrI7ASTNodeEENS_4hashIS7_EENS_8equal_toIS7_EENS1_INS_4pairIKS7_SA_EEEEEEEEEC2B8ue170006Ev, symObjAddr: 0x12B78, symBinAddr: 0x10001C340, symSize: 0x14 }
  - { offsetInCU: 0x55B7B, offset: 0x6C831, size: 0x8, addend: 0x0, symName: __ZNSt3__16vectorINS_13unordered_mapINS_12basic_stringIcNS_11char_traitsIcEENS_9allocatorIcEEEENS_10shared_ptrI8VariableEENS_4hashIS7_EENS_8equal_toIS7_EENS5_INS_4pairIKS7_SA_EEEEEENS5_ISJ_EEE6resizeEm, symObjAddr: 0x12B8C, symBinAddr: 0x10001C354, symSize: 0x9C }
  - { offsetInCU: 0x55BC1, offset: 0x6C877, size: 0x8, addend: 0x0, symName: __ZNSt3__16vectorINS_13unordered_mapINS_12basic_stringIcNS_11char_traitsIcEENS_9allocatorIcEEEENS_10shared_ptrI7ASTNodeEENS_4hashIS7_EENS_8equal_toIS7_EENS5_INS_4pairIKS7_SA_EEEEEENS5_ISJ_EEE6resizeEm, symObjAddr: 0x12C28, symBinAddr: 0x10001C3F0, symSize: 0x9C }
  - { offsetInCU: 0x55C07, offset: 0x6C8BD, size: 0x8, addend: 0x0, symName: __ZNSt3__16vectorINS_13unordered_mapINS_12basic_stringIcNS_11char_traitsIcEENS_9allocatorIcEEEENS_10shared_ptrI8VariableEENS_4hashIS7_EENS_8equal_toIS7_EENS5_INS_4pairIKS7_SA_EEEEEENS5_ISJ_EEE8__appendEm, symObjAddr: 0x12CC4, symBinAddr: 0x10001C48C, symSize: 0x108 }
  - { offsetInCU: 0x55C62, offset: 0x6C918, size: 0x8, addend: 0x0, symName: __ZNSt3__16vectorINS_13unordered_mapINS_12basic_stringIcNS_11char_traitsIcEENS_9allocatorIcEEEENS_10shared_ptrI8VariableEENS_4hashIS7_EENS_8equal_toIS7_EENS5_INS_4pairIKS7_SA_EEEEEENS5_ISJ_EEE17__destruct_at_endB8ue170006EPSJ_, symObjAddr: 0x12DCC, symBinAddr: 0x10001C594, symSize: 0x4C }
  - { offsetInCU: 0x55CA6, offset: 0x6C95C, size: 0x8, addend: 0x0, symName: __ZNSt3__16vectorINS_13unordered_mapINS_12basic_stringIcNS_11char_traitsIcEENS_9allocatorIcEEEENS_10shared_ptrI8VariableEENS_4hashIS7_EENS_8equal_toIS7_EENS5_INS_4pairIKS7_SA_EEEEEENS5_ISJ_EEE9__end_capB8ue170006Ev, symObjAddr: 0x12E18, symBinAddr: 0x10001C5E0, symSize: 0x28 }
  - { offsetInCU: 0x55CCC, offset: 0x6C982, size: 0x8, addend: 0x0, symName: __ZNSt3__16vectorINS_13unordered_mapINS_12basic_stringIcNS_11char_traitsIcEENS_9allocatorIcEEEENS_10shared_ptrI8VariableEENS_4hashIS7_EENS_8equal_toIS7_EENS5_INS_4pairIKS7_SA_EEEEEENS5_ISJ_EEE18__construct_at_endEm, symObjAddr: 0x12E40, symBinAddr: 0x10001C608, symSize: 0xC8 }
  - { offsetInCU: 0x55D3E, offset: 0x6C9F4, size: 0x8, addend: 0x0, symName: __ZNSt3__16vectorINS_13unordered_mapINS_12basic_stringIcNS_11char_traitsIcEENS_9allocatorIcEEEENS_10shared_ptrI8VariableEENS_4hashIS7_EENS_8equal_toIS7_EENS5_INS_4pairIKS7_SA_EEEEEENS5_ISJ_EEE7__allocB8ue170006Ev, symObjAddr: 0x12F08, symBinAddr: 0x10001C6D0, symSize: 0x28 }
  - { offsetInCU: 0x55D64, offset: 0x6CA1A, size: 0x8, addend: 0x0, symName: __ZNKSt3__16vectorINS_13unordered_mapINS_12basic_stringIcNS_11char_traitsIcEENS_9allocatorIcEEEENS_10shared_ptrI8VariableEENS_4hashIS7_EENS_8equal_toIS7_EENS5_INS_4pairIKS7_SA_EEEEEENS5_ISJ_EEE11__recommendB8ue170006Em, symObjAddr: 0x12F30, symBinAddr: 0x10001C6F8, symSize: 0xB4 }
  - { offsetInCU: 0x55DB9, offset: 0x6CA6F, size: 0x8, addend: 0x0, symName: __ZNSt3__114__split_bufferINS_13unordered_mapINS_12basic_stringIcNS_11char_traitsIcEENS_9allocatorIcEEEENS_10shared_ptrI8VariableEENS_4hashIS7_EENS_8equal_toIS7_EENS5_INS_4pairIKS7_SA_EEEEEERNS5_ISJ_EEEC1EmmSL_, symObjAddr: 0x12FE4, symBinAddr: 0x10001C7AC, symSize: 0x44 }
  - { offsetInCU: 0x55E0F, offset: 0x6CAC5, size: 0x8, addend: 0x0, symName: __ZNSt3__114__split_bufferINS_13unordered_mapINS_12basic_stringIcNS_11char_traitsIcEENS_9allocatorIcEEEENS_10shared_ptrI8VariableEENS_4hashIS7_EENS_8equal_toIS7_EENS5_INS_4pairIKS7_SA_EEEEEERNS5_ISJ_EEE18__construct_at_endEm, symObjAddr: 0x13028, symBinAddr: 0x10001C7F0, symSize: 0xB4 }
  - { offsetInCU: 0x55E54, offset: 0x6CB0A, size: 0x8, addend: 0x0, symName: __ZNSt3__114__split_bufferINS_13unordered_mapINS_12basic_stringIcNS_11char_traitsIcEENS_9allocatorIcEEEENS_10shared_ptrI8VariableEENS_4hashIS7_EENS_8equal_toIS7_EENS5_INS_4pairIKS7_SA_EEEEEERNS5_ISJ_EEED1Ev, symObjAddr: 0x131EC, symBinAddr: 0x10001C9B4, symSize: 0x2C }
  - { offsetInCU: 0x55E80, offset: 0x6CB36, size: 0x8, addend: 0x0, symName: __ZNSt3__117__compressed_pairIPNS_13unordered_mapINS_12basic_stringIcNS_11char_traitsIcEENS_9allocatorIcEEEENS_10shared_ptrI8VariableEENS_4hashIS7_EENS_8equal_toIS7_EENS5_INS_4pairIKS7_SA_EEEEEENS5_ISJ_EEE5firstB8ue170006Ev, symObjAddr: 0x13218, symBinAddr: 0x10001C9E0, symSize: 0x24 }
  - { offsetInCU: 0x55EA6, offset: 0x6CB5C, size: 0x8, addend: 0x0, symName: __ZNSt3__122__compressed_pair_elemIPNS_13unordered_mapINS_12basic_stringIcNS_11char_traitsIcEENS_9allocatorIcEEEENS_10shared_ptrI8VariableEENS_4hashIS7_EENS_8equal_toIS7_EENS5_INS_4pairIKS7_SA_EEEEEELi0ELb0EE5__getB8ue170006Ev, symObjAddr: 0x1323C, symBinAddr: 0x10001CA04, symSize: 0x14 }
  - { offsetInCU: 0x55EE5, offset: 0x6CB9B, size: 0x8, addend: 0x0, symName: __ZNSt3__16vectorINS_13unordered_mapINS_12basic_stringIcNS_11char_traitsIcEENS_9allocatorIcEEEENS_10shared_ptrI8VariableEENS_4hashIS7_EENS_8equal_toIS7_EENS5_INS_4pairIKS7_SA_EEEEEENS5_ISJ_EEE21_ConstructTransactionC1B8ue170006ERSL_m, symObjAddr: 0x13250, symBinAddr: 0x10001CA18, symSize: 0x3C }
  - { offsetInCU: 0x55F2D, offset: 0x6CBE3, size: 0x8, addend: 0x0, symName: __ZNSt3__116allocator_traitsINS_9allocatorINS_13unordered_mapINS_12basic_stringIcNS_11char_traitsIcEENS1_IcEEEENS_10shared_ptrI8VariableEENS_4hashIS7_EENS_8equal_toIS7_EENS1_INS_4pairIKS7_SA_EEEEEEEEE9constructB8ue170006ISJ_JEvvEEvRSK_PT_DpOT0_, symObjAddr: 0x1328C, symBinAddr: 0x10001CA54, symSize: 0x28 }
  - { offsetInCU: 0x55F6D, offset: 0x6CC23, size: 0x8, addend: 0x0, symName: __ZNSt3__16vectorINS_13unordered_mapINS_12basic_stringIcNS_11char_traitsIcEENS_9allocatorIcEEEENS_10shared_ptrI8VariableEENS_4hashIS7_EENS_8equal_toIS7_EENS5_INS_4pairIKS7_SA_EEEEEENS5_ISJ_EEE21_ConstructTransactionD1B8ue170006Ev, symObjAddr: 0x132C8, symBinAddr: 0x10001CA90, symSize: 0x2C }
  - { offsetInCU: 0x55F97, offset: 0x6CC4D, size: 0x8, addend: 0x0, symName: __ZNSt3__16vectorINS_13unordered_mapINS_12basic_stringIcNS_11char_traitsIcEENS_9allocatorIcEEEENS_10shared_ptrI8VariableEENS_4hashIS7_EENS_8equal_toIS7_EENS5_INS_4pairIKS7_SA_EEEEEENS5_ISJ_EEE21_ConstructTransactionC2B8ue170006ERSL_m, symObjAddr: 0x132F4, symBinAddr: 0x10001CABC, symSize: 0x4C }
  - { offsetInCU: 0x55FDF, offset: 0x6CC95, size: 0x8, addend: 0x0, symName: __ZNSt3__113unordered_mapINS_12basic_stringIcNS_11char_traitsIcEENS_9allocatorIcEEEENS_10shared_ptrI8VariableEENS_4hashIS6_EENS_8equal_toIS6_EENS4_INS_4pairIKS6_S9_EEEEEC1B8ue170006Ev, symObjAddr: 0x13374, symBinAddr: 0x10001CB3C, symSize: 0x2C }
  - { offsetInCU: 0x56009, offset: 0x6CCBF, size: 0x8, addend: 0x0, symName: __ZNSt3__113unordered_mapINS_12basic_stringIcNS_11char_traitsIcEENS_9allocatorIcEEEENS_10shared_ptrI8VariableEENS_4hashIS6_EENS_8equal_toIS6_EENS4_INS_4pairIKS6_S9_EEEEEC2B8ue170006Ev, symObjAddr: 0x133A0, symBinAddr: 0x10001CB68, symSize: 0x2C }
  - { offsetInCU: 0x56033, offset: 0x6CCE9, size: 0x8, addend: 0x0, symName: __ZNSt3__112__hash_tableINS_17__hash_value_typeINS_12basic_stringIcNS_11char_traitsIcEENS_9allocatorIcEEEENS_10shared_ptrI8VariableEEEENS_22__unordered_map_hasherIS7_SB_NS_4hashIS7_EENS_8equal_toIS7_EELb1EEENS_21__unordered_map_equalIS7_SB_SG_SE_Lb1EEENS5_ISB_EEEC1Ev, symObjAddr: 0x133CC, symBinAddr: 0x10001CB94, symSize: 0x2C }
  - { offsetInCU: 0x5605F, offset: 0x6CD15, size: 0x8, addend: 0x0, symName: __ZNSt3__112__hash_tableINS_17__hash_value_typeINS_12basic_stringIcNS_11char_traitsIcEENS_9allocatorIcEEEENS_10shared_ptrI8VariableEEEENS_22__unordered_map_hasherIS7_SB_NS_4hashIS7_EENS_8equal_toIS7_EELb1EEENS_21__unordered_map_equalIS7_SB_SG_SE_Lb1EEENS5_ISB_EEEC2Ev, symObjAddr: 0x133F8, symBinAddr: 0x10001CBC0, symSize: 0x7C }
  - { offsetInCU: 0x5608B, offset: 0x6CD41, size: 0x8, addend: 0x0, symName: __ZNSt3__110unique_ptrIA_PNS_16__hash_node_baseIPNS_11__hash_nodeINS_17__hash_value_typeINS_12basic_stringIcNS_11char_traitsIcEENS_9allocatorIcEEEENS_10shared_ptrI8VariableEEEEPvEEEENS_25__bucket_list_deallocatorINS7_ISI_EEEEEC1B8ue170006ILb1EvEEv, symObjAddr: 0x13474, symBinAddr: 0x10001CC3C, symSize: 0x2C }
  - { offsetInCU: 0x560C0, offset: 0x6CD76, size: 0x8, addend: 0x0, symName: __ZNSt3__117__compressed_pairINS_16__hash_node_baseIPNS_11__hash_nodeINS_17__hash_value_typeINS_12basic_stringIcNS_11char_traitsIcEENS_9allocatorIcEEEENS_10shared_ptrI8VariableEEEEPvEEEENS7_ISF_EEEC1B8ue170006ILb1EvEEv, symObjAddr: 0x134A0, symBinAddr: 0x10001CC68, symSize: 0x2C }
  - { offsetInCU: 0x560F5, offset: 0x6CDAB, size: 0x8, addend: 0x0, symName: __ZNSt3__117__compressed_pairImNS_22__unordered_map_hasherINS_12basic_stringIcNS_11char_traitsIcEENS_9allocatorIcEEEENS_17__hash_value_typeIS7_NS_10shared_ptrI8VariableEEEENS_4hashIS7_EENS_8equal_toIS7_EELb1EEEEC1B8ue170006IiNS_18__default_init_tagEEEOT_OT0_, symObjAddr: 0x134CC, symBinAddr: 0x10001CC94, symSize: 0x3C }
  - { offsetInCU: 0x56152, offset: 0x6CE08, size: 0x8, addend: 0x0, symName: __ZNSt3__117__compressed_pairIfNS_21__unordered_map_equalINS_12basic_stringIcNS_11char_traitsIcEENS_9allocatorIcEEEENS_17__hash_value_typeIS7_NS_10shared_ptrI8VariableEEEENS_8equal_toIS7_EENS_4hashIS7_EELb1EEEEC1B8ue170006IfNS_18__default_init_tagEEEOT_OT0_, symObjAddr: 0x13508, symBinAddr: 0x10001CCD0, symSize: 0x3C }
  - { offsetInCU: 0x561AA, offset: 0x6CE60, size: 0x8, addend: 0x0, symName: __ZNSt3__110unique_ptrIA_PNS_16__hash_node_baseIPNS_11__hash_nodeINS_17__hash_value_typeINS_12basic_stringIcNS_11char_traitsIcEENS_9allocatorIcEEEENS_10shared_ptrI8VariableEEEEPvEEEENS_25__bucket_list_deallocatorINS7_ISI_EEEEEC2B8ue170006ILb1EvEEv, symObjAddr: 0x13544, symBinAddr: 0x10001CD0C, symSize: 0x3C }
  - { offsetInCU: 0x561E4, offset: 0x6CE9A, size: 0x8, addend: 0x0, symName: __ZNSt3__117__compressed_pairIPPNS_16__hash_node_baseIPNS_11__hash_nodeINS_17__hash_value_typeINS_12basic_stringIcNS_11char_traitsIcEENS_9allocatorIcEEEENS_10shared_ptrI8VariableEEEEPvEEEENS_25__bucket_list_deallocatorINS7_ISI_EEEEEC1B8ue170006INS_16__value_init_tagESP_EEOT_OT0_, symObjAddr: 0x13580, symBinAddr: 0x10001CD48, symSize: 0x3C }
  - { offsetInCU: 0x5623C, offset: 0x6CEF2, size: 0x8, addend: 0x0, symName: __ZNSt3__117__compressed_pairIPPNS_16__hash_node_baseIPNS_11__hash_nodeINS_17__hash_value_typeINS_12basic_stringIcNS_11char_traitsIcEENS_9allocatorIcEEEENS_10shared_ptrI8VariableEEEEPvEEEENS_25__bucket_list_deallocatorINS7_ISI_EEEEEC2B8ue170006INS_16__value_init_tagESP_EEOT_OT0_, symObjAddr: 0x135BC, symBinAddr: 0x10001CD84, symSize: 0x40 }
  - { offsetInCU: 0x56294, offset: 0x6CF4A, size: 0x8, addend: 0x0, symName: __ZNSt3__122__compressed_pair_elemIPPNS_16__hash_node_baseIPNS_11__hash_nodeINS_17__hash_value_typeINS_12basic_stringIcNS_11char_traitsIcEENS_9allocatorIcEEEENS_10shared_ptrI8VariableEEEEPvEEEELi0ELb0EEC2B8ue170006ENS_16__value_init_tagE, symObjAddr: 0x135FC, symBinAddr: 0x10001CDC4, symSize: 0x18 }
  - { offsetInCU: 0x562C8, offset: 0x6CF7E, size: 0x8, addend: 0x0, symName: __ZNSt3__122__compressed_pair_elemINS_25__bucket_list_deallocatorINS_9allocatorIPNS_16__hash_node_baseIPNS_11__hash_nodeINS_17__hash_value_typeINS_12basic_stringIcNS_11char_traitsIcEENS2_IcEEEENS_10shared_ptrI8VariableEEEEPvEEEEEEEELi1ELb0EEC2B8ue170006ENS_16__value_init_tagE, symObjAddr: 0x13614, symBinAddr: 0x10001CDDC, symSize: 0x2C }
  - { offsetInCU: 0x562FC, offset: 0x6CFB2, size: 0x8, addend: 0x0, symName: __ZNSt3__125__bucket_list_deallocatorINS_9allocatorIPNS_16__hash_node_baseIPNS_11__hash_nodeINS_17__hash_value_typeINS_12basic_stringIcNS_11char_traitsIcEENS1_IcEEEENS_10shared_ptrI8VariableEEEEPvEEEEEEEC1B8ue170006Ev, symObjAddr: 0x13640, symBinAddr: 0x10001CE08, symSize: 0x2C }
  - { offsetInCU: 0x56326, offset: 0x6CFDC, size: 0x8, addend: 0x0, symName: __ZNSt3__125__bucket_list_deallocatorINS_9allocatorIPNS_16__hash_node_baseIPNS_11__hash_nodeINS_17__hash_value_typeINS_12basic_stringIcNS_11char_traitsIcEENS1_IcEEEENS_10shared_ptrI8VariableEEEEPvEEEEEEEC2B8ue170006Ev, symObjAddr: 0x1366C, symBinAddr: 0x10001CE34, symSize: 0x40 }
  - { offsetInCU: 0x56350, offset: 0x6D006, size: 0x8, addend: 0x0, symName: __ZNSt3__117__compressed_pairImNS_9allocatorIPNS_16__hash_node_baseIPNS_11__hash_nodeINS_17__hash_value_typeINS_12basic_stringIcNS_11char_traitsIcEENS1_IcEEEENS_10shared_ptrI8VariableEEEEPvEEEEEEEC1B8ue170006IiNS_18__default_init_tagEEEOT_OT0_, symObjAddr: 0x136AC, symBinAddr: 0x10001CE74, symSize: 0x3C }
  - { offsetInCU: 0x563A8, offset: 0x6D05E, size: 0x8, addend: 0x0, symName: __ZNSt3__117__compressed_pairImNS_9allocatorIPNS_16__hash_node_baseIPNS_11__hash_nodeINS_17__hash_value_typeINS_12basic_stringIcNS_11char_traitsIcEENS1_IcEEEENS_10shared_ptrI8VariableEEEEPvEEEEEEEC2B8ue170006IiNS_18__default_init_tagEEEOT_OT0_, symObjAddr: 0x136E8, symBinAddr: 0x10001CEB0, symSize: 0x40 }
  - { offsetInCU: 0x56400, offset: 0x6D0B6, size: 0x8, addend: 0x0, symName: __ZNSt3__122__compressed_pair_elemINS_9allocatorIPNS_16__hash_node_baseIPNS_11__hash_nodeINS_17__hash_value_typeINS_12basic_stringIcNS_11char_traitsIcEENS1_IcEEEENS_10shared_ptrI8VariableEEEEPvEEEEEELi1ELb1EEC2B8ue170006ENS_18__default_init_tagE, symObjAddr: 0x13728, symBinAddr: 0x10001CEF0, symSize: 0x2C }
  - { offsetInCU: 0x56434, offset: 0x6D0EA, size: 0x8, addend: 0x0, symName: __ZNSt3__19allocatorIPNS_16__hash_node_baseIPNS_11__hash_nodeINS_17__hash_value_typeINS_12basic_stringIcNS_11char_traitsIcEENS0_IcEEEENS_10shared_ptrI8VariableEEEEPvEEEEEC2B8ue170006Ev, symObjAddr: 0x13754, symBinAddr: 0x10001CF1C, symSize: 0x2C }
  - { offsetInCU: 0x5645E, offset: 0x6D114, size: 0x8, addend: 0x0, symName: __ZNSt3__116__non_trivial_ifILb1ENS_9allocatorIPNS_16__hash_node_baseIPNS_11__hash_nodeINS_17__hash_value_typeINS_12basic_stringIcNS_11char_traitsIcEENS1_IcEEEENS_10shared_ptrI8VariableEEEEPvEEEEEEEC2B8ue170006Ev, symObjAddr: 0x13780, symBinAddr: 0x10001CF48, symSize: 0x14 }
  - { offsetInCU: 0x56488, offset: 0x6D13E, size: 0x8, addend: 0x0, symName: __ZNSt3__117__compressed_pairINS_16__hash_node_baseIPNS_11__hash_nodeINS_17__hash_value_typeINS_12basic_stringIcNS_11char_traitsIcEENS_9allocatorIcEEEENS_10shared_ptrI8VariableEEEEPvEEEENS7_ISF_EEEC2B8ue170006ILb1EvEEv, symObjAddr: 0x13794, symBinAddr: 0x10001CF5C, symSize: 0x34 }
  - { offsetInCU: 0x564BD, offset: 0x6D173, size: 0x8, addend: 0x0, symName: __ZNSt3__122__compressed_pair_elemINS_16__hash_node_baseIPNS_11__hash_nodeINS_17__hash_value_typeINS_12basic_stringIcNS_11char_traitsIcEENS_9allocatorIcEEEENS_10shared_ptrI8VariableEEEEPvEEEELi0ELb0EEC2B8ue170006ENS_16__value_init_tagE, symObjAddr: 0x137C8, symBinAddr: 0x10001CF90, symSize: 0x2C }
  - { offsetInCU: 0x564F1, offset: 0x6D1A7, size: 0x8, addend: 0x0, symName: __ZNSt3__122__compressed_pair_elemINS_9allocatorINS_11__hash_nodeINS_17__hash_value_typeINS_12basic_stringIcNS_11char_traitsIcEENS1_IcEEEENS_10shared_ptrI8VariableEEEEPvEEEELi1ELb1EEC2B8ue170006ENS_16__value_init_tagE, symObjAddr: 0x137F4, symBinAddr: 0x10001CFBC, symSize: 0x2C }
  - { offsetInCU: 0x56525, offset: 0x6D1DB, size: 0x8, addend: 0x0, symName: __ZNSt3__116__hash_node_baseIPNS_11__hash_nodeINS_17__hash_value_typeINS_12basic_stringIcNS_11char_traitsIcEENS_9allocatorIcEEEENS_10shared_ptrI8VariableEEEEPvEEEC1B8ue170006Ev, symObjAddr: 0x13820, symBinAddr: 0x10001CFE8, symSize: 0x2C }
  - { offsetInCU: 0x5654F, offset: 0x6D205, size: 0x8, addend: 0x0, symName: __ZNSt3__116__hash_node_baseIPNS_11__hash_nodeINS_17__hash_value_typeINS_12basic_stringIcNS_11char_traitsIcEENS_9allocatorIcEEEENS_10shared_ptrI8VariableEEEEPvEEEC2B8ue170006Ev, symObjAddr: 0x1384C, symBinAddr: 0x10001D014, symSize: 0x18 }
  - { offsetInCU: 0x56579, offset: 0x6D22F, size: 0x8, addend: 0x0, symName: __ZNSt3__19allocatorINS_11__hash_nodeINS_17__hash_value_typeINS_12basic_stringIcNS_11char_traitsIcEENS0_IcEEEENS_10shared_ptrI8VariableEEEEPvEEEC2B8ue170006Ev, symObjAddr: 0x13864, symBinAddr: 0x10001D02C, symSize: 0x2C }
  - { offsetInCU: 0x565A3, offset: 0x6D259, size: 0x8, addend: 0x0, symName: __ZNSt3__116__non_trivial_ifILb1ENS_9allocatorINS_11__hash_nodeINS_17__hash_value_typeINS_12basic_stringIcNS_11char_traitsIcEENS1_IcEEEENS_10shared_ptrI8VariableEEEEPvEEEEEC2B8ue170006Ev, symObjAddr: 0x13890, symBinAddr: 0x10001D058, symSize: 0x14 }
  - { offsetInCU: 0x565CD, offset: 0x6D283, size: 0x8, addend: 0x0, symName: __ZNSt3__117__compressed_pairImNS_22__unordered_map_hasherINS_12basic_stringIcNS_11char_traitsIcEENS_9allocatorIcEEEENS_17__hash_value_typeIS7_NS_10shared_ptrI8VariableEEEENS_4hashIS7_EENS_8equal_toIS7_EELb1EEEEC2B8ue170006IiNS_18__default_init_tagEEEOT_OT0_, symObjAddr: 0x138A4, symBinAddr: 0x10001D06C, symSize: 0x40 }
  - { offsetInCU: 0x56625, offset: 0x6D2DB, size: 0x8, addend: 0x0, symName: __ZNSt3__122__compressed_pair_elemINS_22__unordered_map_hasherINS_12basic_stringIcNS_11char_traitsIcEENS_9allocatorIcEEEENS_17__hash_value_typeIS7_NS_10shared_ptrI8VariableEEEENS_4hashIS7_EENS_8equal_toIS7_EELb1EEELi1ELb1EEC2B8ue170006ENS_18__default_init_tagE, symObjAddr: 0x138E4, symBinAddr: 0x10001D0AC, symSize: 0x2C }
  - { offsetInCU: 0x56659, offset: 0x6D30F, size: 0x8, addend: 0x0, symName: __ZNSt3__122__unordered_map_hasherINS_12basic_stringIcNS_11char_traitsIcEENS_9allocatorIcEEEENS_17__hash_value_typeIS6_NS_10shared_ptrI8VariableEEEENS_4hashIS6_EENS_8equal_toIS6_EELb1EEC2B8ue170006Ev, symObjAddr: 0x13910, symBinAddr: 0x10001D0D8, symSize: 0x14 }
  - { offsetInCU: 0x56683, offset: 0x6D339, size: 0x8, addend: 0x0, symName: __ZNSt3__117__compressed_pairIfNS_21__unordered_map_equalINS_12basic_stringIcNS_11char_traitsIcEENS_9allocatorIcEEEENS_17__hash_value_typeIS7_NS_10shared_ptrI8VariableEEEENS_8equal_toIS7_EENS_4hashIS7_EELb1EEEEC2B8ue170006IfNS_18__default_init_tagEEEOT_OT0_, symObjAddr: 0x13924, symBinAddr: 0x10001D0EC, symSize: 0x40 }
  - { offsetInCU: 0x566DB, offset: 0x6D391, size: 0x8, addend: 0x0, symName: __ZNSt3__122__compressed_pair_elemIfLi0ELb0EEC2B8ue170006IfvEEOT_, symObjAddr: 0x13964, symBinAddr: 0x10001D12C, symSize: 0x24 }
  - { offsetInCU: 0x5671D, offset: 0x6D3D3, size: 0x8, addend: 0x0, symName: __ZNSt3__122__compressed_pair_elemINS_21__unordered_map_equalINS_12basic_stringIcNS_11char_traitsIcEENS_9allocatorIcEEEENS_17__hash_value_typeIS7_NS_10shared_ptrI8VariableEEEENS_8equal_toIS7_EENS_4hashIS7_EELb1EEELi1ELb1EEC2B8ue170006ENS_18__default_init_tagE, symObjAddr: 0x13988, symBinAddr: 0x10001D150, symSize: 0x2C }
  - { offsetInCU: 0x56751, offset: 0x6D407, size: 0x8, addend: 0x0, symName: __ZNSt3__121__unordered_map_equalINS_12basic_stringIcNS_11char_traitsIcEENS_9allocatorIcEEEENS_17__hash_value_typeIS6_NS_10shared_ptrI8VariableEEEENS_8equal_toIS6_EENS_4hashIS6_EELb1EEC2B8ue170006Ev, symObjAddr: 0x139B4, symBinAddr: 0x10001D17C, symSize: 0x14 }
  - { offsetInCU: 0x5677B, offset: 0x6D431, size: 0x8, addend: 0x0, symName: __ZNSt3__16vectorINS_13unordered_mapINS_12basic_stringIcNS_11char_traitsIcEENS_9allocatorIcEEEENS_10shared_ptrI8VariableEENS_4hashIS7_EENS_8equal_toIS7_EENS5_INS_4pairIKS7_SA_EEEEEENS5_ISJ_EEE21_ConstructTransactionD2B8ue170006Ev, symObjAddr: 0x139C8, symBinAddr: 0x10001D190, symSize: 0x20 }
  - { offsetInCU: 0x567A5, offset: 0x6D45B, size: 0x8, addend: 0x0, symName: __ZNSt3__117__compressed_pairIPNS_13unordered_mapINS_12basic_stringIcNS_11char_traitsIcEENS_9allocatorIcEEEENS_10shared_ptrI8VariableEENS_4hashIS7_EENS_8equal_toIS7_EENS5_INS_4pairIKS7_SA_EEEEEENS5_ISJ_EEE6secondB8ue170006Ev, symObjAddr: 0x139E8, symBinAddr: 0x10001D1B0, symSize: 0x24 }
  - { offsetInCU: 0x567CB, offset: 0x6D481, size: 0x8, addend: 0x0, symName: __ZNSt3__122__compressed_pair_elemINS_9allocatorINS_13unordered_mapINS_12basic_stringIcNS_11char_traitsIcEENS1_IcEEEENS_10shared_ptrI8VariableEENS_4hashIS7_EENS_8equal_toIS7_EENS1_INS_4pairIKS7_SA_EEEEEEEELi1ELb1EE5__getB8ue170006Ev, symObjAddr: 0x13A0C, symBinAddr: 0x10001D1D4, symSize: 0x14 }
  - { offsetInCU: 0x567F1, offset: 0x6D4A7, size: 0x8, addend: 0x0, symName: __ZNKSt3__16vectorINS_13unordered_mapINS_12basic_stringIcNS_11char_traitsIcEENS_9allocatorIcEEEENS_10shared_ptrI8VariableEENS_4hashIS7_EENS_8equal_toIS7_EENS5_INS_4pairIKS7_SA_EEEEEENS5_ISJ_EEE8max_sizeEv, symObjAddr: 0x13A20, symBinAddr: 0x10001D1E8, symSize: 0x60 }
  - { offsetInCU: 0x56819, offset: 0x6D4CF, size: 0x8, addend: 0x0, symName: __ZNKSt3__16vectorINS_13unordered_mapINS_12basic_stringIcNS_11char_traitsIcEENS_9allocatorIcEEEENS_10shared_ptrI8VariableEENS_4hashIS7_EENS_8equal_toIS7_EENS5_INS_4pairIKS7_SA_EEEEEENS5_ISJ_EEE20__throw_length_errorB8ue170006Ev, symObjAddr: 0x13A80, symBinAddr: 0x10001D248, symSize: 0x1C }
  - { offsetInCU: 0x5683F, offset: 0x6D4F5, size: 0x8, addend: 0x0, symName: __ZNKSt3__16vectorINS_13unordered_mapINS_12basic_stringIcNS_11char_traitsIcEENS_9allocatorIcEEEENS_10shared_ptrI8VariableEENS_4hashIS7_EENS_8equal_toIS7_EENS5_INS_4pairIKS7_SA_EEEEEENS5_ISJ_EEE8capacityB8ue170006Ev, symObjAddr: 0x13A9C, symBinAddr: 0x10001D264, symSize: 0x40 }
  - { offsetInCU: 0x5686F, offset: 0x6D525, size: 0x8, addend: 0x0, symName: __ZNSt3__116allocator_traitsINS_9allocatorINS_13unordered_mapINS_12basic_stringIcNS_11char_traitsIcEENS1_IcEEEENS_10shared_ptrI8VariableEENS_4hashIS7_EENS_8equal_toIS7_EENS1_INS_4pairIKS7_SA_EEEEEEEEE8max_sizeB8ue170006ISK_vvEEmRKSK_, symObjAddr: 0x13ADC, symBinAddr: 0x10001D2A4, symSize: 0x28 }
  - { offsetInCU: 0x5689B, offset: 0x6D551, size: 0x8, addend: 0x0, symName: __ZNKSt3__16vectorINS_13unordered_mapINS_12basic_stringIcNS_11char_traitsIcEENS_9allocatorIcEEEENS_10shared_ptrI8VariableEENS_4hashIS7_EENS_8equal_toIS7_EENS5_INS_4pairIKS7_SA_EEEEEENS5_ISJ_EEE7__allocB8ue170006Ev, symObjAddr: 0x13B04, symBinAddr: 0x10001D2CC, symSize: 0x28 }
  - { offsetInCU: 0x568C1, offset: 0x6D577, size: 0x8, addend: 0x0, symName: __ZNKSt3__117__compressed_pairIPNS_13unordered_mapINS_12basic_stringIcNS_11char_traitsIcEENS_9allocatorIcEEEENS_10shared_ptrI8VariableEENS_4hashIS7_EENS_8equal_toIS7_EENS5_INS_4pairIKS7_SA_EEEEEENS5_ISJ_EEE6secondB8ue170006Ev, symObjAddr: 0x13B2C, symBinAddr: 0x10001D2F4, symSize: 0x24 }
  - { offsetInCU: 0x568E7, offset: 0x6D59D, size: 0x8, addend: 0x0, symName: __ZNKSt3__122__compressed_pair_elemINS_9allocatorINS_13unordered_mapINS_12basic_stringIcNS_11char_traitsIcEENS1_IcEEEENS_10shared_ptrI8VariableEENS_4hashIS7_EENS_8equal_toIS7_EENS1_INS_4pairIKS7_SA_EEEEEEEELi1ELb1EE5__getB8ue170006Ev, symObjAddr: 0x13B50, symBinAddr: 0x10001D318, symSize: 0x14 }
  - { offsetInCU: 0x5690D, offset: 0x6D5C3, size: 0x8, addend: 0x0, symName: __ZNKSt3__16vectorINS_13unordered_mapINS_12basic_stringIcNS_11char_traitsIcEENS_9allocatorIcEEEENS_10shared_ptrI8VariableEENS_4hashIS7_EENS_8equal_toIS7_EENS5_INS_4pairIKS7_SA_EEEEEENS5_ISJ_EEE9__end_capB8ue170006Ev, symObjAddr: 0x13B64, symBinAddr: 0x10001D32C, symSize: 0x28 }
  - { offsetInCU: 0x56933, offset: 0x6D5E9, size: 0x8, addend: 0x0, symName: __ZNKSt3__117__compressed_pairIPNS_13unordered_mapINS_12basic_stringIcNS_11char_traitsIcEENS_9allocatorIcEEEENS_10shared_ptrI8VariableEENS_4hashIS7_EENS_8equal_toIS7_EENS5_INS_4pairIKS7_SA_EEEEEENS5_ISJ_EEE5firstB8ue170006Ev, symObjAddr: 0x13B8C, symBinAddr: 0x10001D354, symSize: 0x24 }
  - { offsetInCU: 0x56959, offset: 0x6D60F, size: 0x8, addend: 0x0, symName: __ZNKSt3__122__compressed_pair_elemIPNS_13unordered_mapINS_12basic_stringIcNS_11char_traitsIcEENS_9allocatorIcEEEENS_10shared_ptrI8VariableEENS_4hashIS7_EENS_8equal_toIS7_EENS5_INS_4pairIKS7_SA_EEEEEELi0ELb0EE5__getB8ue170006Ev, symObjAddr: 0x13BB0, symBinAddr: 0x10001D378, symSize: 0x14 }
  - { offsetInCU: 0x5697F, offset: 0x6D635, size: 0x8, addend: 0x0, symName: __ZNSt3__114__split_bufferINS_13unordered_mapINS_12basic_stringIcNS_11char_traitsIcEENS_9allocatorIcEEEENS_10shared_ptrI8VariableEENS_4hashIS7_EENS_8equal_toIS7_EENS5_INS_4pairIKS7_SA_EEEEEERNS5_ISJ_EEEC2EmmSL_, symObjAddr: 0x13BC4, symBinAddr: 0x10001D38C, symSize: 0xE0 }
  - { offsetInCU: 0x569F2, offset: 0x6D6A8, size: 0x8, addend: 0x0, symName: __ZNSt3__117__compressed_pairIPNS_13unordered_mapINS_12basic_stringIcNS_11char_traitsIcEENS_9allocatorIcEEEENS_10shared_ptrI8VariableEENS_4hashIS7_EENS_8equal_toIS7_EENS5_INS_4pairIKS7_SA_EEEEEERNS5_ISJ_EEEC1B8ue170006IDnSM_EEOT_OT0_, symObjAddr: 0x13CA4, symBinAddr: 0x10001D46C, symSize: 0x3C }
  - { offsetInCU: 0x56A4A, offset: 0x6D700, size: 0x8, addend: 0x0, symName: __ZNSt3__114__split_bufferINS_13unordered_mapINS_12basic_stringIcNS_11char_traitsIcEENS_9allocatorIcEEEENS_10shared_ptrI8VariableEENS_4hashIS7_EENS_8equal_toIS7_EENS5_INS_4pairIKS7_SA_EEEEEERNS5_ISJ_EEE7__allocB8ue170006Ev, symObjAddr: 0x13D20, symBinAddr: 0x10001D4E8, symSize: 0x28 }
  - { offsetInCU: 0x56A70, offset: 0x6D726, size: 0x8, addend: 0x0, symName: __ZNSt3__114__split_bufferINS_13unordered_mapINS_12basic_stringIcNS_11char_traitsIcEENS_9allocatorIcEEEENS_10shared_ptrI8VariableEENS_4hashIS7_EENS_8equal_toIS7_EENS5_INS_4pairIKS7_SA_EEEEEERNS5_ISJ_EEE9__end_capB8ue170006Ev, symObjAddr: 0x13D48, symBinAddr: 0x10001D510, symSize: 0x28 }
  - { offsetInCU: 0x56A96, offset: 0x6D74C, size: 0x8, addend: 0x0, symName: __ZNSt3__117__compressed_pairIPNS_13unordered_mapINS_12basic_stringIcNS_11char_traitsIcEENS_9allocatorIcEEEENS_10shared_ptrI8VariableEENS_4hashIS7_EENS_8equal_toIS7_EENS5_INS_4pairIKS7_SA_EEEEEERNS5_ISJ_EEEC2B8ue170006IDnSM_EEOT_OT0_, symObjAddr: 0x13D70, symBinAddr: 0x10001D538, symSize: 0x48 }
  - { offsetInCU: 0x56AEE, offset: 0x6D7A4, size: 0x8, addend: 0x0, symName: __ZNSt3__122__compressed_pair_elemIRNS_9allocatorINS_13unordered_mapINS_12basic_stringIcNS_11char_traitsIcEENS1_IcEEEENS_10shared_ptrI8VariableEENS_4hashIS7_EENS_8equal_toIS7_EENS1_INS_4pairIKS7_SA_EEEEEEEELi1ELb0EEC2B8ue170006ISL_vEEOT_, symObjAddr: 0x13DB8, symBinAddr: 0x10001D580, symSize: 0x20 }
  - { offsetInCU: 0x56B30, offset: 0x6D7E6, size: 0x8, addend: 0x0, symName: __ZNSt3__19allocatorINS_13unordered_mapINS_12basic_stringIcNS_11char_traitsIcEENS0_IcEEEENS_10shared_ptrI8VariableEENS_4hashIS6_EENS_8equal_toIS6_EENS0_INS_4pairIKS6_S9_EEEEEEE8allocateB8ue170006Em, symObjAddr: 0x13DD8, symBinAddr: 0x10001D5A0, symSize: 0x5C }
  - { offsetInCU: 0x56B64, offset: 0x6D81A, size: 0x8, addend: 0x0, symName: __ZNSt3__117__compressed_pairIPNS_13unordered_mapINS_12basic_stringIcNS_11char_traitsIcEENS_9allocatorIcEEEENS_10shared_ptrI8VariableEENS_4hashIS7_EENS_8equal_toIS7_EENS5_INS_4pairIKS7_SA_EEEEEERNS5_ISJ_EEE6secondB8ue170006Ev, symObjAddr: 0x13E34, symBinAddr: 0x10001D5FC, symSize: 0x28 }
  - { offsetInCU: 0x56B8A, offset: 0x6D840, size: 0x8, addend: 0x0, symName: __ZNSt3__122__compressed_pair_elemIRNS_9allocatorINS_13unordered_mapINS_12basic_stringIcNS_11char_traitsIcEENS1_IcEEEENS_10shared_ptrI8VariableEENS_4hashIS7_EENS_8equal_toIS7_EENS1_INS_4pairIKS7_SA_EEEEEEEELi1ELb0EE5__getB8ue170006Ev, symObjAddr: 0x13E5C, symBinAddr: 0x10001D624, symSize: 0x18 }
  - { offsetInCU: 0x56BB0, offset: 0x6D866, size: 0x8, addend: 0x0, symName: __ZNSt3__117__compressed_pairIPNS_13unordered_mapINS_12basic_stringIcNS_11char_traitsIcEENS_9allocatorIcEEEENS_10shared_ptrI8VariableEENS_4hashIS7_EENS_8equal_toIS7_EENS5_INS_4pairIKS7_SA_EEEEEERNS5_ISJ_EEE5firstB8ue170006Ev, symObjAddr: 0x13E74, symBinAddr: 0x10001D63C, symSize: 0x24 }
  - { offsetInCU: 0x56BE0, offset: 0x6D896, size: 0x8, addend: 0x0, symName: __ZNSt3__114__split_bufferINS_13unordered_mapINS_12basic_stringIcNS_11char_traitsIcEENS_9allocatorIcEEEENS_10shared_ptrI8VariableEENS_4hashIS7_EENS_8equal_toIS7_EENS5_INS_4pairIKS7_SA_EEEEEERNS5_ISJ_EEE21_ConstructTransactionC1B8ue170006EPPSJ_m, symObjAddr: 0x13E98, symBinAddr: 0x10001D660, symSize: 0x3C }
  - { offsetInCU: 0x56C26, offset: 0x6D8DC, size: 0x8, addend: 0x0, symName: __ZNSt3__114__split_bufferINS_13unordered_mapINS_12basic_stringIcNS_11char_traitsIcEENS_9allocatorIcEEEENS_10shared_ptrI8VariableEENS_4hashIS7_EENS_8equal_toIS7_EENS5_INS_4pairIKS7_SA_EEEEEERNS5_ISJ_EEE21_ConstructTransactionD1B8ue170006Ev, symObjAddr: 0x13ED4, symBinAddr: 0x10001D69C, symSize: 0x2C }
  - { offsetInCU: 0x56C50, offset: 0x6D906, size: 0x8, addend: 0x0, symName: __ZNSt3__114__split_bufferINS_13unordered_mapINS_12basic_stringIcNS_11char_traitsIcEENS_9allocatorIcEEEENS_10shared_ptrI8VariableEENS_4hashIS7_EENS_8equal_toIS7_EENS5_INS_4pairIKS7_SA_EEEEEERNS5_ISJ_EEE21_ConstructTransactionC2B8ue170006EPPSJ_m, symObjAddr: 0x13F00, symBinAddr: 0x10001D6C8, symSize: 0x4C }
  - { offsetInCU: 0x56C96, offset: 0x6D94C, size: 0x8, addend: 0x0, symName: __ZNSt3__114__split_bufferINS_13unordered_mapINS_12basic_stringIcNS_11char_traitsIcEENS_9allocatorIcEEEENS_10shared_ptrI8VariableEENS_4hashIS7_EENS_8equal_toIS7_EENS5_INS_4pairIKS7_SA_EEEEEERNS5_ISJ_EEE21_ConstructTransactionD2B8ue170006Ev, symObjAddr: 0x13F4C, symBinAddr: 0x10001D714, symSize: 0x20 }
  - { offsetInCU: 0x56CC0, offset: 0x6D976, size: 0x8, addend: 0x0, symName: __ZNKSt3__16vectorINS_13unordered_mapINS_12basic_stringIcNS_11char_traitsIcEENS_9allocatorIcEEEENS_10shared_ptrI8VariableEENS_4hashIS7_EENS_8equal_toIS7_EENS5_INS_4pairIKS7_SA_EEEEEENS5_ISJ_EEE17__annotate_deleteB8ue170006Ev, symObjAddr: 0x13F6C, symBinAddr: 0x10001D734, symSize: 0xD4 }
  - { offsetInCU: 0x56CE6, offset: 0x6D99C, size: 0x8, addend: 0x0, symName: __ZNSt3__116reverse_iteratorIPNS_13unordered_mapINS_12basic_stringIcNS_11char_traitsIcEENS_9allocatorIcEEEENS_10shared_ptrI8VariableEENS_4hashIS7_EENS_8equal_toIS7_EENS5_INS_4pairIKS7_SA_EEEEEEEC1B8ue170006ESK_, symObjAddr: 0x1416C, symBinAddr: 0x10001D934, symSize: 0x34 }
  - { offsetInCU: 0x56D1E, offset: 0x6D9D4, size: 0x8, addend: 0x0, symName: __ZNKSt3__116reverse_iteratorIPNS_13unordered_mapINS_12basic_stringIcNS_11char_traitsIcEENS_9allocatorIcEEEENS_10shared_ptrI8VariableEENS_4hashIS7_EENS_8equal_toIS7_EENS5_INS_4pairIKS7_SA_EEEEEEE4baseB8ue170006Ev, symObjAddr: 0x141A0, symBinAddr: 0x10001D968, symSize: 0x18 }
  - { offsetInCU: 0x56D44, offset: 0x6D9FA, size: 0x8, addend: 0x0, symName: __ZNKSt3__16vectorINS_13unordered_mapINS_12basic_stringIcNS_11char_traitsIcEENS_9allocatorIcEEEENS_10shared_ptrI8VariableEENS_4hashIS7_EENS_8equal_toIS7_EENS5_INS_4pairIKS7_SA_EEEEEENS5_ISJ_EEE14__annotate_newB8ue170006Em, symObjAddr: 0x141F4, symBinAddr: 0x10001D9BC, symSize: 0xC8 }
  - { offsetInCU: 0x56D79, offset: 0x6DA2F, size: 0x8, addend: 0x0, symName: __ZNKSt3__16vectorINS_13unordered_mapINS_12basic_stringIcNS_11char_traitsIcEENS_9allocatorIcEEEENS_10shared_ptrI8VariableEENS_4hashIS7_EENS_8equal_toIS7_EENS5_INS_4pairIKS7_SA_EEEEEENS5_ISJ_EEE31__annotate_contiguous_containerB8ue170006EPKvSN_SN_SN_, symObjAddr: 0x142BC, symBinAddr: 0x10001DA84, symSize: 0x20 }
  - { offsetInCU: 0x56DCF, offset: 0x6DA85, size: 0x8, addend: 0x0, symName: __ZNKSt3__16vectorINS_13unordered_mapINS_12basic_stringIcNS_11char_traitsIcEENS_9allocatorIcEEEENS_10shared_ptrI8VariableEENS_4hashIS7_EENS_8equal_toIS7_EENS5_INS_4pairIKS7_SA_EEEEEENS5_ISJ_EEE4dataB8ue170006Ev, symObjAddr: 0x142DC, symBinAddr: 0x10001DAA4, symSize: 0x28 }
  - { offsetInCU: 0x56DF5, offset: 0x6DAAB, size: 0x8, addend: 0x0, symName: __ZNSt3__129_AllocatorDestroyRangeReverseINS_9allocatorINS_13unordered_mapINS_12basic_stringIcNS_11char_traitsIcEENS1_IcEEEENS_10shared_ptrI8VariableEENS_4hashIS7_EENS_8equal_toIS7_EENS1_INS_4pairIKS7_SA_EEEEEEEENS_16reverse_iteratorIPSJ_EEEC1B8ue170006ERSK_RSN_SQ_, symObjAddr: 0x14350, symBinAddr: 0x10001DB18, symSize: 0x44 }
  - { offsetInCU: 0x56E4C, offset: 0x6DB02, size: 0x8, addend: 0x0, symName: __ZNSt3__116allocator_traitsINS_9allocatorINS_13unordered_mapINS_12basic_stringIcNS_11char_traitsIcEENS1_IcEEEENS_10shared_ptrI8VariableEENS_4hashIS7_EENS_8equal_toIS7_EENS1_INS_4pairIKS7_SA_EEEEEEEEE9constructB8ue170006ISJ_JSJ_EvvEEvRSK_PT_DpOT0_, symObjAddr: 0x143DC, symBinAddr: 0x10001DBA4, symSize: 0x30 }
  - { offsetInCU: 0x56EA1, offset: 0x6DB57, size: 0x8, addend: 0x0, symName: __ZNKSt3__116reverse_iteratorIPNS_13unordered_mapINS_12basic_stringIcNS_11char_traitsIcEENS_9allocatorIcEEEENS_10shared_ptrI8VariableEENS_4hashIS7_EENS_8equal_toIS7_EENS5_INS_4pairIKS7_SA_EEEEEEEdeB8ue170006Ev, symObjAddr: 0x14430, symBinAddr: 0x10001DBF8, symSize: 0x28 }
  - { offsetInCU: 0x56ED5, offset: 0x6DB8B, size: 0x8, addend: 0x0, symName: __ZNSt3__116reverse_iteratorIPNS_13unordered_mapINS_12basic_stringIcNS_11char_traitsIcEENS_9allocatorIcEEEENS_10shared_ptrI8VariableEENS_4hashIS7_EENS_8equal_toIS7_EENS5_INS_4pairIKS7_SA_EEEEEEEppB8ue170006Ev, symObjAddr: 0x14458, symBinAddr: 0x10001DC20, symSize: 0x20 }
  - { offsetInCU: 0x56EFB, offset: 0x6DBB1, size: 0x8, addend: 0x0, symName: __ZNSt3__128__exception_guard_exceptionsINS_29_AllocatorDestroyRangeReverseINS_9allocatorINS_13unordered_mapINS_12basic_stringIcNS_11char_traitsIcEENS2_IcEEEENS_10shared_ptrI8VariableEENS_4hashIS8_EENS_8equal_toIS8_EENS2_INS_4pairIKS8_SB_EEEEEEEENS_16reverse_iteratorIPSK_EEEEE10__completeB8ue170006Ev, symObjAddr: 0x14478, symBinAddr: 0x10001DC40, symSize: 0x1C }
  - { offsetInCU: 0x56F21, offset: 0x6DBD7, size: 0x8, addend: 0x0, symName: __ZNSt3__128__exception_guard_exceptionsINS_29_AllocatorDestroyRangeReverseINS_9allocatorINS_13unordered_mapINS_12basic_stringIcNS_11char_traitsIcEENS2_IcEEEENS_10shared_ptrI8VariableEENS_4hashIS8_EENS_8equal_toIS8_EENS2_INS_4pairIKS8_SB_EEEEEEEENS_16reverse_iteratorIPSK_EEEEED1B8ue170006Ev, symObjAddr: 0x14494, symBinAddr: 0x10001DC5C, symSize: 0x2C }
  - { offsetInCU: 0x56F4B, offset: 0x6DC01, size: 0x8, addend: 0x0, symName: __ZNSt3__128__exception_guard_exceptionsINS_29_AllocatorDestroyRangeReverseINS_9allocatorINS_13unordered_mapINS_12basic_stringIcNS_11char_traitsIcEENS2_IcEEEENS_10shared_ptrI8VariableEENS_4hashIS8_EENS_8equal_toIS8_EENS2_INS_4pairIKS8_SB_EEEEEEEENS_16reverse_iteratorIPSK_EEEEEC1B8ue170006ESP_, symObjAddr: 0x144C0, symBinAddr: 0x10001DC88, symSize: 0x34 }
  - { offsetInCU: 0x56F84, offset: 0x6DC3A, size: 0x8, addend: 0x0, symName: __ZNSt3__128__exception_guard_exceptionsINS_29_AllocatorDestroyRangeReverseINS_9allocatorINS_13unordered_mapINS_12basic_stringIcNS_11char_traitsIcEENS2_IcEEEENS_10shared_ptrI8VariableEENS_4hashIS8_EENS_8equal_toIS8_EENS2_INS_4pairIKS8_SB_EEEEEEEENS_16reverse_iteratorIPSK_EEEEEC2B8ue170006ESP_, symObjAddr: 0x144F4, symBinAddr: 0x10001DCBC, symSize: 0x30 }
  - { offsetInCU: 0x56FBD, offset: 0x6DC73, size: 0x8, addend: 0x0, symName: __ZNSt3__129_AllocatorDestroyRangeReverseINS_9allocatorINS_13unordered_mapINS_12basic_stringIcNS_11char_traitsIcEENS1_IcEEEENS_10shared_ptrI8VariableEENS_4hashIS7_EENS_8equal_toIS7_EENS1_INS_4pairIKS7_SA_EEEEEEEENS_16reverse_iteratorIPSJ_EEEC2B8ue170006ERSK_RSN_SQ_, symObjAddr: 0x14524, symBinAddr: 0x10001DCEC, symSize: 0x38 }
  - { offsetInCU: 0x57014, offset: 0x6DCCA, size: 0x8, addend: 0x0, symName: __ZNSt3__113unordered_mapINS_12basic_stringIcNS_11char_traitsIcEENS_9allocatorIcEEEENS_10shared_ptrI8VariableEENS_4hashIS6_EENS_8equal_toIS6_EENS4_INS_4pairIKS6_S9_EEEEEC1EOSI_, symObjAddr: 0x14598, symBinAddr: 0x10001DD60, symSize: 0x34 }
  - { offsetInCU: 0x5704F, offset: 0x6DD05, size: 0x8, addend: 0x0, symName: __ZNSt3__113unordered_mapINS_12basic_stringIcNS_11char_traitsIcEENS_9allocatorIcEEEENS_10shared_ptrI8VariableEENS_4hashIS6_EENS_8equal_toIS6_EENS4_INS_4pairIKS6_S9_EEEEEC2EOSI_, symObjAddr: 0x145CC, symBinAddr: 0x10001DD94, symSize: 0x34 }
  - { offsetInCU: 0x5708A, offset: 0x6DD40, size: 0x8, addend: 0x0, symName: __ZNSt3__112__hash_tableINS_17__hash_value_typeINS_12basic_stringIcNS_11char_traitsIcEENS_9allocatorIcEEEENS_10shared_ptrI8VariableEEEENS_22__unordered_map_hasherIS7_SB_NS_4hashIS7_EENS_8equal_toIS7_EELb1EEENS_21__unordered_map_equalIS7_SB_SG_SE_Lb1EEENS5_ISB_EEEC1EOSL_, symObjAddr: 0x14600, symBinAddr: 0x10001DDC8, symSize: 0x34 }
  - { offsetInCU: 0x570C5, offset: 0x6DD7B, size: 0x8, addend: 0x0, symName: __ZNSt3__112__hash_tableINS_17__hash_value_typeINS_12basic_stringIcNS_11char_traitsIcEENS_9allocatorIcEEEENS_10shared_ptrI8VariableEEEENS_22__unordered_map_hasherIS7_SB_NS_4hashIS7_EENS_8equal_toIS7_EELb1EEENS_21__unordered_map_equalIS7_SB_SG_SE_Lb1EEENS5_ISB_EEEC2EOSL_, symObjAddr: 0x14634, symBinAddr: 0x10001DDFC, symSize: 0x10C }
  - { offsetInCU: 0x57100, offset: 0x6DDB6, size: 0x8, addend: 0x0, symName: __ZNSt3__110unique_ptrIA_PNS_16__hash_node_baseIPNS_11__hash_nodeINS_17__hash_value_typeINS_12basic_stringIcNS_11char_traitsIcEENS_9allocatorIcEEEENS_10shared_ptrI8VariableEEEEPvEEEENS_25__bucket_list_deallocatorINS7_ISI_EEEEEC1B8ue170006EOSN_, symObjAddr: 0x14740, symBinAddr: 0x10001DF08, symSize: 0x34 }
  - { offsetInCU: 0x57139, offset: 0x6DDEF, size: 0x8, addend: 0x0, symName: __ZNSt3__112__hash_tableINS_17__hash_value_typeINS_12basic_stringIcNS_11char_traitsIcEENS_9allocatorIcEEEENS_10shared_ptrI8VariableEEEENS_22__unordered_map_hasherIS7_SB_NS_4hashIS7_EENS_8equal_toIS7_EELb1EEENS_21__unordered_map_equalIS7_SB_SG_SE_Lb1EEENS5_ISB_EEE4sizeB8ue170006Ev, symObjAddr: 0x14774, symBinAddr: 0x10001DF3C, symSize: 0x28 }
  - { offsetInCU: 0x5715F, offset: 0x6DE15, size: 0x8, addend: 0x0, symName: __ZNSt3__116__hash_node_baseIPNS_11__hash_nodeINS_17__hash_value_typeINS_12basic_stringIcNS_11char_traitsIcEENS_9allocatorIcEEEENS_10shared_ptrI8VariableEEEEPvEEE5__ptrB8ue170006Ev, symObjAddr: 0x1479C, symBinAddr: 0x10001DF64, symSize: 0x24 }
  - { offsetInCU: 0x57185, offset: 0x6DE3B, size: 0x8, addend: 0x0, symName: __ZNKSt3__110unique_ptrIA_PNS_16__hash_node_baseIPNS_11__hash_nodeINS_17__hash_value_typeINS_12basic_stringIcNS_11char_traitsIcEENS_9allocatorIcEEEENS_10shared_ptrI8VariableEEEEPvEEEENS_25__bucket_list_deallocatorINS7_ISI_EEEEEixB8ue170006Em, symObjAddr: 0x147C0, symBinAddr: 0x10001DF88, symSize: 0x34 }
  - { offsetInCU: 0x571BA, offset: 0x6DE70, size: 0x8, addend: 0x0, symName: __ZNKSt3__116__hash_node_baseIPNS_11__hash_nodeINS_17__hash_value_typeINS_12basic_stringIcNS_11char_traitsIcEENS_9allocatorIcEEEENS_10shared_ptrI8VariableEEEEPvEEE6__hashB8ue170006Ev, symObjAddr: 0x1488C, symBinAddr: 0x10001E054, symSize: 0x18 }
  - { offsetInCU: 0x571E0, offset: 0x6DE96, size: 0x8, addend: 0x0, symName: __ZNKSt3__112__hash_tableINS_17__hash_value_typeINS_12basic_stringIcNS_11char_traitsIcEENS_9allocatorIcEEEENS_10shared_ptrI8VariableEEEENS_22__unordered_map_hasherIS7_SB_NS_4hashIS7_EENS_8equal_toIS7_EELb1EEENS_21__unordered_map_equalIS7_SB_SG_SE_Lb1EEENS5_ISB_EEE12bucket_countB8ue170006Ev, symObjAddr: 0x148A4, symBinAddr: 0x10001E06C, symSize: 0x28 }
  - { offsetInCU: 0x57206, offset: 0x6DEBC, size: 0x8, addend: 0x0, symName: __ZNSt3__110unique_ptrIA_PNS_16__hash_node_baseIPNS_11__hash_nodeINS_17__hash_value_typeINS_12basic_stringIcNS_11char_traitsIcEENS_9allocatorIcEEEENS_10shared_ptrI8VariableEEEEPvEEEENS_25__bucket_list_deallocatorINS7_ISI_EEEEEC2B8ue170006EOSN_, symObjAddr: 0x148CC, symBinAddr: 0x10001E094, symSize: 0x60 }
  - { offsetInCU: 0x5723F, offset: 0x6DEF5, size: 0x8, addend: 0x0, symName: __ZNSt3__110unique_ptrIA_PNS_16__hash_node_baseIPNS_11__hash_nodeINS_17__hash_value_typeINS_12basic_stringIcNS_11char_traitsIcEENS_9allocatorIcEEEENS_10shared_ptrI8VariableEEEEPvEEEENS_25__bucket_list_deallocatorINS7_ISI_EEEEE7releaseB8ue170006Ev, symObjAddr: 0x1492C, symBinAddr: 0x10001E0F4, symSize: 0x44 }
  - { offsetInCU: 0x57274, offset: 0x6DF2A, size: 0x8, addend: 0x0, symName: __ZNSt3__110unique_ptrIA_PNS_16__hash_node_baseIPNS_11__hash_nodeINS_17__hash_value_typeINS_12basic_stringIcNS_11char_traitsIcEENS_9allocatorIcEEEENS_10shared_ptrI8VariableEEEEPvEEEENS_25__bucket_list_deallocatorINS7_ISI_EEEEE11get_deleterB8ue170006Ev, symObjAddr: 0x14970, symBinAddr: 0x10001E138, symSize: 0x24 }
  - { offsetInCU: 0x5729F, offset: 0x6DF55, size: 0x8, addend: 0x0, symName: __ZNSt3__117__compressed_pairIPPNS_16__hash_node_baseIPNS_11__hash_nodeINS_17__hash_value_typeINS_12basic_stringIcNS_11char_traitsIcEENS_9allocatorIcEEEENS_10shared_ptrI8VariableEEEEPvEEEENS_25__bucket_list_deallocatorINS7_ISI_EEEEEC1B8ue170006ISJ_SM_EEOT_OT0_, symObjAddr: 0x14994, symBinAddr: 0x10001E15C, symSize: 0x3C }
  - { offsetInCU: 0x572F7, offset: 0x6DFAD, size: 0x8, addend: 0x0, symName: __ZNSt3__117__compressed_pairIPPNS_16__hash_node_baseIPNS_11__hash_nodeINS_17__hash_value_typeINS_12basic_stringIcNS_11char_traitsIcEENS_9allocatorIcEEEENS_10shared_ptrI8VariableEEEEPvEEEENS_25__bucket_list_deallocatorINS7_ISI_EEEEE5firstB8ue170006Ev, symObjAddr: 0x149D0, symBinAddr: 0x10001E198, symSize: 0x24 }
  - { offsetInCU: 0x5731D, offset: 0x6DFD3, size: 0x8, addend: 0x0, symName: __ZNSt3__122__compressed_pair_elemIPPNS_16__hash_node_baseIPNS_11__hash_nodeINS_17__hash_value_typeINS_12basic_stringIcNS_11char_traitsIcEENS_9allocatorIcEEEENS_10shared_ptrI8VariableEEEEPvEEEELi0ELb0EE5__getB8ue170006Ev, symObjAddr: 0x149F4, symBinAddr: 0x10001E1BC, symSize: 0x14 }
  - { offsetInCU: 0x57343, offset: 0x6DFF9, size: 0x8, addend: 0x0, symName: __ZNSt3__117__compressed_pairIPPNS_16__hash_node_baseIPNS_11__hash_nodeINS_17__hash_value_typeINS_12basic_stringIcNS_11char_traitsIcEENS_9allocatorIcEEEENS_10shared_ptrI8VariableEEEEPvEEEENS_25__bucket_list_deallocatorINS7_ISI_EEEEE6secondB8ue170006Ev, symObjAddr: 0x14A08, symBinAddr: 0x10001E1D0, symSize: 0x28 }
  - { offsetInCU: 0x57369, offset: 0x6E01F, size: 0x8, addend: 0x0, symName: __ZNSt3__122__compressed_pair_elemINS_25__bucket_list_deallocatorINS_9allocatorIPNS_16__hash_node_baseIPNS_11__hash_nodeINS_17__hash_value_typeINS_12basic_stringIcNS_11char_traitsIcEENS2_IcEEEENS_10shared_ptrI8VariableEEEEPvEEEEEEEELi1ELb0EE5__getB8ue170006Ev, symObjAddr: 0x14A30, symBinAddr: 0x10001E1F8, symSize: 0x14 }
  - { offsetInCU: 0x5738F, offset: 0x6E045, size: 0x8, addend: 0x0, symName: __ZNSt3__117__compressed_pairIPPNS_16__hash_node_baseIPNS_11__hash_nodeINS_17__hash_value_typeINS_12basic_stringIcNS_11char_traitsIcEENS_9allocatorIcEEEENS_10shared_ptrI8VariableEEEEPvEEEENS_25__bucket_list_deallocatorINS7_ISI_EEEEEC2B8ue170006ISJ_SM_EEOT_OT0_, symObjAddr: 0x14A44, symBinAddr: 0x10001E20C, symSize: 0x48 }
  - { offsetInCU: 0x573E7, offset: 0x6E09D, size: 0x8, addend: 0x0, symName: __ZNSt3__122__compressed_pair_elemIPPNS_16__hash_node_baseIPNS_11__hash_nodeINS_17__hash_value_typeINS_12basic_stringIcNS_11char_traitsIcEENS_9allocatorIcEEEENS_10shared_ptrI8VariableEEEEPvEEEELi0ELb0EEC2B8ue170006ISJ_vEEOT_, symObjAddr: 0x14A8C, symBinAddr: 0x10001E254, symSize: 0x24 }
  - { offsetInCU: 0x57429, offset: 0x6E0DF, size: 0x8, addend: 0x0, symName: __ZNSt3__122__compressed_pair_elemINS_25__bucket_list_deallocatorINS_9allocatorIPNS_16__hash_node_baseIPNS_11__hash_nodeINS_17__hash_value_typeINS_12basic_stringIcNS_11char_traitsIcEENS2_IcEEEENS_10shared_ptrI8VariableEEEEPvEEEEEEEELi1ELb0EEC2B8ue170006ISL_vEEOT_, symObjAddr: 0x14AB0, symBinAddr: 0x10001E278, symSize: 0x34 }
  - { offsetInCU: 0x5746B, offset: 0x6E121, size: 0x8, addend: 0x0, symName: __ZNSt3__125__bucket_list_deallocatorINS_9allocatorIPNS_16__hash_node_baseIPNS_11__hash_nodeINS_17__hash_value_typeINS_12basic_stringIcNS_11char_traitsIcEENS1_IcEEEENS_10shared_ptrI8VariableEEEEPvEEEEEEEC1B8ue170006EOSK_, symObjAddr: 0x14AE4, symBinAddr: 0x10001E2AC, symSize: 0x34 }
  - { offsetInCU: 0x574A4, offset: 0x6E15A, size: 0x8, addend: 0x0, symName: __ZNSt3__125__bucket_list_deallocatorINS_9allocatorIPNS_16__hash_node_baseIPNS_11__hash_nodeINS_17__hash_value_typeINS_12basic_stringIcNS_11char_traitsIcEENS1_IcEEEENS_10shared_ptrI8VariableEEEEPvEEEEEEEC2B8ue170006EOSK_, symObjAddr: 0x14B18, symBinAddr: 0x10001E2E0, symSize: 0x48 }
  - { offsetInCU: 0x574DD, offset: 0x6E193, size: 0x8, addend: 0x0, symName: __ZNSt3__125__bucket_list_deallocatorINS_9allocatorIPNS_16__hash_node_baseIPNS_11__hash_nodeINS_17__hash_value_typeINS_12basic_stringIcNS_11char_traitsIcEENS1_IcEEEENS_10shared_ptrI8VariableEEEEPvEEEEEEE4sizeB8ue170006Ev, symObjAddr: 0x14B60, symBinAddr: 0x10001E328, symSize: 0x24 }
  - { offsetInCU: 0x57503, offset: 0x6E1B9, size: 0x8, addend: 0x0, symName: __ZNSt3__117__compressed_pairImNS_9allocatorIPNS_16__hash_node_baseIPNS_11__hash_nodeINS_17__hash_value_typeINS_12basic_stringIcNS_11char_traitsIcEENS1_IcEEEENS_10shared_ptrI8VariableEEEEPvEEEEEEE5firstB8ue170006Ev, symObjAddr: 0x14B84, symBinAddr: 0x10001E34C, symSize: 0x24 }
  - { offsetInCU: 0x57529, offset: 0x6E1DF, size: 0x8, addend: 0x0, symName: __ZNSt3__117__compressed_pairImNS_22__unordered_map_hasherINS_12basic_stringIcNS_11char_traitsIcEENS_9allocatorIcEEEENS_17__hash_value_typeIS7_NS_10shared_ptrI8VariableEEEENS_4hashIS7_EENS_8equal_toIS7_EELb1EEEE5firstB8ue170006Ev, symObjAddr: 0x14BA8, symBinAddr: 0x10001E370, symSize: 0x24 }
  - { offsetInCU: 0x5754F, offset: 0x6E205, size: 0x8, addend: 0x0, symName: __ZNKSt3__117__compressed_pairIPPNS_16__hash_node_baseIPNS_11__hash_nodeINS_17__hash_value_typeINS_12basic_stringIcNS_11char_traitsIcEENS_9allocatorIcEEEENS_10shared_ptrI8VariableEEEEPvEEEENS_25__bucket_list_deallocatorINS7_ISI_EEEEE5firstB8ue170006Ev, symObjAddr: 0x14BCC, symBinAddr: 0x10001E394, symSize: 0x24 }
  - { offsetInCU: 0x57575, offset: 0x6E22B, size: 0x8, addend: 0x0, symName: __ZNKSt3__122__compressed_pair_elemIPPNS_16__hash_node_baseIPNS_11__hash_nodeINS_17__hash_value_typeINS_12basic_stringIcNS_11char_traitsIcEENS_9allocatorIcEEEENS_10shared_ptrI8VariableEEEEPvEEEELi0ELb0EE5__getB8ue170006Ev, symObjAddr: 0x14BF0, symBinAddr: 0x10001E3B8, symSize: 0x14 }
  - { offsetInCU: 0x5759B, offset: 0x6E251, size: 0x8, addend: 0x0, symName: __ZNKSt3__110unique_ptrIA_PNS_16__hash_node_baseIPNS_11__hash_nodeINS_17__hash_value_typeINS_12basic_stringIcNS_11char_traitsIcEENS_9allocatorIcEEEENS_10shared_ptrI8VariableEEEEPvEEEENS_25__bucket_list_deallocatorINS7_ISI_EEEEE11get_deleterB8ue170006Ev, symObjAddr: 0x14C04, symBinAddr: 0x10001E3CC, symSize: 0x24 }
  - { offsetInCU: 0x575C1, offset: 0x6E277, size: 0x8, addend: 0x0, symName: __ZNKSt3__125__bucket_list_deallocatorINS_9allocatorIPNS_16__hash_node_baseIPNS_11__hash_nodeINS_17__hash_value_typeINS_12basic_stringIcNS_11char_traitsIcEENS1_IcEEEENS_10shared_ptrI8VariableEEEEPvEEEEEEE4sizeB8ue170006Ev, symObjAddr: 0x14C28, symBinAddr: 0x10001E3F0, symSize: 0x28 }
  - { offsetInCU: 0x575E7, offset: 0x6E29D, size: 0x8, addend: 0x0, symName: __ZNKSt3__117__compressed_pairIPPNS_16__hash_node_baseIPNS_11__hash_nodeINS_17__hash_value_typeINS_12basic_stringIcNS_11char_traitsIcEENS_9allocatorIcEEEENS_10shared_ptrI8VariableEEEEPvEEEENS_25__bucket_list_deallocatorINS7_ISI_EEEEE6secondB8ue170006Ev, symObjAddr: 0x14C50, symBinAddr: 0x10001E418, symSize: 0x28 }
  - { offsetInCU: 0x5760D, offset: 0x6E2C3, size: 0x8, addend: 0x0, symName: __ZNKSt3__122__compressed_pair_elemINS_25__bucket_list_deallocatorINS_9allocatorIPNS_16__hash_node_baseIPNS_11__hash_nodeINS_17__hash_value_typeINS_12basic_stringIcNS_11char_traitsIcEENS2_IcEEEENS_10shared_ptrI8VariableEEEEPvEEEEEEEELi1ELb0EE5__getB8ue170006Ev, symObjAddr: 0x14C78, symBinAddr: 0x10001E440, symSize: 0x14 }
  - { offsetInCU: 0x57633, offset: 0x6E2E9, size: 0x8, addend: 0x0, symName: __ZNKSt3__117__compressed_pairImNS_9allocatorIPNS_16__hash_node_baseIPNS_11__hash_nodeINS_17__hash_value_typeINS_12basic_stringIcNS_11char_traitsIcEENS1_IcEEEENS_10shared_ptrI8VariableEEEEPvEEEEEEE5firstB8ue170006Ev, symObjAddr: 0x14C8C, symBinAddr: 0x10001E454, symSize: 0x24 }
  - { offsetInCU: 0x57659, offset: 0x6E30F, size: 0x8, addend: 0x0, symName: __ZNKSt3__122__compressed_pair_elemImLi0ELb0EE5__getB8ue170006Ev, symObjAddr: 0x14CB0, symBinAddr: 0x10001E478, symSize: 0x14 }
  - { offsetInCU: 0x57684, offset: 0x6E33A, size: 0x8, addend: 0x0, symName: __ZNSt3__119__to_address_helperINS_16reverse_iteratorIPNS_13unordered_mapINS_12basic_stringIcNS_11char_traitsIcEENS_9allocatorIcEEEENS_10shared_ptrI8VariableEENS_4hashIS8_EENS_8equal_toIS8_EENS6_INS_4pairIKS8_SB_EEEEEEEEvE6__callB8ue170006ERKSM_, symObjAddr: 0x14CC4, symBinAddr: 0x10001E48C, symSize: 0x38 }
  - { offsetInCU: 0x576A7, offset: 0x6E35D, size: 0x8, addend: 0x0, symName: __ZNKSt3__116reverse_iteratorIPNS_13unordered_mapINS_12basic_stringIcNS_11char_traitsIcEENS_9allocatorIcEEEENS_10shared_ptrI8VariableEENS_4hashIS7_EENS_8equal_toIS7_EENS5_INS_4pairIKS7_SA_EEEEEEEptB8ue170006Ev, symObjAddr: 0x14CFC, symBinAddr: 0x10001E4C4, symSize: 0x2C }
  - { offsetInCU: 0x576CD, offset: 0x6E383, size: 0x8, addend: 0x0, symName: __ZNSt3__128__exception_guard_exceptionsINS_29_AllocatorDestroyRangeReverseINS_9allocatorINS_13unordered_mapINS_12basic_stringIcNS_11char_traitsIcEENS2_IcEEEENS_10shared_ptrI8VariableEENS_4hashIS8_EENS_8equal_toIS8_EENS2_INS_4pairIKS8_SB_EEEEEEEENS_16reverse_iteratorIPSK_EEEEED2B8ue170006Ev, symObjAddr: 0x14DCC, symBinAddr: 0x10001E594, symSize: 0x50 }
  - { offsetInCU: 0x576F7, offset: 0x6E3AD, size: 0x8, addend: 0x0, symName: __ZNKSt3__129_AllocatorDestroyRangeReverseINS_9allocatorINS_13unordered_mapINS_12basic_stringIcNS_11char_traitsIcEENS1_IcEEEENS_10shared_ptrI8VariableEENS_4hashIS7_EENS_8equal_toIS7_EENS1_INS_4pairIKS7_SA_EEEEEEEENS_16reverse_iteratorIPSJ_EEEclB8ue170006Ev, symObjAddr: 0x14E1C, symBinAddr: 0x10001E5E4, symSize: 0xB4 }
  - { offsetInCU: 0x5771E, offset: 0x6E3D4, size: 0x8, addend: 0x0, symName: __ZNSt3__116reverse_iteratorINS0_IPNS_13unordered_mapINS_12basic_stringIcNS_11char_traitsIcEENS_9allocatorIcEEEENS_10shared_ptrI8VariableEENS_4hashIS7_EENS_8equal_toIS7_EENS5_INS_4pairIKS7_SA_EEEEEEEEEC1B8ue170006ESL_, symObjAddr: 0x14F40, symBinAddr: 0x10001E708, symSize: 0x3C }
  - { offsetInCU: 0x57756, offset: 0x6E40C, size: 0x8, addend: 0x0, symName: __ZNSt3__116allocator_traitsINS_9allocatorINS_13unordered_mapINS_12basic_stringIcNS_11char_traitsIcEENS1_IcEEEENS_10shared_ptrI8VariableEENS_4hashIS7_EENS_8equal_toIS7_EENS1_INS_4pairIKS7_SA_EEEEEEEEE7destroyB8ue170006ISJ_vvEEvRSK_PT_, symObjAddr: 0x14FDC, symBinAddr: 0x10001E7A4, symSize: 0x28 }
  - { offsetInCU: 0x57791, offset: 0x6E447, size: 0x8, addend: 0x0, symName: __ZNSt3__116reverse_iteratorINS0_IPNS_13unordered_mapINS_12basic_stringIcNS_11char_traitsIcEENS_9allocatorIcEEEENS_10shared_ptrI8VariableEENS_4hashIS7_EENS_8equal_toIS7_EENS5_INS_4pairIKS7_SA_EEEEEEEEEppB8ue170006Ev, symObjAddr: 0x15028, symBinAddr: 0x10001E7F0, symSize: 0x30 }
  - { offsetInCU: 0x577B7, offset: 0x6E46D, size: 0x8, addend: 0x0, symName: __ZNKSt3__116reverse_iteratorINS0_IPNS_13unordered_mapINS_12basic_stringIcNS_11char_traitsIcEENS_9allocatorIcEEEENS_10shared_ptrI8VariableEENS_4hashIS7_EENS_8equal_toIS7_EENS5_INS_4pairIKS7_SA_EEEEEEEEE4baseB8ue170006Ev, symObjAddr: 0x15058, symBinAddr: 0x10001E820, symSize: 0x24 }
  - { offsetInCU: 0x577DD, offset: 0x6E493, size: 0x8, addend: 0x0, symName: __ZNSt3__113unordered_mapINS_12basic_stringIcNS_11char_traitsIcEENS_9allocatorIcEEEENS_10shared_ptrI8VariableEENS_4hashIS6_EENS_8equal_toIS6_EENS4_INS_4pairIKS6_S9_EEEEED1B8ue170006Ev, symObjAddr: 0x150C4, symBinAddr: 0x10001E88C, symSize: 0x2C }
  - { offsetInCU: 0x57807, offset: 0x6E4BD, size: 0x8, addend: 0x0, symName: __ZNSt3__113unordered_mapINS_12basic_stringIcNS_11char_traitsIcEENS_9allocatorIcEEEENS_10shared_ptrI8VariableEENS_4hashIS6_EENS_8equal_toIS6_EENS4_INS_4pairIKS6_S9_EEEEED2B8ue170006Ev, symObjAddr: 0x150F0, symBinAddr: 0x10001E8B8, symSize: 0x2C }
  - { offsetInCU: 0x57831, offset: 0x6E4E7, size: 0x8, addend: 0x0, symName: __ZNSt3__112__hash_tableINS_17__hash_value_typeINS_12basic_stringIcNS_11char_traitsIcEENS_9allocatorIcEEEENS_10shared_ptrI8VariableEEEENS_22__unordered_map_hasherIS7_SB_NS_4hashIS7_EENS_8equal_toIS7_EELb1EEENS_21__unordered_map_equalIS7_SB_SG_SE_Lb1EEENS5_ISB_EEED1Ev, symObjAddr: 0x1511C, symBinAddr: 0x10001E8E4, symSize: 0x2C }
  - { offsetInCU: 0x5785D, offset: 0x6E513, size: 0x8, addend: 0x0, symName: __ZNSt3__112__hash_tableINS_17__hash_value_typeINS_12basic_stringIcNS_11char_traitsIcEENS_9allocatorIcEEEENS_10shared_ptrI8VariableEEEENS_22__unordered_map_hasherIS7_SB_NS_4hashIS7_EENS_8equal_toIS7_EELb1EEENS_21__unordered_map_equalIS7_SB_SG_SE_Lb1EEENS5_ISB_EEED2Ev, symObjAddr: 0x15148, symBinAddr: 0x10001E910, symSize: 0x48 }
  - { offsetInCU: 0x57889, offset: 0x6E53F, size: 0x8, addend: 0x0, symName: __ZNSt3__112__hash_tableINS_17__hash_value_typeINS_12basic_stringIcNS_11char_traitsIcEENS_9allocatorIcEEEENS_10shared_ptrI8VariableEEEENS_22__unordered_map_hasherIS7_SB_NS_4hashIS7_EENS_8equal_toIS7_EELb1EEENS_21__unordered_map_equalIS7_SB_SG_SE_Lb1EEENS5_ISB_EEE17__deallocate_nodeEPNS_16__hash_node_baseIPNS_11__hash_nodeISB_PvEEEE, symObjAddr: 0x15190, symBinAddr: 0x10001E958, symSize: 0xA8 }
  - { offsetInCU: 0x578F3, offset: 0x6E5A9, size: 0x8, addend: 0x0, symName: __ZNSt3__110unique_ptrIA_PNS_16__hash_node_baseIPNS_11__hash_nodeINS_17__hash_value_typeINS_12basic_stringIcNS_11char_traitsIcEENS_9allocatorIcEEEENS_10shared_ptrI8VariableEEEEPvEEEENS_25__bucket_list_deallocatorINS7_ISI_EEEEED1B8ue170006Ev, symObjAddr: 0x15238, symBinAddr: 0x10001EA00, symSize: 0x2C }
  - { offsetInCU: 0x5791D, offset: 0x6E5D3, size: 0x8, addend: 0x0, symName: __ZNSt3__112__hash_tableINS_17__hash_value_typeINS_12basic_stringIcNS_11char_traitsIcEENS_9allocatorIcEEEENS_10shared_ptrI8VariableEEEENS_22__unordered_map_hasherIS7_SB_NS_4hashIS7_EENS_8equal_toIS7_EELb1EEENS_21__unordered_map_equalIS7_SB_SG_SE_Lb1EEENS5_ISB_EEE12__node_allocB8ue170006Ev, symObjAddr: 0x15264, symBinAddr: 0x10001EA2C, symSize: 0x28 }
  - { offsetInCU: 0x57943, offset: 0x6E5F9, size: 0x8, addend: 0x0, symName: __ZNSt3__116allocator_traitsINS_9allocatorINS_11__hash_nodeINS_17__hash_value_typeINS_12basic_stringIcNS_11char_traitsIcEENS1_IcEEEENS_10shared_ptrI8VariableEEEEPvEEEEE7destroyB8ue170006INS_4pairIKS8_SB_EEvvEEvRSF_PT_, symObjAddr: 0x1528C, symBinAddr: 0x10001EA54, symSize: 0x28 }
  - { offsetInCU: 0x5797E, offset: 0x6E634, size: 0x8, addend: 0x0, symName: __ZNSt3__122__hash_key_value_typesINS_17__hash_value_typeINS_12basic_stringIcNS_11char_traitsIcEENS_9allocatorIcEEEENS_10shared_ptrI8VariableEEEEE9__get_ptrB8ue170006ERSB_, symObjAddr: 0x152B4, symBinAddr: 0x10001EA7C, symSize: 0x24 }
  - { offsetInCU: 0x579A1, offset: 0x6E657, size: 0x8, addend: 0x0, symName: __ZNSt3__116allocator_traitsINS_9allocatorINS_11__hash_nodeINS_17__hash_value_typeINS_12basic_stringIcNS_11char_traitsIcEENS1_IcEEEENS_10shared_ptrI8VariableEEEEPvEEEEE10deallocateB8ue170006ERSF_PSE_m, symObjAddr: 0x152D8, symBinAddr: 0x10001EAA0, symSize: 0x34 }
  - { offsetInCU: 0x579E3, offset: 0x6E699, size: 0x8, addend: 0x0, symName: __ZNSt3__117__compressed_pairINS_16__hash_node_baseIPNS_11__hash_nodeINS_17__hash_value_typeINS_12basic_stringIcNS_11char_traitsIcEENS_9allocatorIcEEEENS_10shared_ptrI8VariableEEEEPvEEEENS7_ISF_EEE6secondB8ue170006Ev, symObjAddr: 0x1530C, symBinAddr: 0x10001EAD4, symSize: 0x24 }
  - { offsetInCU: 0x57A09, offset: 0x6E6BF, size: 0x8, addend: 0x0, symName: __ZNSt3__122__compressed_pair_elemINS_9allocatorINS_11__hash_nodeINS_17__hash_value_typeINS_12basic_stringIcNS_11char_traitsIcEENS1_IcEEEENS_10shared_ptrI8VariableEEEEPvEEEELi1ELb1EE5__getB8ue170006Ev, symObjAddr: 0x15330, symBinAddr: 0x10001EAF8, symSize: 0x14 }
  - { offsetInCU: 0x57A2F, offset: 0x6E6E5, size: 0x8, addend: 0x0, symName: __ZNSt3__14pairIKNS_12basic_stringIcNS_11char_traitsIcEENS_9allocatorIcEEEENS_10shared_ptrI8VariableEEED1Ev, symObjAddr: 0x1538C, symBinAddr: 0x10001EB54, symSize: 0x2C }
  - { offsetInCU: 0x57A5B, offset: 0x6E711, size: 0x8, addend: 0x0, symName: __ZNSt3__14pairIKNS_12basic_stringIcNS_11char_traitsIcEENS_9allocatorIcEEEENS_10shared_ptrI8VariableEEED2Ev, symObjAddr: 0x153B8, symBinAddr: 0x10001EB80, symSize: 0x38 }
  - { offsetInCU: 0x57A87, offset: 0x6E73D, size: 0x8, addend: 0x0, symName: __ZNSt3__110shared_ptrI8VariableED1B8ue170006Ev, symObjAddr: 0x153F0, symBinAddr: 0x10001EBB8, symSize: 0x2C }
  - { offsetInCU: 0x57AB1, offset: 0x6E767, size: 0x8, addend: 0x0, symName: __ZNSt3__110shared_ptrI8VariableED2B8ue170006Ev, symObjAddr: 0x1541C, symBinAddr: 0x10001EBE4, symSize: 0x54 }
  - { offsetInCU: 0x57ADB, offset: 0x6E791, size: 0x8, addend: 0x0, symName: __ZNSt3__19allocatorINS_11__hash_nodeINS_17__hash_value_typeINS_12basic_stringIcNS_11char_traitsIcEENS0_IcEEEENS_10shared_ptrI8VariableEEEEPvEEE10deallocateB8ue170006EPSD_m, symObjAddr: 0x15470, symBinAddr: 0x10001EC38, symSize: 0x44 }
  - { offsetInCU: 0x57B1D, offset: 0x6E7D3, size: 0x8, addend: 0x0, symName: __ZNSt3__110unique_ptrIA_PNS_16__hash_node_baseIPNS_11__hash_nodeINS_17__hash_value_typeINS_12basic_stringIcNS_11char_traitsIcEENS_9allocatorIcEEEENS_10shared_ptrI8VariableEEEEPvEEEENS_25__bucket_list_deallocatorINS7_ISI_EEEEED2B8ue170006Ev, symObjAddr: 0x154B4, symBinAddr: 0x10001EC7C, symSize: 0x30 }
  - { offsetInCU: 0x57B47, offset: 0x6E7FD, size: 0x8, addend: 0x0, symName: __ZNSt3__110unique_ptrIA_PNS_16__hash_node_baseIPNS_11__hash_nodeINS_17__hash_value_typeINS_12basic_stringIcNS_11char_traitsIcEENS_9allocatorIcEEEENS_10shared_ptrI8VariableEEEEPvEEEENS_25__bucket_list_deallocatorINS7_ISI_EEEEE5resetB8ue170006EDn, symObjAddr: 0x154E4, symBinAddr: 0x10001ECAC, symSize: 0x6C }
  - { offsetInCU: 0x57B88, offset: 0x6E83E, size: 0x8, addend: 0x0, symName: __ZNSt3__125__bucket_list_deallocatorINS_9allocatorIPNS_16__hash_node_baseIPNS_11__hash_nodeINS_17__hash_value_typeINS_12basic_stringIcNS_11char_traitsIcEENS1_IcEEEENS_10shared_ptrI8VariableEEEEPvEEEEEEEclB8ue170006EPSI_, symObjAddr: 0x15550, symBinAddr: 0x10001ED18, symSize: 0x58 }
  - { offsetInCU: 0x57BBD, offset: 0x6E873, size: 0x8, addend: 0x0, symName: __ZNSt3__116allocator_traitsINS_9allocatorIPNS_16__hash_node_baseIPNS_11__hash_nodeINS_17__hash_value_typeINS_12basic_stringIcNS_11char_traitsIcEENS1_IcEEEENS_10shared_ptrI8VariableEEEEPvEEEEEEE10deallocateB8ue170006ERSJ_PSI_m, symObjAddr: 0x155A8, symBinAddr: 0x10001ED70, symSize: 0x34 }
  - { offsetInCU: 0x57BFF, offset: 0x6E8B5, size: 0x8, addend: 0x0, symName: __ZNSt3__125__bucket_list_deallocatorINS_9allocatorIPNS_16__hash_node_baseIPNS_11__hash_nodeINS_17__hash_value_typeINS_12basic_stringIcNS_11char_traitsIcEENS1_IcEEEENS_10shared_ptrI8VariableEEEEPvEEEEEEE7__allocB8ue170006Ev, symObjAddr: 0x155DC, symBinAddr: 0x10001EDA4, symSize: 0x24 }
  - { offsetInCU: 0x57C25, offset: 0x6E8DB, size: 0x8, addend: 0x0, symName: __ZNSt3__19allocatorIPNS_16__hash_node_baseIPNS_11__hash_nodeINS_17__hash_value_typeINS_12basic_stringIcNS_11char_traitsIcEENS0_IcEEEENS_10shared_ptrI8VariableEEEEPvEEEEE10deallocateB8ue170006EPSH_m, symObjAddr: 0x15600, symBinAddr: 0x10001EDC8, symSize: 0x40 }
  - { offsetInCU: 0x57C67, offset: 0x6E91D, size: 0x8, addend: 0x0, symName: __ZNSt3__117__compressed_pairImNS_9allocatorIPNS_16__hash_node_baseIPNS_11__hash_nodeINS_17__hash_value_typeINS_12basic_stringIcNS_11char_traitsIcEENS1_IcEEEENS_10shared_ptrI8VariableEEEEPvEEEEEEE6secondB8ue170006Ev, symObjAddr: 0x15640, symBinAddr: 0x10001EE08, symSize: 0x24 }
  - { offsetInCU: 0x57C8D, offset: 0x6E943, size: 0x8, addend: 0x0, symName: __ZNSt3__122__compressed_pair_elemINS_9allocatorIPNS_16__hash_node_baseIPNS_11__hash_nodeINS_17__hash_value_typeINS_12basic_stringIcNS_11char_traitsIcEENS1_IcEEEENS_10shared_ptrI8VariableEEEEPvEEEEEELi1ELb1EE5__getB8ue170006Ev, symObjAddr: 0x15664, symBinAddr: 0x10001EE2C, symSize: 0x14 }
  - { offsetInCU: 0x57CB8, offset: 0x6E96E, size: 0x8, addend: 0x0, symName: __ZNSt3__119__to_address_helperINS_16reverse_iteratorINS1_IPNS_13unordered_mapINS_12basic_stringIcNS_11char_traitsIcEENS_9allocatorIcEEEENS_10shared_ptrI8VariableEENS_4hashIS8_EENS_8equal_toIS8_EENS6_INS_4pairIKS8_SB_EEEEEEEEEEvE6__callB8ue170006ERKSN_, symObjAddr: 0x15678, symBinAddr: 0x10001EE40, symSize: 0x38 }
  - { offsetInCU: 0x57CDB, offset: 0x6E991, size: 0x8, addend: 0x0, symName: __ZNKSt3__116reverse_iteratorINS0_IPNS_13unordered_mapINS_12basic_stringIcNS_11char_traitsIcEENS_9allocatorIcEEEENS_10shared_ptrI8VariableEENS_4hashIS7_EENS_8equal_toIS7_EENS5_INS_4pairIKS7_SA_EEEEEEEEEptB8ue170006Ev, symObjAddr: 0x156B0, symBinAddr: 0x10001EE78, symSize: 0x4C }
  - { offsetInCU: 0x57D01, offset: 0x6E9B7, size: 0x8, addend: 0x0, symName: __ZNSt3__116reverse_iteratorIPNS_13unordered_mapINS_12basic_stringIcNS_11char_traitsIcEENS_9allocatorIcEEEENS_10shared_ptrI8VariableEENS_4hashIS7_EENS_8equal_toIS7_EENS5_INS_4pairIKS7_SA_EEEEEEEpLB8ue170006El, symObjAddr: 0x157AC, symBinAddr: 0x10001EF74, symSize: 0x30 }
  - { offsetInCU: 0x57D35, offset: 0x6E9EB, size: 0x8, addend: 0x0, symName: __ZNSt3__116reverse_iteratorIPNS_13unordered_mapINS_12basic_stringIcNS_11char_traitsIcEENS_9allocatorIcEEEENS_10shared_ptrI8VariableEENS_4hashIS7_EENS_8equal_toIS7_EENS5_INS_4pairIKS7_SA_EEEEEEEmmB8ue170006Ev, symObjAddr: 0x157DC, symBinAddr: 0x10001EFA4, symSize: 0x20 }
  - { offsetInCU: 0x57D5B, offset: 0x6EA11, size: 0x8, addend: 0x0, symName: __ZNSt3__116reverse_iteratorINS0_IPNS_13unordered_mapINS_12basic_stringIcNS_11char_traitsIcEENS_9allocatorIcEEEENS_10shared_ptrI8VariableEENS_4hashIS7_EENS_8equal_toIS7_EENS5_INS_4pairIKS7_SA_EEEEEEEEEC2B8ue170006ESL_, symObjAddr: 0x157FC, symBinAddr: 0x10001EFC4, symSize: 0x2C }
  - { offsetInCU: 0x57D93, offset: 0x6EA49, size: 0x8, addend: 0x0, symName: __ZNSt3__116reverse_iteratorIPNS_13unordered_mapINS_12basic_stringIcNS_11char_traitsIcEENS_9allocatorIcEEEENS_10shared_ptrI8VariableEENS_4hashIS7_EENS_8equal_toIS7_EENS5_INS_4pairIKS7_SA_EEEEEEEC2B8ue170006ESK_, symObjAddr: 0x15828, symBinAddr: 0x10001EFF0, symSize: 0x28 }
  - { offsetInCU: 0x57DCB, offset: 0x6EA81, size: 0x8, addend: 0x0, symName: __ZNSt3__114__split_bufferINS_13unordered_mapINS_12basic_stringIcNS_11char_traitsIcEENS_9allocatorIcEEEENS_10shared_ptrI8VariableEENS_4hashIS7_EENS_8equal_toIS7_EENS5_INS_4pairIKS7_SA_EEEEEERNS5_ISJ_EEED2Ev, symObjAddr: 0x15850, symBinAddr: 0x10001F018, symSize: 0x8C }
  - { offsetInCU: 0x57DF7, offset: 0x6EAAD, size: 0x8, addend: 0x0, symName: __ZNSt3__114__split_bufferINS_13unordered_mapINS_12basic_stringIcNS_11char_traitsIcEENS_9allocatorIcEEEENS_10shared_ptrI8VariableEENS_4hashIS7_EENS_8equal_toIS7_EENS5_INS_4pairIKS7_SA_EEEEEERNS5_ISJ_EEE5clearB8ue170006Ev, symObjAddr: 0x158DC, symBinAddr: 0x10001F0A4, symSize: 0x28 }
  - { offsetInCU: 0x57E1D, offset: 0x6EAD3, size: 0x8, addend: 0x0, symName: __ZNSt3__116allocator_traitsINS_9allocatorINS_13unordered_mapINS_12basic_stringIcNS_11char_traitsIcEENS1_IcEEEENS_10shared_ptrI8VariableEENS_4hashIS7_EENS_8equal_toIS7_EENS1_INS_4pairIKS7_SA_EEEEEEEEE10deallocateB8ue170006ERSK_PSJ_m, symObjAddr: 0x15904, symBinAddr: 0x10001F0CC, symSize: 0x34 }
  - { offsetInCU: 0x57E5F, offset: 0x6EB15, size: 0x8, addend: 0x0, symName: __ZNKSt3__114__split_bufferINS_13unordered_mapINS_12basic_stringIcNS_11char_traitsIcEENS_9allocatorIcEEEENS_10shared_ptrI8VariableEENS_4hashIS7_EENS_8equal_toIS7_EENS5_INS_4pairIKS7_SA_EEEEEERNS5_ISJ_EEE8capacityB8ue170006Ev, symObjAddr: 0x15938, symBinAddr: 0x10001F100, symSize: 0x40 }
  - { offsetInCU: 0x57E85, offset: 0x6EB3B, size: 0x8, addend: 0x0, symName: __ZNSt3__114__split_bufferINS_13unordered_mapINS_12basic_stringIcNS_11char_traitsIcEENS_9allocatorIcEEEENS_10shared_ptrI8VariableEENS_4hashIS7_EENS_8equal_toIS7_EENS5_INS_4pairIKS7_SA_EEEEEERNS5_ISJ_EEE17__destruct_at_endB8ue170006EPSJ_, symObjAddr: 0x15978, symBinAddr: 0x10001F140, symSize: 0x2C }
  - { offsetInCU: 0x57EB9, offset: 0x6EB6F, size: 0x8, addend: 0x0, symName: __ZNSt3__114__split_bufferINS_13unordered_mapINS_12basic_stringIcNS_11char_traitsIcEENS_9allocatorIcEEEENS_10shared_ptrI8VariableEENS_4hashIS7_EENS_8equal_toIS7_EENS5_INS_4pairIKS7_SA_EEEEEERNS5_ISJ_EEE17__destruct_at_endB8ue170006EPSJ_NS_17integral_constantIbLb0EEE, symObjAddr: 0x159A4, symBinAddr: 0x10001F16C, symSize: 0x80 }
  - { offsetInCU: 0x57EF9, offset: 0x6EBAF, size: 0x8, addend: 0x0, symName: __ZNSt3__19allocatorINS_13unordered_mapINS_12basic_stringIcNS_11char_traitsIcEENS0_IcEEEENS_10shared_ptrI8VariableEENS_4hashIS6_EENS_8equal_toIS6_EENS0_INS_4pairIKS6_S9_EEEEEEE10deallocateB8ue170006EPSI_m, symObjAddr: 0x15A24, symBinAddr: 0x10001F1EC, symSize: 0x44 }
  - { offsetInCU: 0x57F3B, offset: 0x6EBF1, size: 0x8, addend: 0x0, symName: __ZNKSt3__114__split_bufferINS_13unordered_mapINS_12basic_stringIcNS_11char_traitsIcEENS_9allocatorIcEEEENS_10shared_ptrI8VariableEENS_4hashIS7_EENS_8equal_toIS7_EENS5_INS_4pairIKS7_SA_EEEEEERNS5_ISJ_EEE9__end_capB8ue170006Ev, symObjAddr: 0x15A68, symBinAddr: 0x10001F230, symSize: 0x28 }
  - { offsetInCU: 0x57F61, offset: 0x6EC17, size: 0x8, addend: 0x0, symName: __ZNKSt3__117__compressed_pairIPNS_13unordered_mapINS_12basic_stringIcNS_11char_traitsIcEENS_9allocatorIcEEEENS_10shared_ptrI8VariableEENS_4hashIS7_EENS_8equal_toIS7_EENS5_INS_4pairIKS7_SA_EEEEEERNS5_ISJ_EEE5firstB8ue170006Ev, symObjAddr: 0x15A90, symBinAddr: 0x10001F258, symSize: 0x24 }
  - { offsetInCU: 0x57F87, offset: 0x6EC3D, size: 0x8, addend: 0x0, symName: __ZNSt3__16vectorINS_13unordered_mapINS_12basic_stringIcNS_11char_traitsIcEENS_9allocatorIcEEEENS_10shared_ptrI8VariableEENS_4hashIS7_EENS_8equal_toIS7_EENS5_INS_4pairIKS7_SA_EEEEEENS5_ISJ_EEE22__base_destruct_at_endB8ue170006EPSJ_, symObjAddr: 0x15AB4, symBinAddr: 0x10001F27C, symSize: 0x8C }
  - { offsetInCU: 0x57FCB, offset: 0x6EC81, size: 0x8, addend: 0x0, symName: __ZNKSt3__16vectorINS_13unordered_mapINS_12basic_stringIcNS_11char_traitsIcEENS_9allocatorIcEEEENS_10shared_ptrI8VariableEENS_4hashIS7_EENS_8equal_toIS7_EENS5_INS_4pairIKS7_SA_EEEEEENS5_ISJ_EEE17__annotate_shrinkB8ue170006Em, symObjAddr: 0x15B40, symBinAddr: 0x10001F308, symSize: 0xD0 }
  - { offsetInCU: 0x58000, offset: 0x6ECB6, size: 0x8, addend: 0x0, symName: __ZNSt3__16vectorINS_13unordered_mapINS_12basic_stringIcNS_11char_traitsIcEENS_9allocatorIcEEEENS_10shared_ptrI7ASTNodeEENS_4hashIS7_EENS_8equal_toIS7_EENS5_INS_4pairIKS7_SA_EEEEEENS5_ISJ_EEE8__appendEm, symObjAddr: 0x15C10, symBinAddr: 0x10001F3D8, symSize: 0x108 }
  - { offsetInCU: 0x5805B, offset: 0x6ED11, size: 0x8, addend: 0x0, symName: __ZNSt3__16vectorINS_13unordered_mapINS_12basic_stringIcNS_11char_traitsIcEENS_9allocatorIcEEEENS_10shared_ptrI7ASTNodeEENS_4hashIS7_EENS_8equal_toIS7_EENS5_INS_4pairIKS7_SA_EEEEEENS5_ISJ_EEE17__destruct_at_endB8ue170006EPSJ_, symObjAddr: 0x15D18, symBinAddr: 0x10001F4E0, symSize: 0x4C }
  - { offsetInCU: 0x5809F, offset: 0x6ED55, size: 0x8, addend: 0x0, symName: __ZNSt3__16vectorINS_13unordered_mapINS_12basic_stringIcNS_11char_traitsIcEENS_9allocatorIcEEEENS_10shared_ptrI7ASTNodeEENS_4hashIS7_EENS_8equal_toIS7_EENS5_INS_4pairIKS7_SA_EEEEEENS5_ISJ_EEE9__end_capB8ue170006Ev, symObjAddr: 0x15D64, symBinAddr: 0x10001F52C, symSize: 0x28 }
  - { offsetInCU: 0x580C5, offset: 0x6ED7B, size: 0x8, addend: 0x0, symName: __ZNSt3__16vectorINS_13unordered_mapINS_12basic_stringIcNS_11char_traitsIcEENS_9allocatorIcEEEENS_10shared_ptrI7ASTNodeEENS_4hashIS7_EENS_8equal_toIS7_EENS5_INS_4pairIKS7_SA_EEEEEENS5_ISJ_EEE18__construct_at_endEm, symObjAddr: 0x15D8C, symBinAddr: 0x10001F554, symSize: 0xC8 }
  - { offsetInCU: 0x58137, offset: 0x6EDED, size: 0x8, addend: 0x0, symName: __ZNSt3__16vectorINS_13unordered_mapINS_12basic_stringIcNS_11char_traitsIcEENS_9allocatorIcEEEENS_10shared_ptrI7ASTNodeEENS_4hashIS7_EENS_8equal_toIS7_EENS5_INS_4pairIKS7_SA_EEEEEENS5_ISJ_EEE7__allocB8ue170006Ev, symObjAddr: 0x15E54, symBinAddr: 0x10001F61C, symSize: 0x28 }
  - { offsetInCU: 0x5815D, offset: 0x6EE13, size: 0x8, addend: 0x0, symName: __ZNKSt3__16vectorINS_13unordered_mapINS_12basic_stringIcNS_11char_traitsIcEENS_9allocatorIcEEEENS_10shared_ptrI7ASTNodeEENS_4hashIS7_EENS_8equal_toIS7_EENS5_INS_4pairIKS7_SA_EEEEEENS5_ISJ_EEE11__recommendB8ue170006Em, symObjAddr: 0x15E7C, symBinAddr: 0x10001F644, symSize: 0xB4 }
  - { offsetInCU: 0x581B2, offset: 0x6EE68, size: 0x8, addend: 0x0, symName: __ZNSt3__114__split_bufferINS_13unordered_mapINS_12basic_stringIcNS_11char_traitsIcEENS_9allocatorIcEEEENS_10shared_ptrI7ASTNodeEENS_4hashIS7_EENS_8equal_toIS7_EENS5_INS_4pairIKS7_SA_EEEEEERNS5_ISJ_EEEC1EmmSL_, symObjAddr: 0x15F30, symBinAddr: 0x10001F6F8, symSize: 0x44 }
  - { offsetInCU: 0x58208, offset: 0x6EEBE, size: 0x8, addend: 0x0, symName: __ZNSt3__114__split_bufferINS_13unordered_mapINS_12basic_stringIcNS_11char_traitsIcEENS_9allocatorIcEEEENS_10shared_ptrI7ASTNodeEENS_4hashIS7_EENS_8equal_toIS7_EENS5_INS_4pairIKS7_SA_EEEEEERNS5_ISJ_EEE18__construct_at_endEm, symObjAddr: 0x15F74, symBinAddr: 0x10001F73C, symSize: 0xB4 }
  - { offsetInCU: 0x5824D, offset: 0x6EF03, size: 0x8, addend: 0x0, symName: __ZNSt3__114__split_bufferINS_13unordered_mapINS_12basic_stringIcNS_11char_traitsIcEENS_9allocatorIcEEEENS_10shared_ptrI7ASTNodeEENS_4hashIS7_EENS_8equal_toIS7_EENS5_INS_4pairIKS7_SA_EEEEEERNS5_ISJ_EEED1Ev, symObjAddr: 0x16138, symBinAddr: 0x10001F900, symSize: 0x2C }
  - { offsetInCU: 0x58279, offset: 0x6EF2F, size: 0x8, addend: 0x0, symName: __ZNSt3__117__compressed_pairIPNS_13unordered_mapINS_12basic_stringIcNS_11char_traitsIcEENS_9allocatorIcEEEENS_10shared_ptrI7ASTNodeEENS_4hashIS7_EENS_8equal_toIS7_EENS5_INS_4pairIKS7_SA_EEEEEENS5_ISJ_EEE5firstB8ue170006Ev, symObjAddr: 0x16164, symBinAddr: 0x10001F92C, symSize: 0x24 }
  - { offsetInCU: 0x5829F, offset: 0x6EF55, size: 0x8, addend: 0x0, symName: __ZNSt3__122__compressed_pair_elemIPNS_13unordered_mapINS_12basic_stringIcNS_11char_traitsIcEENS_9allocatorIcEEEENS_10shared_ptrI7ASTNodeEENS_4hashIS7_EENS_8equal_toIS7_EENS5_INS_4pairIKS7_SA_EEEEEELi0ELb0EE5__getB8ue170006Ev, symObjAddr: 0x16188, symBinAddr: 0x10001F950, symSize: 0x14 }
  - { offsetInCU: 0x582DE, offset: 0x6EF94, size: 0x8, addend: 0x0, symName: __ZNSt3__16vectorINS_13unordered_mapINS_12basic_stringIcNS_11char_traitsIcEENS_9allocatorIcEEEENS_10shared_ptrI7ASTNodeEENS_4hashIS7_EENS_8equal_toIS7_EENS5_INS_4pairIKS7_SA_EEEEEENS5_ISJ_EEE21_ConstructTransactionC1B8ue170006ERSL_m, symObjAddr: 0x1619C, symBinAddr: 0x10001F964, symSize: 0x3C }
  - { offsetInCU: 0x58326, offset: 0x6EFDC, size: 0x8, addend: 0x0, symName: __ZNSt3__116allocator_traitsINS_9allocatorINS_13unordered_mapINS_12basic_stringIcNS_11char_traitsIcEENS1_IcEEEENS_10shared_ptrI7ASTNodeEENS_4hashIS7_EENS_8equal_toIS7_EENS1_INS_4pairIKS7_SA_EEEEEEEEE9constructB8ue170006ISJ_JEvvEEvRSK_PT_DpOT0_, symObjAddr: 0x161D8, symBinAddr: 0x10001F9A0, symSize: 0x28 }
  - { offsetInCU: 0x58366, offset: 0x6F01C, size: 0x8, addend: 0x0, symName: __ZNSt3__16vectorINS_13unordered_mapINS_12basic_stringIcNS_11char_traitsIcEENS_9allocatorIcEEEENS_10shared_ptrI7ASTNodeEENS_4hashIS7_EENS_8equal_toIS7_EENS5_INS_4pairIKS7_SA_EEEEEENS5_ISJ_EEE21_ConstructTransactionD1B8ue170006Ev, symObjAddr: 0x16214, symBinAddr: 0x10001F9DC, symSize: 0x2C }
  - { offsetInCU: 0x58390, offset: 0x6F046, size: 0x8, addend: 0x0, symName: __ZNSt3__16vectorINS_13unordered_mapINS_12basic_stringIcNS_11char_traitsIcEENS_9allocatorIcEEEENS_10shared_ptrI7ASTNodeEENS_4hashIS7_EENS_8equal_toIS7_EENS5_INS_4pairIKS7_SA_EEEEEENS5_ISJ_EEE21_ConstructTransactionC2B8ue170006ERSL_m, symObjAddr: 0x16240, symBinAddr: 0x10001FA08, symSize: 0x4C }
  - { offsetInCU: 0x583D8, offset: 0x6F08E, size: 0x8, addend: 0x0, symName: __ZNSt3__113unordered_mapINS_12basic_stringIcNS_11char_traitsIcEENS_9allocatorIcEEEENS_10shared_ptrI7ASTNodeEENS_4hashIS6_EENS_8equal_toIS6_EENS4_INS_4pairIKS6_S9_EEEEEC1B8ue170006Ev, symObjAddr: 0x162C0, symBinAddr: 0x10001FA88, symSize: 0x2C }
  - { offsetInCU: 0x58402, offset: 0x6F0B8, size: 0x8, addend: 0x0, symName: __ZNSt3__113unordered_mapINS_12basic_stringIcNS_11char_traitsIcEENS_9allocatorIcEEEENS_10shared_ptrI7ASTNodeEENS_4hashIS6_EENS_8equal_toIS6_EENS4_INS_4pairIKS6_S9_EEEEEC2B8ue170006Ev, symObjAddr: 0x162EC, symBinAddr: 0x10001FAB4, symSize: 0x2C }
  - { offsetInCU: 0x5842C, offset: 0x6F0E2, size: 0x8, addend: 0x0, symName: __ZNSt3__112__hash_tableINS_17__hash_value_typeINS_12basic_stringIcNS_11char_traitsIcEENS_9allocatorIcEEEENS_10shared_ptrI7ASTNodeEEEENS_22__unordered_map_hasherIS7_SB_NS_4hashIS7_EENS_8equal_toIS7_EELb1EEENS_21__unordered_map_equalIS7_SB_SG_SE_Lb1EEENS5_ISB_EEEC1Ev, symObjAddr: 0x16318, symBinAddr: 0x10001FAE0, symSize: 0x2C }
  - { offsetInCU: 0x58458, offset: 0x6F10E, size: 0x8, addend: 0x0, symName: __ZNSt3__112__hash_tableINS_17__hash_value_typeINS_12basic_stringIcNS_11char_traitsIcEENS_9allocatorIcEEEENS_10shared_ptrI7ASTNodeEEEENS_22__unordered_map_hasherIS7_SB_NS_4hashIS7_EENS_8equal_toIS7_EELb1EEENS_21__unordered_map_equalIS7_SB_SG_SE_Lb1EEENS5_ISB_EEEC2Ev, symObjAddr: 0x16344, symBinAddr: 0x10001FB0C, symSize: 0x7C }
  - { offsetInCU: 0x58484, offset: 0x6F13A, size: 0x8, addend: 0x0, symName: __ZNSt3__110unique_ptrIA_PNS_16__hash_node_baseIPNS_11__hash_nodeINS_17__hash_value_typeINS_12basic_stringIcNS_11char_traitsIcEENS_9allocatorIcEEEENS_10shared_ptrI7ASTNodeEEEEPvEEEENS_25__bucket_list_deallocatorINS7_ISI_EEEEEC1B8ue170006ILb1EvEEv, symObjAddr: 0x163C0, symBinAddr: 0x10001FB88, symSize: 0x2C }
  - { offsetInCU: 0x584B9, offset: 0x6F16F, size: 0x8, addend: 0x0, symName: __ZNSt3__117__compressed_pairINS_16__hash_node_baseIPNS_11__hash_nodeINS_17__hash_value_typeINS_12basic_stringIcNS_11char_traitsIcEENS_9allocatorIcEEEENS_10shared_ptrI7ASTNodeEEEEPvEEEENS7_ISF_EEEC1B8ue170006ILb1EvEEv, symObjAddr: 0x163EC, symBinAddr: 0x10001FBB4, symSize: 0x2C }
  - { offsetInCU: 0x584EE, offset: 0x6F1A4, size: 0x8, addend: 0x0, symName: __ZNSt3__117__compressed_pairImNS_22__unordered_map_hasherINS_12basic_stringIcNS_11char_traitsIcEENS_9allocatorIcEEEENS_17__hash_value_typeIS7_NS_10shared_ptrI7ASTNodeEEEENS_4hashIS7_EENS_8equal_toIS7_EELb1EEEEC1B8ue170006IiNS_18__default_init_tagEEEOT_OT0_, symObjAddr: 0x16418, symBinAddr: 0x10001FBE0, symSize: 0x3C }
  - { offsetInCU: 0x58546, offset: 0x6F1FC, size: 0x8, addend: 0x0, symName: __ZNSt3__117__compressed_pairIfNS_21__unordered_map_equalINS_12basic_stringIcNS_11char_traitsIcEENS_9allocatorIcEEEENS_17__hash_value_typeIS7_NS_10shared_ptrI7ASTNodeEEEENS_8equal_toIS7_EENS_4hashIS7_EELb1EEEEC1B8ue170006IfNS_18__default_init_tagEEEOT_OT0_, symObjAddr: 0x16454, symBinAddr: 0x10001FC1C, symSize: 0x3C }
  - { offsetInCU: 0x5859E, offset: 0x6F254, size: 0x8, addend: 0x0, symName: __ZNSt3__110unique_ptrIA_PNS_16__hash_node_baseIPNS_11__hash_nodeINS_17__hash_value_typeINS_12basic_stringIcNS_11char_traitsIcEENS_9allocatorIcEEEENS_10shared_ptrI7ASTNodeEEEEPvEEEENS_25__bucket_list_deallocatorINS7_ISI_EEEEEC2B8ue170006ILb1EvEEv, symObjAddr: 0x16490, symBinAddr: 0x10001FC58, symSize: 0x3C }
  - { offsetInCU: 0x585D3, offset: 0x6F289, size: 0x8, addend: 0x0, symName: __ZNSt3__117__compressed_pairIPPNS_16__hash_node_baseIPNS_11__hash_nodeINS_17__hash_value_typeINS_12basic_stringIcNS_11char_traitsIcEENS_9allocatorIcEEEENS_10shared_ptrI7ASTNodeEEEEPvEEEENS_25__bucket_list_deallocatorINS7_ISI_EEEEEC1B8ue170006INS_16__value_init_tagESP_EEOT_OT0_, symObjAddr: 0x164CC, symBinAddr: 0x10001FC94, symSize: 0x3C }
  - { offsetInCU: 0x5862B, offset: 0x6F2E1, size: 0x8, addend: 0x0, symName: __ZNSt3__117__compressed_pairIPPNS_16__hash_node_baseIPNS_11__hash_nodeINS_17__hash_value_typeINS_12basic_stringIcNS_11char_traitsIcEENS_9allocatorIcEEEENS_10shared_ptrI7ASTNodeEEEEPvEEEENS_25__bucket_list_deallocatorINS7_ISI_EEEEEC2B8ue170006INS_16__value_init_tagESP_EEOT_OT0_, symObjAddr: 0x16508, symBinAddr: 0x10001FCD0, symSize: 0x40 }
  - { offsetInCU: 0x58683, offset: 0x6F339, size: 0x8, addend: 0x0, symName: __ZNSt3__122__compressed_pair_elemIPPNS_16__hash_node_baseIPNS_11__hash_nodeINS_17__hash_value_typeINS_12basic_stringIcNS_11char_traitsIcEENS_9allocatorIcEEEENS_10shared_ptrI7ASTNodeEEEEPvEEEELi0ELb0EEC2B8ue170006ENS_16__value_init_tagE, symObjAddr: 0x16548, symBinAddr: 0x10001FD10, symSize: 0x18 }
  - { offsetInCU: 0x586B7, offset: 0x6F36D, size: 0x8, addend: 0x0, symName: __ZNSt3__122__compressed_pair_elemINS_25__bucket_list_deallocatorINS_9allocatorIPNS_16__hash_node_baseIPNS_11__hash_nodeINS_17__hash_value_typeINS_12basic_stringIcNS_11char_traitsIcEENS2_IcEEEENS_10shared_ptrI7ASTNodeEEEEPvEEEEEEEELi1ELb0EEC2B8ue170006ENS_16__value_init_tagE, symObjAddr: 0x16560, symBinAddr: 0x10001FD28, symSize: 0x2C }
  - { offsetInCU: 0x586EB, offset: 0x6F3A1, size: 0x8, addend: 0x0, symName: __ZNSt3__125__bucket_list_deallocatorINS_9allocatorIPNS_16__hash_node_baseIPNS_11__hash_nodeINS_17__hash_value_typeINS_12basic_stringIcNS_11char_traitsIcEENS1_IcEEEENS_10shared_ptrI7ASTNodeEEEEPvEEEEEEEC1B8ue170006Ev, symObjAddr: 0x1658C, symBinAddr: 0x10001FD54, symSize: 0x2C }
  - { offsetInCU: 0x58715, offset: 0x6F3CB, size: 0x8, addend: 0x0, symName: __ZNSt3__125__bucket_list_deallocatorINS_9allocatorIPNS_16__hash_node_baseIPNS_11__hash_nodeINS_17__hash_value_typeINS_12basic_stringIcNS_11char_traitsIcEENS1_IcEEEENS_10shared_ptrI7ASTNodeEEEEPvEEEEEEEC2B8ue170006Ev, symObjAddr: 0x165B8, symBinAddr: 0x10001FD80, symSize: 0x40 }
  - { offsetInCU: 0x5873F, offset: 0x6F3F5, size: 0x8, addend: 0x0, symName: __ZNSt3__117__compressed_pairImNS_9allocatorIPNS_16__hash_node_baseIPNS_11__hash_nodeINS_17__hash_value_typeINS_12basic_stringIcNS_11char_traitsIcEENS1_IcEEEENS_10shared_ptrI7ASTNodeEEEEPvEEEEEEEC1B8ue170006IiNS_18__default_init_tagEEEOT_OT0_, symObjAddr: 0x165F8, symBinAddr: 0x10001FDC0, symSize: 0x3C }
  - { offsetInCU: 0x58797, offset: 0x6F44D, size: 0x8, addend: 0x0, symName: __ZNSt3__117__compressed_pairImNS_9allocatorIPNS_16__hash_node_baseIPNS_11__hash_nodeINS_17__hash_value_typeINS_12basic_stringIcNS_11char_traitsIcEENS1_IcEEEENS_10shared_ptrI7ASTNodeEEEEPvEEEEEEEC2B8ue170006IiNS_18__default_init_tagEEEOT_OT0_, symObjAddr: 0x16634, symBinAddr: 0x10001FDFC, symSize: 0x40 }
  - { offsetInCU: 0x587EF, offset: 0x6F4A5, size: 0x8, addend: 0x0, symName: __ZNSt3__122__compressed_pair_elemINS_9allocatorIPNS_16__hash_node_baseIPNS_11__hash_nodeINS_17__hash_value_typeINS_12basic_stringIcNS_11char_traitsIcEENS1_IcEEEENS_10shared_ptrI7ASTNodeEEEEPvEEEEEELi1ELb1EEC2B8ue170006ENS_18__default_init_tagE, symObjAddr: 0x16674, symBinAddr: 0x10001FE3C, symSize: 0x2C }
  - { offsetInCU: 0x58823, offset: 0x6F4D9, size: 0x8, addend: 0x0, symName: __ZNSt3__19allocatorIPNS_16__hash_node_baseIPNS_11__hash_nodeINS_17__hash_value_typeINS_12basic_stringIcNS_11char_traitsIcEENS0_IcEEEENS_10shared_ptrI7ASTNodeEEEEPvEEEEEC2B8ue170006Ev, symObjAddr: 0x166A0, symBinAddr: 0x10001FE68, symSize: 0x2C }
  - { offsetInCU: 0x5884D, offset: 0x6F503, size: 0x8, addend: 0x0, symName: __ZNSt3__116__non_trivial_ifILb1ENS_9allocatorIPNS_16__hash_node_baseIPNS_11__hash_nodeINS_17__hash_value_typeINS_12basic_stringIcNS_11char_traitsIcEENS1_IcEEEENS_10shared_ptrI7ASTNodeEEEEPvEEEEEEEC2B8ue170006Ev, symObjAddr: 0x166CC, symBinAddr: 0x10001FE94, symSize: 0x14 }
  - { offsetInCU: 0x58877, offset: 0x6F52D, size: 0x8, addend: 0x0, symName: __ZNSt3__117__compressed_pairINS_16__hash_node_baseIPNS_11__hash_nodeINS_17__hash_value_typeINS_12basic_stringIcNS_11char_traitsIcEENS_9allocatorIcEEEENS_10shared_ptrI7ASTNodeEEEEPvEEEENS7_ISF_EEEC2B8ue170006ILb1EvEEv, symObjAddr: 0x166E0, symBinAddr: 0x10001FEA8, symSize: 0x34 }
  - { offsetInCU: 0x588AC, offset: 0x6F562, size: 0x8, addend: 0x0, symName: __ZNSt3__122__compressed_pair_elemINS_16__hash_node_baseIPNS_11__hash_nodeINS_17__hash_value_typeINS_12basic_stringIcNS_11char_traitsIcEENS_9allocatorIcEEEENS_10shared_ptrI7ASTNodeEEEEPvEEEELi0ELb0EEC2B8ue170006ENS_16__value_init_tagE, symObjAddr: 0x16714, symBinAddr: 0x10001FEDC, symSize: 0x2C }
  - { offsetInCU: 0x588E0, offset: 0x6F596, size: 0x8, addend: 0x0, symName: __ZNSt3__122__compressed_pair_elemINS_9allocatorINS_11__hash_nodeINS_17__hash_value_typeINS_12basic_stringIcNS_11char_traitsIcEENS1_IcEEEENS_10shared_ptrI7ASTNodeEEEEPvEEEELi1ELb1EEC2B8ue170006ENS_16__value_init_tagE, symObjAddr: 0x16740, symBinAddr: 0x10001FF08, symSize: 0x2C }
  - { offsetInCU: 0x58914, offset: 0x6F5CA, size: 0x8, addend: 0x0, symName: __ZNSt3__116__hash_node_baseIPNS_11__hash_nodeINS_17__hash_value_typeINS_12basic_stringIcNS_11char_traitsIcEENS_9allocatorIcEEEENS_10shared_ptrI7ASTNodeEEEEPvEEEC1B8ue170006Ev, symObjAddr: 0x1676C, symBinAddr: 0x10001FF34, symSize: 0x2C }
  - { offsetInCU: 0x5893E, offset: 0x6F5F4, size: 0x8, addend: 0x0, symName: __ZNSt3__116__hash_node_baseIPNS_11__hash_nodeINS_17__hash_value_typeINS_12basic_stringIcNS_11char_traitsIcEENS_9allocatorIcEEEENS_10shared_ptrI7ASTNodeEEEEPvEEEC2B8ue170006Ev, symObjAddr: 0x16798, symBinAddr: 0x10001FF60, symSize: 0x18 }
  - { offsetInCU: 0x58968, offset: 0x6F61E, size: 0x8, addend: 0x0, symName: __ZNSt3__19allocatorINS_11__hash_nodeINS_17__hash_value_typeINS_12basic_stringIcNS_11char_traitsIcEENS0_IcEEEENS_10shared_ptrI7ASTNodeEEEEPvEEEC2B8ue170006Ev, symObjAddr: 0x167B0, symBinAddr: 0x10001FF78, symSize: 0x2C }
  - { offsetInCU: 0x58992, offset: 0x6F648, size: 0x8, addend: 0x0, symName: __ZNSt3__116__non_trivial_ifILb1ENS_9allocatorINS_11__hash_nodeINS_17__hash_value_typeINS_12basic_stringIcNS_11char_traitsIcEENS1_IcEEEENS_10shared_ptrI7ASTNodeEEEEPvEEEEEC2B8ue170006Ev, symObjAddr: 0x167DC, symBinAddr: 0x10001FFA4, symSize: 0x14 }
  - { offsetInCU: 0x589BC, offset: 0x6F672, size: 0x8, addend: 0x0, symName: __ZNSt3__117__compressed_pairImNS_22__unordered_map_hasherINS_12basic_stringIcNS_11char_traitsIcEENS_9allocatorIcEEEENS_17__hash_value_typeIS7_NS_10shared_ptrI7ASTNodeEEEENS_4hashIS7_EENS_8equal_toIS7_EELb1EEEEC2B8ue170006IiNS_18__default_init_tagEEEOT_OT0_, symObjAddr: 0x167F0, symBinAddr: 0x10001FFB8, symSize: 0x40 }
  - { offsetInCU: 0x58A14, offset: 0x6F6CA, size: 0x8, addend: 0x0, symName: __ZNSt3__122__compressed_pair_elemINS_22__unordered_map_hasherINS_12basic_stringIcNS_11char_traitsIcEENS_9allocatorIcEEEENS_17__hash_value_typeIS7_NS_10shared_ptrI7ASTNodeEEEENS_4hashIS7_EENS_8equal_toIS7_EELb1EEELi1ELb1EEC2B8ue170006ENS_18__default_init_tagE, symObjAddr: 0x16830, symBinAddr: 0x10001FFF8, symSize: 0x2C }
  - { offsetInCU: 0x58A48, offset: 0x6F6FE, size: 0x8, addend: 0x0, symName: __ZNSt3__122__unordered_map_hasherINS_12basic_stringIcNS_11char_traitsIcEENS_9allocatorIcEEEENS_17__hash_value_typeIS6_NS_10shared_ptrI7ASTNodeEEEENS_4hashIS6_EENS_8equal_toIS6_EELb1EEC2B8ue170006Ev, symObjAddr: 0x1685C, symBinAddr: 0x100020024, symSize: 0x14 }
  - { offsetInCU: 0x58A72, offset: 0x6F728, size: 0x8, addend: 0x0, symName: __ZNSt3__117__compressed_pairIfNS_21__unordered_map_equalINS_12basic_stringIcNS_11char_traitsIcEENS_9allocatorIcEEEENS_17__hash_value_typeIS7_NS_10shared_ptrI7ASTNodeEEEENS_8equal_toIS7_EENS_4hashIS7_EELb1EEEEC2B8ue170006IfNS_18__default_init_tagEEEOT_OT0_, symObjAddr: 0x16870, symBinAddr: 0x100020038, symSize: 0x40 }
  - { offsetInCU: 0x58ACA, offset: 0x6F780, size: 0x8, addend: 0x0, symName: __ZNSt3__122__compressed_pair_elemINS_21__unordered_map_equalINS_12basic_stringIcNS_11char_traitsIcEENS_9allocatorIcEEEENS_17__hash_value_typeIS7_NS_10shared_ptrI7ASTNodeEEEENS_8equal_toIS7_EENS_4hashIS7_EELb1EEELi1ELb1EEC2B8ue170006ENS_18__default_init_tagE, symObjAddr: 0x168B0, symBinAddr: 0x100020078, symSize: 0x2C }
  - { offsetInCU: 0x58AFE, offset: 0x6F7B4, size: 0x8, addend: 0x0, symName: __ZNSt3__121__unordered_map_equalINS_12basic_stringIcNS_11char_traitsIcEENS_9allocatorIcEEEENS_17__hash_value_typeIS6_NS_10shared_ptrI7ASTNodeEEEENS_8equal_toIS6_EENS_4hashIS6_EELb1EEC2B8ue170006Ev, symObjAddr: 0x168DC, symBinAddr: 0x1000200A4, symSize: 0x14 }
  - { offsetInCU: 0x58B28, offset: 0x6F7DE, size: 0x8, addend: 0x0, symName: __ZNSt3__16vectorINS_13unordered_mapINS_12basic_stringIcNS_11char_traitsIcEENS_9allocatorIcEEEENS_10shared_ptrI7ASTNodeEENS_4hashIS7_EENS_8equal_toIS7_EENS5_INS_4pairIKS7_SA_EEEEEENS5_ISJ_EEE21_ConstructTransactionD2B8ue170006Ev, symObjAddr: 0x168F0, symBinAddr: 0x1000200B8, symSize: 0x20 }
  - { offsetInCU: 0x58B52, offset: 0x6F808, size: 0x8, addend: 0x0, symName: __ZNSt3__117__compressed_pairIPNS_13unordered_mapINS_12basic_stringIcNS_11char_traitsIcEENS_9allocatorIcEEEENS_10shared_ptrI7ASTNodeEENS_4hashIS7_EENS_8equal_toIS7_EENS5_INS_4pairIKS7_SA_EEEEEENS5_ISJ_EEE6secondB8ue170006Ev, symObjAddr: 0x16910, symBinAddr: 0x1000200D8, symSize: 0x24 }
  - { offsetInCU: 0x58B78, offset: 0x6F82E, size: 0x8, addend: 0x0, symName: __ZNSt3__122__compressed_pair_elemINS_9allocatorINS_13unordered_mapINS_12basic_stringIcNS_11char_traitsIcEENS1_IcEEEENS_10shared_ptrI7ASTNodeEENS_4hashIS7_EENS_8equal_toIS7_EENS1_INS_4pairIKS7_SA_EEEEEEEELi1ELb1EE5__getB8ue170006Ev, symObjAddr: 0x16934, symBinAddr: 0x1000200FC, symSize: 0x14 }
  - { offsetInCU: 0x58B9E, offset: 0x6F854, size: 0x8, addend: 0x0, symName: __ZNKSt3__16vectorINS_13unordered_mapINS_12basic_stringIcNS_11char_traitsIcEENS_9allocatorIcEEEENS_10shared_ptrI7ASTNodeEENS_4hashIS7_EENS_8equal_toIS7_EENS5_INS_4pairIKS7_SA_EEEEEENS5_ISJ_EEE8max_sizeEv, symObjAddr: 0x16948, symBinAddr: 0x100020110, symSize: 0x60 }
  - { offsetInCU: 0x58BC6, offset: 0x6F87C, size: 0x8, addend: 0x0, symName: __ZNKSt3__16vectorINS_13unordered_mapINS_12basic_stringIcNS_11char_traitsIcEENS_9allocatorIcEEEENS_10shared_ptrI7ASTNodeEENS_4hashIS7_EENS_8equal_toIS7_EENS5_INS_4pairIKS7_SA_EEEEEENS5_ISJ_EEE20__throw_length_errorB8ue170006Ev, symObjAddr: 0x169A8, symBinAddr: 0x100020170, symSize: 0x1C }
  - { offsetInCU: 0x58BEC, offset: 0x6F8A2, size: 0x8, addend: 0x0, symName: __ZNKSt3__16vectorINS_13unordered_mapINS_12basic_stringIcNS_11char_traitsIcEENS_9allocatorIcEEEENS_10shared_ptrI7ASTNodeEENS_4hashIS7_EENS_8equal_toIS7_EENS5_INS_4pairIKS7_SA_EEEEEENS5_ISJ_EEE8capacityB8ue170006Ev, symObjAddr: 0x169C4, symBinAddr: 0x10002018C, symSize: 0x40 }
  - { offsetInCU: 0x58C1C, offset: 0x6F8D2, size: 0x8, addend: 0x0, symName: __ZNSt3__116allocator_traitsINS_9allocatorINS_13unordered_mapINS_12basic_stringIcNS_11char_traitsIcEENS1_IcEEEENS_10shared_ptrI7ASTNodeEENS_4hashIS7_EENS_8equal_toIS7_EENS1_INS_4pairIKS7_SA_EEEEEEEEE8max_sizeB8ue170006ISK_vvEEmRKSK_, symObjAddr: 0x16A04, symBinAddr: 0x1000201CC, symSize: 0x28 }
  - { offsetInCU: 0x58C48, offset: 0x6F8FE, size: 0x8, addend: 0x0, symName: __ZNKSt3__16vectorINS_13unordered_mapINS_12basic_stringIcNS_11char_traitsIcEENS_9allocatorIcEEEENS_10shared_ptrI7ASTNodeEENS_4hashIS7_EENS_8equal_toIS7_EENS5_INS_4pairIKS7_SA_EEEEEENS5_ISJ_EEE7__allocB8ue170006Ev, symObjAddr: 0x16A2C, symBinAddr: 0x1000201F4, symSize: 0x28 }
  - { offsetInCU: 0x58C6E, offset: 0x6F924, size: 0x8, addend: 0x0, symName: __ZNKSt3__117__compressed_pairIPNS_13unordered_mapINS_12basic_stringIcNS_11char_traitsIcEENS_9allocatorIcEEEENS_10shared_ptrI7ASTNodeEENS_4hashIS7_EENS_8equal_toIS7_EENS5_INS_4pairIKS7_SA_EEEEEENS5_ISJ_EEE6secondB8ue170006Ev, symObjAddr: 0x16A54, symBinAddr: 0x10002021C, symSize: 0x24 }
  - { offsetInCU: 0x58C94, offset: 0x6F94A, size: 0x8, addend: 0x0, symName: __ZNKSt3__122__compressed_pair_elemINS_9allocatorINS_13unordered_mapINS_12basic_stringIcNS_11char_traitsIcEENS1_IcEEEENS_10shared_ptrI7ASTNodeEENS_4hashIS7_EENS_8equal_toIS7_EENS1_INS_4pairIKS7_SA_EEEEEEEELi1ELb1EE5__getB8ue170006Ev, symObjAddr: 0x16A78, symBinAddr: 0x100020240, symSize: 0x14 }
  - { offsetInCU: 0x58CBA, offset: 0x6F970, size: 0x8, addend: 0x0, symName: __ZNKSt3__16vectorINS_13unordered_mapINS_12basic_stringIcNS_11char_traitsIcEENS_9allocatorIcEEEENS_10shared_ptrI7ASTNodeEENS_4hashIS7_EENS_8equal_toIS7_EENS5_INS_4pairIKS7_SA_EEEEEENS5_ISJ_EEE9__end_capB8ue170006Ev, symObjAddr: 0x16A8C, symBinAddr: 0x100020254, symSize: 0x28 }
  - { offsetInCU: 0x58CE0, offset: 0x6F996, size: 0x8, addend: 0x0, symName: __ZNKSt3__117__compressed_pairIPNS_13unordered_mapINS_12basic_stringIcNS_11char_traitsIcEENS_9allocatorIcEEEENS_10shared_ptrI7ASTNodeEENS_4hashIS7_EENS_8equal_toIS7_EENS5_INS_4pairIKS7_SA_EEEEEENS5_ISJ_EEE5firstB8ue170006Ev, symObjAddr: 0x16AB4, symBinAddr: 0x10002027C, symSize: 0x24 }
  - { offsetInCU: 0x58D06, offset: 0x6F9BC, size: 0x8, addend: 0x0, symName: __ZNKSt3__122__compressed_pair_elemIPNS_13unordered_mapINS_12basic_stringIcNS_11char_traitsIcEENS_9allocatorIcEEEENS_10shared_ptrI7ASTNodeEENS_4hashIS7_EENS_8equal_toIS7_EENS5_INS_4pairIKS7_SA_EEEEEELi0ELb0EE5__getB8ue170006Ev, symObjAddr: 0x16AD8, symBinAddr: 0x1000202A0, symSize: 0x14 }
  - { offsetInCU: 0x58D2C, offset: 0x6F9E2, size: 0x8, addend: 0x0, symName: __ZNSt3__114__split_bufferINS_13unordered_mapINS_12basic_stringIcNS_11char_traitsIcEENS_9allocatorIcEEEENS_10shared_ptrI7ASTNodeEENS_4hashIS7_EENS_8equal_toIS7_EENS5_INS_4pairIKS7_SA_EEEEEERNS5_ISJ_EEEC2EmmSL_, symObjAddr: 0x16AEC, symBinAddr: 0x1000202B4, symSize: 0xE0 }
  - { offsetInCU: 0x58D9F, offset: 0x6FA55, size: 0x8, addend: 0x0, symName: __ZNSt3__117__compressed_pairIPNS_13unordered_mapINS_12basic_stringIcNS_11char_traitsIcEENS_9allocatorIcEEEENS_10shared_ptrI7ASTNodeEENS_4hashIS7_EENS_8equal_toIS7_EENS5_INS_4pairIKS7_SA_EEEEEERNS5_ISJ_EEEC1B8ue170006IDnSM_EEOT_OT0_, symObjAddr: 0x16BCC, symBinAddr: 0x100020394, symSize: 0x3C }
  - { offsetInCU: 0x58DF7, offset: 0x6FAAD, size: 0x8, addend: 0x0, symName: __ZNSt3__114__split_bufferINS_13unordered_mapINS_12basic_stringIcNS_11char_traitsIcEENS_9allocatorIcEEEENS_10shared_ptrI7ASTNodeEENS_4hashIS7_EENS_8equal_toIS7_EENS5_INS_4pairIKS7_SA_EEEEEERNS5_ISJ_EEE7__allocB8ue170006Ev, symObjAddr: 0x16C48, symBinAddr: 0x100020410, symSize: 0x28 }
  - { offsetInCU: 0x58E1D, offset: 0x6FAD3, size: 0x8, addend: 0x0, symName: __ZNSt3__114__split_bufferINS_13unordered_mapINS_12basic_stringIcNS_11char_traitsIcEENS_9allocatorIcEEEENS_10shared_ptrI7ASTNodeEENS_4hashIS7_EENS_8equal_toIS7_EENS5_INS_4pairIKS7_SA_EEEEEERNS5_ISJ_EEE9__end_capB8ue170006Ev, symObjAddr: 0x16C70, symBinAddr: 0x100020438, symSize: 0x28 }
  - { offsetInCU: 0x58E43, offset: 0x6FAF9, size: 0x8, addend: 0x0, symName: __ZNSt3__117__compressed_pairIPNS_13unordered_mapINS_12basic_stringIcNS_11char_traitsIcEENS_9allocatorIcEEEENS_10shared_ptrI7ASTNodeEENS_4hashIS7_EENS_8equal_toIS7_EENS5_INS_4pairIKS7_SA_EEEEEERNS5_ISJ_EEEC2B8ue170006IDnSM_EEOT_OT0_, symObjAddr: 0x16C98, symBinAddr: 0x100020460, symSize: 0x48 }
  - { offsetInCU: 0x58E9B, offset: 0x6FB51, size: 0x8, addend: 0x0, symName: __ZNSt3__122__compressed_pair_elemIRNS_9allocatorINS_13unordered_mapINS_12basic_stringIcNS_11char_traitsIcEENS1_IcEEEENS_10shared_ptrI7ASTNodeEENS_4hashIS7_EENS_8equal_toIS7_EENS1_INS_4pairIKS7_SA_EEEEEEEELi1ELb0EEC2B8ue170006ISL_vEEOT_, symObjAddr: 0x16CE0, symBinAddr: 0x1000204A8, symSize: 0x20 }
  - { offsetInCU: 0x58EDD, offset: 0x6FB93, size: 0x8, addend: 0x0, symName: __ZNSt3__19allocatorINS_13unordered_mapINS_12basic_stringIcNS_11char_traitsIcEENS0_IcEEEENS_10shared_ptrI7ASTNodeEENS_4hashIS6_EENS_8equal_toIS6_EENS0_INS_4pairIKS6_S9_EEEEEEE8allocateB8ue170006Em, symObjAddr: 0x16D00, symBinAddr: 0x1000204C8, symSize: 0x5C }
  - { offsetInCU: 0x58F11, offset: 0x6FBC7, size: 0x8, addend: 0x0, symName: __ZNSt3__117__compressed_pairIPNS_13unordered_mapINS_12basic_stringIcNS_11char_traitsIcEENS_9allocatorIcEEEENS_10shared_ptrI7ASTNodeEENS_4hashIS7_EENS_8equal_toIS7_EENS5_INS_4pairIKS7_SA_EEEEEERNS5_ISJ_EEE6secondB8ue170006Ev, symObjAddr: 0x16D5C, symBinAddr: 0x100020524, symSize: 0x28 }
  - { offsetInCU: 0x58F37, offset: 0x6FBED, size: 0x8, addend: 0x0, symName: __ZNSt3__122__compressed_pair_elemIRNS_9allocatorINS_13unordered_mapINS_12basic_stringIcNS_11char_traitsIcEENS1_IcEEEENS_10shared_ptrI7ASTNodeEENS_4hashIS7_EENS_8equal_toIS7_EENS1_INS_4pairIKS7_SA_EEEEEEEELi1ELb0EE5__getB8ue170006Ev, symObjAddr: 0x16D84, symBinAddr: 0x10002054C, symSize: 0x18 }
  - { offsetInCU: 0x58F5D, offset: 0x6FC13, size: 0x8, addend: 0x0, symName: __ZNSt3__117__compressed_pairIPNS_13unordered_mapINS_12basic_stringIcNS_11char_traitsIcEENS_9allocatorIcEEEENS_10shared_ptrI7ASTNodeEENS_4hashIS7_EENS_8equal_toIS7_EENS5_INS_4pairIKS7_SA_EEEEEERNS5_ISJ_EEE5firstB8ue170006Ev, symObjAddr: 0x16D9C, symBinAddr: 0x100020564, symSize: 0x24 }
  - { offsetInCU: 0x58F8D, offset: 0x6FC43, size: 0x8, addend: 0x0, symName: __ZNSt3__114__split_bufferINS_13unordered_mapINS_12basic_stringIcNS_11char_traitsIcEENS_9allocatorIcEEEENS_10shared_ptrI7ASTNodeEENS_4hashIS7_EENS_8equal_toIS7_EENS5_INS_4pairIKS7_SA_EEEEEERNS5_ISJ_EEE21_ConstructTransactionC1B8ue170006EPPSJ_m, symObjAddr: 0x16DC0, symBinAddr: 0x100020588, symSize: 0x3C }
  - { offsetInCU: 0x58FD3, offset: 0x6FC89, size: 0x8, addend: 0x0, symName: __ZNSt3__114__split_bufferINS_13unordered_mapINS_12basic_stringIcNS_11char_traitsIcEENS_9allocatorIcEEEENS_10shared_ptrI7ASTNodeEENS_4hashIS7_EENS_8equal_toIS7_EENS5_INS_4pairIKS7_SA_EEEEEERNS5_ISJ_EEE21_ConstructTransactionD1B8ue170006Ev, symObjAddr: 0x16DFC, symBinAddr: 0x1000205C4, symSize: 0x2C }
  - { offsetInCU: 0x58FFD, offset: 0x6FCB3, size: 0x8, addend: 0x0, symName: __ZNSt3__114__split_bufferINS_13unordered_mapINS_12basic_stringIcNS_11char_traitsIcEENS_9allocatorIcEEEENS_10shared_ptrI7ASTNodeEENS_4hashIS7_EENS_8equal_toIS7_EENS5_INS_4pairIKS7_SA_EEEEEERNS5_ISJ_EEE21_ConstructTransactionC2B8ue170006EPPSJ_m, symObjAddr: 0x16E28, symBinAddr: 0x1000205F0, symSize: 0x4C }
  - { offsetInCU: 0x59043, offset: 0x6FCF9, size: 0x8, addend: 0x0, symName: __ZNSt3__114__split_bufferINS_13unordered_mapINS_12basic_stringIcNS_11char_traitsIcEENS_9allocatorIcEEEENS_10shared_ptrI7ASTNodeEENS_4hashIS7_EENS_8equal_toIS7_EENS5_INS_4pairIKS7_SA_EEEEEERNS5_ISJ_EEE21_ConstructTransactionD2B8ue170006Ev, symObjAddr: 0x16E74, symBinAddr: 0x10002063C, symSize: 0x20 }
  - { offsetInCU: 0x5906D, offset: 0x6FD23, size: 0x8, addend: 0x0, symName: __ZNKSt3__16vectorINS_13unordered_mapINS_12basic_stringIcNS_11char_traitsIcEENS_9allocatorIcEEEENS_10shared_ptrI7ASTNodeEENS_4hashIS7_EENS_8equal_toIS7_EENS5_INS_4pairIKS7_SA_EEEEEENS5_ISJ_EEE17__annotate_deleteB8ue170006Ev, symObjAddr: 0x16E94, symBinAddr: 0x10002065C, symSize: 0xD4 }
  - { offsetInCU: 0x59093, offset: 0x6FD49, size: 0x8, addend: 0x0, symName: __ZNSt3__116reverse_iteratorIPNS_13unordered_mapINS_12basic_stringIcNS_11char_traitsIcEENS_9allocatorIcEEEENS_10shared_ptrI7ASTNodeEENS_4hashIS7_EENS_8equal_toIS7_EENS5_INS_4pairIKS7_SA_EEEEEEEC1B8ue170006ESK_, symObjAddr: 0x17094, symBinAddr: 0x10002085C, symSize: 0x34 }
  - { offsetInCU: 0x590CB, offset: 0x6FD81, size: 0x8, addend: 0x0, symName: __ZNKSt3__116reverse_iteratorIPNS_13unordered_mapINS_12basic_stringIcNS_11char_traitsIcEENS_9allocatorIcEEEENS_10shared_ptrI7ASTNodeEENS_4hashIS7_EENS_8equal_toIS7_EENS5_INS_4pairIKS7_SA_EEEEEEE4baseB8ue170006Ev, symObjAddr: 0x170C8, symBinAddr: 0x100020890, symSize: 0x18 }
  - { offsetInCU: 0x590F1, offset: 0x6FDA7, size: 0x8, addend: 0x0, symName: __ZNKSt3__16vectorINS_13unordered_mapINS_12basic_stringIcNS_11char_traitsIcEENS_9allocatorIcEEEENS_10shared_ptrI7ASTNodeEENS_4hashIS7_EENS_8equal_toIS7_EENS5_INS_4pairIKS7_SA_EEEEEENS5_ISJ_EEE14__annotate_newB8ue170006Em, symObjAddr: 0x1711C, symBinAddr: 0x1000208E4, symSize: 0xC8 }
  - { offsetInCU: 0x59126, offset: 0x6FDDC, size: 0x8, addend: 0x0, symName: __ZNKSt3__16vectorINS_13unordered_mapINS_12basic_stringIcNS_11char_traitsIcEENS_9allocatorIcEEEENS_10shared_ptrI7ASTNodeEENS_4hashIS7_EENS_8equal_toIS7_EENS5_INS_4pairIKS7_SA_EEEEEENS5_ISJ_EEE31__annotate_contiguous_containerB8ue170006EPKvSN_SN_SN_, symObjAddr: 0x171E4, symBinAddr: 0x1000209AC, symSize: 0x20 }
  - { offsetInCU: 0x5917C, offset: 0x6FE32, size: 0x8, addend: 0x0, symName: __ZNKSt3__16vectorINS_13unordered_mapINS_12basic_stringIcNS_11char_traitsIcEENS_9allocatorIcEEEENS_10shared_ptrI7ASTNodeEENS_4hashIS7_EENS_8equal_toIS7_EENS5_INS_4pairIKS7_SA_EEEEEENS5_ISJ_EEE4dataB8ue170006Ev, symObjAddr: 0x17204, symBinAddr: 0x1000209CC, symSize: 0x28 }
  - { offsetInCU: 0x591A2, offset: 0x6FE58, size: 0x8, addend: 0x0, symName: __ZNSt3__129_AllocatorDestroyRangeReverseINS_9allocatorINS_13unordered_mapINS_12basic_stringIcNS_11char_traitsIcEENS1_IcEEEENS_10shared_ptrI7ASTNodeEENS_4hashIS7_EENS_8equal_toIS7_EENS1_INS_4pairIKS7_SA_EEEEEEEENS_16reverse_iteratorIPSJ_EEEC1B8ue170006ERSK_RSN_SQ_, symObjAddr: 0x17278, symBinAddr: 0x100020A40, symSize: 0x44 }
  - { offsetInCU: 0x591F9, offset: 0x6FEAF, size: 0x8, addend: 0x0, symName: __ZNSt3__116allocator_traitsINS_9allocatorINS_13unordered_mapINS_12basic_stringIcNS_11char_traitsIcEENS1_IcEEEENS_10shared_ptrI7ASTNodeEENS_4hashIS7_EENS_8equal_toIS7_EENS1_INS_4pairIKS7_SA_EEEEEEEEE9constructB8ue170006ISJ_JSJ_EvvEEvRSK_PT_DpOT0_, symObjAddr: 0x17304, symBinAddr: 0x100020ACC, symSize: 0x30 }
  - { offsetInCU: 0x5924E, offset: 0x6FF04, size: 0x8, addend: 0x0, symName: __ZNKSt3__116reverse_iteratorIPNS_13unordered_mapINS_12basic_stringIcNS_11char_traitsIcEENS_9allocatorIcEEEENS_10shared_ptrI7ASTNodeEENS_4hashIS7_EENS_8equal_toIS7_EENS5_INS_4pairIKS7_SA_EEEEEEEdeB8ue170006Ev, symObjAddr: 0x17358, symBinAddr: 0x100020B20, symSize: 0x28 }
  - { offsetInCU: 0x59282, offset: 0x6FF38, size: 0x8, addend: 0x0, symName: __ZNSt3__116reverse_iteratorIPNS_13unordered_mapINS_12basic_stringIcNS_11char_traitsIcEENS_9allocatorIcEEEENS_10shared_ptrI7ASTNodeEENS_4hashIS7_EENS_8equal_toIS7_EENS5_INS_4pairIKS7_SA_EEEEEEEppB8ue170006Ev, symObjAddr: 0x17380, symBinAddr: 0x100020B48, symSize: 0x20 }
  - { offsetInCU: 0x592A8, offset: 0x6FF5E, size: 0x8, addend: 0x0, symName: __ZNSt3__128__exception_guard_exceptionsINS_29_AllocatorDestroyRangeReverseINS_9allocatorINS_13unordered_mapINS_12basic_stringIcNS_11char_traitsIcEENS2_IcEEEENS_10shared_ptrI7ASTNodeEENS_4hashIS8_EENS_8equal_toIS8_EENS2_INS_4pairIKS8_SB_EEEEEEEENS_16reverse_iteratorIPSK_EEEEE10__completeB8ue170006Ev, symObjAddr: 0x173A0, symBinAddr: 0x100020B68, symSize: 0x1C }
  - { offsetInCU: 0x592CE, offset: 0x6FF84, size: 0x8, addend: 0x0, symName: __ZNSt3__128__exception_guard_exceptionsINS_29_AllocatorDestroyRangeReverseINS_9allocatorINS_13unordered_mapINS_12basic_stringIcNS_11char_traitsIcEENS2_IcEEEENS_10shared_ptrI7ASTNodeEENS_4hashIS8_EENS_8equal_toIS8_EENS2_INS_4pairIKS8_SB_EEEEEEEENS_16reverse_iteratorIPSK_EEEEED1B8ue170006Ev, symObjAddr: 0x173BC, symBinAddr: 0x100020B84, symSize: 0x2C }
  - { offsetInCU: 0x592F8, offset: 0x6FFAE, size: 0x8, addend: 0x0, symName: __ZNSt3__128__exception_guard_exceptionsINS_29_AllocatorDestroyRangeReverseINS_9allocatorINS_13unordered_mapINS_12basic_stringIcNS_11char_traitsIcEENS2_IcEEEENS_10shared_ptrI7ASTNodeEENS_4hashIS8_EENS_8equal_toIS8_EENS2_INS_4pairIKS8_SB_EEEEEEEENS_16reverse_iteratorIPSK_EEEEEC1B8ue170006ESP_, symObjAddr: 0x173E8, symBinAddr: 0x100020BB0, symSize: 0x34 }
  - { offsetInCU: 0x59331, offset: 0x6FFE7, size: 0x8, addend: 0x0, symName: __ZNSt3__128__exception_guard_exceptionsINS_29_AllocatorDestroyRangeReverseINS_9allocatorINS_13unordered_mapINS_12basic_stringIcNS_11char_traitsIcEENS2_IcEEEENS_10shared_ptrI7ASTNodeEENS_4hashIS8_EENS_8equal_toIS8_EENS2_INS_4pairIKS8_SB_EEEEEEEENS_16reverse_iteratorIPSK_EEEEEC2B8ue170006ESP_, symObjAddr: 0x1741C, symBinAddr: 0x100020BE4, symSize: 0x30 }
  - { offsetInCU: 0x5936A, offset: 0x70020, size: 0x8, addend: 0x0, symName: __ZNSt3__129_AllocatorDestroyRangeReverseINS_9allocatorINS_13unordered_mapINS_12basic_stringIcNS_11char_traitsIcEENS1_IcEEEENS_10shared_ptrI7ASTNodeEENS_4hashIS7_EENS_8equal_toIS7_EENS1_INS_4pairIKS7_SA_EEEEEEEENS_16reverse_iteratorIPSJ_EEEC2B8ue170006ERSK_RSN_SQ_, symObjAddr: 0x1744C, symBinAddr: 0x100020C14, symSize: 0x38 }
  - { offsetInCU: 0x593C1, offset: 0x70077, size: 0x8, addend: 0x0, symName: __ZNSt3__113unordered_mapINS_12basic_stringIcNS_11char_traitsIcEENS_9allocatorIcEEEENS_10shared_ptrI7ASTNodeEENS_4hashIS6_EENS_8equal_toIS6_EENS4_INS_4pairIKS6_S9_EEEEEC1EOSI_, symObjAddr: 0x174C0, symBinAddr: 0x100020C88, symSize: 0x34 }
  - { offsetInCU: 0x593FC, offset: 0x700B2, size: 0x8, addend: 0x0, symName: __ZNSt3__113unordered_mapINS_12basic_stringIcNS_11char_traitsIcEENS_9allocatorIcEEEENS_10shared_ptrI7ASTNodeEENS_4hashIS6_EENS_8equal_toIS6_EENS4_INS_4pairIKS6_S9_EEEEEC2EOSI_, symObjAddr: 0x174F4, symBinAddr: 0x100020CBC, symSize: 0x34 }
  - { offsetInCU: 0x59437, offset: 0x700ED, size: 0x8, addend: 0x0, symName: __ZNSt3__112__hash_tableINS_17__hash_value_typeINS_12basic_stringIcNS_11char_traitsIcEENS_9allocatorIcEEEENS_10shared_ptrI7ASTNodeEEEENS_22__unordered_map_hasherIS7_SB_NS_4hashIS7_EENS_8equal_toIS7_EELb1EEENS_21__unordered_map_equalIS7_SB_SG_SE_Lb1EEENS5_ISB_EEEC1EOSL_, symObjAddr: 0x17528, symBinAddr: 0x100020CF0, symSize: 0x34 }
  - { offsetInCU: 0x59472, offset: 0x70128, size: 0x8, addend: 0x0, symName: __ZNSt3__112__hash_tableINS_17__hash_value_typeINS_12basic_stringIcNS_11char_traitsIcEENS_9allocatorIcEEEENS_10shared_ptrI7ASTNodeEEEENS_22__unordered_map_hasherIS7_SB_NS_4hashIS7_EENS_8equal_toIS7_EELb1EEENS_21__unordered_map_equalIS7_SB_SG_SE_Lb1EEENS5_ISB_EEEC2EOSL_, symObjAddr: 0x1755C, symBinAddr: 0x100020D24, symSize: 0x104 }
  - { offsetInCU: 0x594AD, offset: 0x70163, size: 0x8, addend: 0x0, symName: __ZNSt3__110unique_ptrIA_PNS_16__hash_node_baseIPNS_11__hash_nodeINS_17__hash_value_typeINS_12basic_stringIcNS_11char_traitsIcEENS_9allocatorIcEEEENS_10shared_ptrI7ASTNodeEEEEPvEEEENS_25__bucket_list_deallocatorINS7_ISI_EEEEEC1B8ue170006EOSN_, symObjAddr: 0x17660, symBinAddr: 0x100020E28, symSize: 0x34 }
  - { offsetInCU: 0x594E6, offset: 0x7019C, size: 0x8, addend: 0x0, symName: __ZNSt3__112__hash_tableINS_17__hash_value_typeINS_12basic_stringIcNS_11char_traitsIcEENS_9allocatorIcEEEENS_10shared_ptrI7ASTNodeEEEENS_22__unordered_map_hasherIS7_SB_NS_4hashIS7_EENS_8equal_toIS7_EELb1EEENS_21__unordered_map_equalIS7_SB_SG_SE_Lb1EEENS5_ISB_EEE4sizeB8ue170006Ev, symObjAddr: 0x17694, symBinAddr: 0x100020E5C, symSize: 0x28 }
  - { offsetInCU: 0x5950C, offset: 0x701C2, size: 0x8, addend: 0x0, symName: __ZNSt3__116__hash_node_baseIPNS_11__hash_nodeINS_17__hash_value_typeINS_12basic_stringIcNS_11char_traitsIcEENS_9allocatorIcEEEENS_10shared_ptrI7ASTNodeEEEEPvEEE5__ptrB8ue170006Ev, symObjAddr: 0x176BC, symBinAddr: 0x100020E84, symSize: 0x24 }
  - { offsetInCU: 0x59532, offset: 0x701E8, size: 0x8, addend: 0x0, symName: __ZNKSt3__110unique_ptrIA_PNS_16__hash_node_baseIPNS_11__hash_nodeINS_17__hash_value_typeINS_12basic_stringIcNS_11char_traitsIcEENS_9allocatorIcEEEENS_10shared_ptrI7ASTNodeEEEEPvEEEENS_25__bucket_list_deallocatorINS7_ISI_EEEEEixB8ue170006Em, symObjAddr: 0x176E0, symBinAddr: 0x100020EA8, symSize: 0x34 }
  - { offsetInCU: 0x59567, offset: 0x7021D, size: 0x8, addend: 0x0, symName: __ZNKSt3__116__hash_node_baseIPNS_11__hash_nodeINS_17__hash_value_typeINS_12basic_stringIcNS_11char_traitsIcEENS_9allocatorIcEEEENS_10shared_ptrI7ASTNodeEEEEPvEEE6__hashB8ue170006Ev, symObjAddr: 0x17714, symBinAddr: 0x100020EDC, symSize: 0x18 }
  - { offsetInCU: 0x5958D, offset: 0x70243, size: 0x8, addend: 0x0, symName: __ZNKSt3__112__hash_tableINS_17__hash_value_typeINS_12basic_stringIcNS_11char_traitsIcEENS_9allocatorIcEEEENS_10shared_ptrI7ASTNodeEEEENS_22__unordered_map_hasherIS7_SB_NS_4hashIS7_EENS_8equal_toIS7_EELb1EEENS_21__unordered_map_equalIS7_SB_SG_SE_Lb1EEENS5_ISB_EEE12bucket_countB8ue170006Ev, symObjAddr: 0x1772C, symBinAddr: 0x100020EF4, symSize: 0x28 }
  - { offsetInCU: 0x595B3, offset: 0x70269, size: 0x8, addend: 0x0, symName: __ZNSt3__110unique_ptrIA_PNS_16__hash_node_baseIPNS_11__hash_nodeINS_17__hash_value_typeINS_12basic_stringIcNS_11char_traitsIcEENS_9allocatorIcEEEENS_10shared_ptrI7ASTNodeEEEEPvEEEENS_25__bucket_list_deallocatorINS7_ISI_EEEEEC2B8ue170006EOSN_, symObjAddr: 0x17754, symBinAddr: 0x100020F1C, symSize: 0x60 }
  - { offsetInCU: 0x595EC, offset: 0x702A2, size: 0x8, addend: 0x0, symName: __ZNSt3__110unique_ptrIA_PNS_16__hash_node_baseIPNS_11__hash_nodeINS_17__hash_value_typeINS_12basic_stringIcNS_11char_traitsIcEENS_9allocatorIcEEEENS_10shared_ptrI7ASTNodeEEEEPvEEEENS_25__bucket_list_deallocatorINS7_ISI_EEEEE7releaseB8ue170006Ev, symObjAddr: 0x177B4, symBinAddr: 0x100020F7C, symSize: 0x44 }
  - { offsetInCU: 0x59621, offset: 0x702D7, size: 0x8, addend: 0x0, symName: __ZNSt3__110unique_ptrIA_PNS_16__hash_node_baseIPNS_11__hash_nodeINS_17__hash_value_typeINS_12basic_stringIcNS_11char_traitsIcEENS_9allocatorIcEEEENS_10shared_ptrI7ASTNodeEEEEPvEEEENS_25__bucket_list_deallocatorINS7_ISI_EEEEE11get_deleterB8ue170006Ev, symObjAddr: 0x177F8, symBinAddr: 0x100020FC0, symSize: 0x24 }
  - { offsetInCU: 0x5964C, offset: 0x70302, size: 0x8, addend: 0x0, symName: __ZNSt3__117__compressed_pairIPPNS_16__hash_node_baseIPNS_11__hash_nodeINS_17__hash_value_typeINS_12basic_stringIcNS_11char_traitsIcEENS_9allocatorIcEEEENS_10shared_ptrI7ASTNodeEEEEPvEEEENS_25__bucket_list_deallocatorINS7_ISI_EEEEEC1B8ue170006ISJ_SM_EEOT_OT0_, symObjAddr: 0x1781C, symBinAddr: 0x100020FE4, symSize: 0x3C }
  - { offsetInCU: 0x596A4, offset: 0x7035A, size: 0x8, addend: 0x0, symName: __ZNSt3__117__compressed_pairIPPNS_16__hash_node_baseIPNS_11__hash_nodeINS_17__hash_value_typeINS_12basic_stringIcNS_11char_traitsIcEENS_9allocatorIcEEEENS_10shared_ptrI7ASTNodeEEEEPvEEEENS_25__bucket_list_deallocatorINS7_ISI_EEEEE5firstB8ue170006Ev, symObjAddr: 0x17858, symBinAddr: 0x100021020, symSize: 0x24 }
  - { offsetInCU: 0x596CA, offset: 0x70380, size: 0x8, addend: 0x0, symName: __ZNSt3__122__compressed_pair_elemIPPNS_16__hash_node_baseIPNS_11__hash_nodeINS_17__hash_value_typeINS_12basic_stringIcNS_11char_traitsIcEENS_9allocatorIcEEEENS_10shared_ptrI7ASTNodeEEEEPvEEEELi0ELb0EE5__getB8ue170006Ev, symObjAddr: 0x1787C, symBinAddr: 0x100021044, symSize: 0x14 }
  - { offsetInCU: 0x596F0, offset: 0x703A6, size: 0x8, addend: 0x0, symName: __ZNSt3__117__compressed_pairIPPNS_16__hash_node_baseIPNS_11__hash_nodeINS_17__hash_value_typeINS_12basic_stringIcNS_11char_traitsIcEENS_9allocatorIcEEEENS_10shared_ptrI7ASTNodeEEEEPvEEEENS_25__bucket_list_deallocatorINS7_ISI_EEEEE6secondB8ue170006Ev, symObjAddr: 0x17890, symBinAddr: 0x100021058, symSize: 0x28 }
  - { offsetInCU: 0x59716, offset: 0x703CC, size: 0x8, addend: 0x0, symName: __ZNSt3__122__compressed_pair_elemINS_25__bucket_list_deallocatorINS_9allocatorIPNS_16__hash_node_baseIPNS_11__hash_nodeINS_17__hash_value_typeINS_12basic_stringIcNS_11char_traitsIcEENS2_IcEEEENS_10shared_ptrI7ASTNodeEEEEPvEEEEEEEELi1ELb0EE5__getB8ue170006Ev, symObjAddr: 0x178B8, symBinAddr: 0x100021080, symSize: 0x14 }
  - { offsetInCU: 0x5973C, offset: 0x703F2, size: 0x8, addend: 0x0, symName: __ZNSt3__117__compressed_pairIPPNS_16__hash_node_baseIPNS_11__hash_nodeINS_17__hash_value_typeINS_12basic_stringIcNS_11char_traitsIcEENS_9allocatorIcEEEENS_10shared_ptrI7ASTNodeEEEEPvEEEENS_25__bucket_list_deallocatorINS7_ISI_EEEEEC2B8ue170006ISJ_SM_EEOT_OT0_, symObjAddr: 0x178CC, symBinAddr: 0x100021094, symSize: 0x48 }
  - { offsetInCU: 0x59794, offset: 0x7044A, size: 0x8, addend: 0x0, symName: __ZNSt3__122__compressed_pair_elemIPPNS_16__hash_node_baseIPNS_11__hash_nodeINS_17__hash_value_typeINS_12basic_stringIcNS_11char_traitsIcEENS_9allocatorIcEEEENS_10shared_ptrI7ASTNodeEEEEPvEEEELi0ELb0EEC2B8ue170006ISJ_vEEOT_, symObjAddr: 0x17914, symBinAddr: 0x1000210DC, symSize: 0x24 }
  - { offsetInCU: 0x597D6, offset: 0x7048C, size: 0x8, addend: 0x0, symName: __ZNSt3__122__compressed_pair_elemINS_25__bucket_list_deallocatorINS_9allocatorIPNS_16__hash_node_baseIPNS_11__hash_nodeINS_17__hash_value_typeINS_12basic_stringIcNS_11char_traitsIcEENS2_IcEEEENS_10shared_ptrI7ASTNodeEEEEPvEEEEEEEELi1ELb0EEC2B8ue170006ISL_vEEOT_, symObjAddr: 0x17938, symBinAddr: 0x100021100, symSize: 0x34 }
  - { offsetInCU: 0x59818, offset: 0x704CE, size: 0x8, addend: 0x0, symName: __ZNSt3__125__bucket_list_deallocatorINS_9allocatorIPNS_16__hash_node_baseIPNS_11__hash_nodeINS_17__hash_value_typeINS_12basic_stringIcNS_11char_traitsIcEENS1_IcEEEENS_10shared_ptrI7ASTNodeEEEEPvEEEEEEEC1B8ue170006EOSK_, symObjAddr: 0x1796C, symBinAddr: 0x100021134, symSize: 0x34 }
  - { offsetInCU: 0x59851, offset: 0x70507, size: 0x8, addend: 0x0, symName: __ZNSt3__125__bucket_list_deallocatorINS_9allocatorIPNS_16__hash_node_baseIPNS_11__hash_nodeINS_17__hash_value_typeINS_12basic_stringIcNS_11char_traitsIcEENS1_IcEEEENS_10shared_ptrI7ASTNodeEEEEPvEEEEEEEC2B8ue170006EOSK_, symObjAddr: 0x179A0, symBinAddr: 0x100021168, symSize: 0x48 }
  - { offsetInCU: 0x5988A, offset: 0x70540, size: 0x8, addend: 0x0, symName: __ZNSt3__125__bucket_list_deallocatorINS_9allocatorIPNS_16__hash_node_baseIPNS_11__hash_nodeINS_17__hash_value_typeINS_12basic_stringIcNS_11char_traitsIcEENS1_IcEEEENS_10shared_ptrI7ASTNodeEEEEPvEEEEEEE4sizeB8ue170006Ev, symObjAddr: 0x179E8, symBinAddr: 0x1000211B0, symSize: 0x24 }
  - { offsetInCU: 0x598B0, offset: 0x70566, size: 0x8, addend: 0x0, symName: __ZNSt3__117__compressed_pairImNS_9allocatorIPNS_16__hash_node_baseIPNS_11__hash_nodeINS_17__hash_value_typeINS_12basic_stringIcNS_11char_traitsIcEENS1_IcEEEENS_10shared_ptrI7ASTNodeEEEEPvEEEEEEE5firstB8ue170006Ev, symObjAddr: 0x17A0C, symBinAddr: 0x1000211D4, symSize: 0x24 }
  - { offsetInCU: 0x598D6, offset: 0x7058C, size: 0x8, addend: 0x0, symName: __ZNSt3__117__compressed_pairImNS_22__unordered_map_hasherINS_12basic_stringIcNS_11char_traitsIcEENS_9allocatorIcEEEENS_17__hash_value_typeIS7_NS_10shared_ptrI7ASTNodeEEEENS_4hashIS7_EENS_8equal_toIS7_EELb1EEEE5firstB8ue170006Ev, symObjAddr: 0x17A30, symBinAddr: 0x1000211F8, symSize: 0x24 }
  - { offsetInCU: 0x598FC, offset: 0x705B2, size: 0x8, addend: 0x0, symName: __ZNKSt3__117__compressed_pairIPPNS_16__hash_node_baseIPNS_11__hash_nodeINS_17__hash_value_typeINS_12basic_stringIcNS_11char_traitsIcEENS_9allocatorIcEEEENS_10shared_ptrI7ASTNodeEEEEPvEEEENS_25__bucket_list_deallocatorINS7_ISI_EEEEE5firstB8ue170006Ev, symObjAddr: 0x17A54, symBinAddr: 0x10002121C, symSize: 0x24 }
  - { offsetInCU: 0x59922, offset: 0x705D8, size: 0x8, addend: 0x0, symName: __ZNKSt3__122__compressed_pair_elemIPPNS_16__hash_node_baseIPNS_11__hash_nodeINS_17__hash_value_typeINS_12basic_stringIcNS_11char_traitsIcEENS_9allocatorIcEEEENS_10shared_ptrI7ASTNodeEEEEPvEEEELi0ELb0EE5__getB8ue170006Ev, symObjAddr: 0x17A78, symBinAddr: 0x100021240, symSize: 0x14 }
  - { offsetInCU: 0x59948, offset: 0x705FE, size: 0x8, addend: 0x0, symName: __ZNKSt3__110unique_ptrIA_PNS_16__hash_node_baseIPNS_11__hash_nodeINS_17__hash_value_typeINS_12basic_stringIcNS_11char_traitsIcEENS_9allocatorIcEEEENS_10shared_ptrI7ASTNodeEEEEPvEEEENS_25__bucket_list_deallocatorINS7_ISI_EEEEE11get_deleterB8ue170006Ev, symObjAddr: 0x17A8C, symBinAddr: 0x100021254, symSize: 0x24 }
  - { offsetInCU: 0x5996E, offset: 0x70624, size: 0x8, addend: 0x0, symName: __ZNKSt3__125__bucket_list_deallocatorINS_9allocatorIPNS_16__hash_node_baseIPNS_11__hash_nodeINS_17__hash_value_typeINS_12basic_stringIcNS_11char_traitsIcEENS1_IcEEEENS_10shared_ptrI7ASTNodeEEEEPvEEEEEEE4sizeB8ue170006Ev, symObjAddr: 0x17AB0, symBinAddr: 0x100021278, symSize: 0x28 }
  - { offsetInCU: 0x59994, offset: 0x7064A, size: 0x8, addend: 0x0, symName: __ZNKSt3__117__compressed_pairIPPNS_16__hash_node_baseIPNS_11__hash_nodeINS_17__hash_value_typeINS_12basic_stringIcNS_11char_traitsIcEENS_9allocatorIcEEEENS_10shared_ptrI7ASTNodeEEEEPvEEEENS_25__bucket_list_deallocatorINS7_ISI_EEEEE6secondB8ue170006Ev, symObjAddr: 0x17AD8, symBinAddr: 0x1000212A0, symSize: 0x28 }
  - { offsetInCU: 0x599BA, offset: 0x70670, size: 0x8, addend: 0x0, symName: __ZNKSt3__122__compressed_pair_elemINS_25__bucket_list_deallocatorINS_9allocatorIPNS_16__hash_node_baseIPNS_11__hash_nodeINS_17__hash_value_typeINS_12basic_stringIcNS_11char_traitsIcEENS2_IcEEEENS_10shared_ptrI7ASTNodeEEEEPvEEEEEEEELi1ELb0EE5__getB8ue170006Ev, symObjAddr: 0x17B00, symBinAddr: 0x1000212C8, symSize: 0x14 }
  - { offsetInCU: 0x599E0, offset: 0x70696, size: 0x8, addend: 0x0, symName: __ZNKSt3__117__compressed_pairImNS_9allocatorIPNS_16__hash_node_baseIPNS_11__hash_nodeINS_17__hash_value_typeINS_12basic_stringIcNS_11char_traitsIcEENS1_IcEEEENS_10shared_ptrI7ASTNodeEEEEPvEEEEEEE5firstB8ue170006Ev, symObjAddr: 0x17B14, symBinAddr: 0x1000212DC, symSize: 0x24 }
